
nios_software.elf:     file format elf32-littlenios2
nios_software.elf
architecture: nios2:r1, flags 0x00000112:
EXEC_P, HAS_SYMS, D_PAGED
start address 0x00000248

Program Header:
    LOAD off    0x00001000 vaddr 0x00000000 paddr 0x00000000 align 2**12
         filesz 0x00000020 memsz 0x00000020 flags r-x
    LOAD off    0x00001020 vaddr 0x00000020 paddr 0x00000020 align 2**12
         filesz 0x00029d1c memsz 0x00029d1c flags r-x
    LOAD off    0x0002ad3c vaddr 0x00029d3c paddr 0x0002c738 align 2**12
         filesz 0x000029fc memsz 0x000029fc flags rw-
    LOAD off    0x0002e134 vaddr 0x0002f134 paddr 0x0002f134 align 2**12
         filesz 0x00000000 memsz 0x0000f3f8 flags rw-

Sections:
Idx Name          Size      VMA       LMA       File off  Algn
  0 .entry        00000020  00000000  00000000  00001000  2**5
                  CONTENTS, ALLOC, LOAD, READONLY, CODE
  1 .exceptions   00000228  00000020  00000020  00001020  2**2
                  CONTENTS, ALLOC, LOAD, READONLY, CODE
  2 .text         00028b90  00000248  00000248  00001248  2**2
                  CONTENTS, ALLOC, LOAD, READONLY, CODE
  3 .rodata       00000f64  00028dd8  00028dd8  00029dd8  2**2
                  CONTENTS, ALLOC, LOAD, READONLY, DATA
  4 .rwdata       000029fc  00029d3c  0002c738  0002ad3c  2**2
                  CONTENTS, ALLOC, LOAD, DATA, SMALL_DATA
  5 .bss          0000f3f8  0002f134  0002f134  0002e134  2**2
                  ALLOC, SMALL_DATA
  6 .sdram        00000000  0003e52c  0003e52c  0002d738  2**0
                  CONTENTS
  7 .flash_controller 00000000  08000000  08000000  0002d738  2**0
                  CONTENTS
  8 .onchip_memory 00000000  08800000  08800000  0002d738  2**0
                  CONTENTS
  9 .comment      00000023  00000000  00000000  0002d738  2**0
                  CONTENTS, READONLY
 10 .debug_aranges 000014e8  00000000  00000000  0002d760  2**3
                  CONTENTS, READONLY, DEBUGGING
 11 .debug_info   0003b473  00000000  00000000  0002ec48  2**0
                  CONTENTS, READONLY, DEBUGGING
 12 .debug_abbrev 0000dbac  00000000  00000000  0006a0bb  2**0
                  CONTENTS, READONLY, DEBUGGING
 13 .debug_line   000140b8  00000000  00000000  00077c67  2**0
                  CONTENTS, READONLY, DEBUGGING
 14 .debug_frame  00004d74  00000000  00000000  0008bd20  2**2
                  CONTENTS, READONLY, DEBUGGING
 15 .debug_str    00006f47  00000000  00000000  00090a94  2**0
                  CONTENTS, READONLY, DEBUGGING
 16 .debug_loc    0001f55a  00000000  00000000  000979db  2**0
                  CONTENTS, READONLY, DEBUGGING
 17 .debug_alt_sim_info 00000060  00000000  00000000  000b6f38  2**2
                  CONTENTS, READONLY, DEBUGGING
 18 .debug_ranges 00001c70  00000000  00000000  000b6f98  2**3
                  CONTENTS, READONLY, DEBUGGING
 19 .thread_model 00000006  00000000  00000000  000bfcb9  2**0
                  CONTENTS, READONLY
 20 .cpu          00000003  00000000  00000000  000bfcbf  2**0
                  CONTENTS, READONLY
 21 .qsys         00000001  00000000  00000000  000bfcc2  2**0
                  CONTENTS, READONLY
 22 .simulation_enabled 00000001  00000000  00000000  000bfcc3  2**0
                  CONTENTS, READONLY
 23 .sysid_hash   00000004  00000000  00000000  000bfcc4  2**0
                  CONTENTS, READONLY
 24 .sysid_base   00000004  00000000  00000000  000bfcc8  2**0
                  CONTENTS, READONLY
 25 .sysid_time   00000004  00000000  00000000  000bfccc  2**0
                  CONTENTS, READONLY
 26 .stderr_dev   00000009  00000000  00000000  000bfcd0  2**0
                  CONTENTS, READONLY
 27 .stdin_dev    00000009  00000000  00000000  000bfcd9  2**0
                  CONTENTS, READONLY
 28 .stdout_dev   00000009  00000000  00000000  000bfce2  2**0
                  CONTENTS, READONLY
 29 .sopc_system_name 0000000b  00000000  00000000  000bfceb  2**0
                  CONTENTS, READONLY
 30 .quartus_project_dir 0000003f  00000000  00000000  000bfcf6  2**0
                  CONTENTS, READONLY
 31 .sopcinfo     00125208  00000000  00000000  000bfd35  2**0
                  CONTENTS, READONLY
SYMBOL TABLE:
00000000 l    d  .entry	00000000 .entry
00000020 l    d  .exceptions	00000000 .exceptions
00000248 l    d  .text	00000000 .text
00028dd8 l    d  .rodata	00000000 .rodata
00029d3c l    d  .rwdata	00000000 .rwdata
0002f134 l    d  .bss	00000000 .bss
0003e52c l    d  .sdram	00000000 .sdram
08000000 l    d  .flash_controller	00000000 .flash_controller
08800000 l    d  .onchip_memory	00000000 .onchip_memory
00000000 l    d  .comment	00000000 .comment
00000000 l    d  .debug_aranges	00000000 .debug_aranges
00000000 l    d  .debug_info	00000000 .debug_info
00000000 l    d  .debug_abbrev	00000000 .debug_abbrev
00000000 l    d  .debug_line	00000000 .debug_line
00000000 l    d  .debug_frame	00000000 .debug_frame
00000000 l    d  .debug_str	00000000 .debug_str
00000000 l    d  .debug_loc	00000000 .debug_loc
00000000 l    d  .debug_alt_sim_info	00000000 .debug_alt_sim_info
00000000 l    d  .debug_ranges	00000000 .debug_ranges
00000000 l    df *ABS*	00000000 C:/Users/dagarbl2/Downloads/proyecto_CHS/software/nios_software_bsp//obj/HAL/src/crt0.o
00000290 l       .text	00000000 alt_after_alt_main
00000000 l    df *ABS*	00000000 alt_irq_handler.c
00000000 l    df *ABS*	00000000 alt_instruction_exception_entry.c
00000000 l    df *ABS*	00000000 main.c
00000000 l    df *ABS*	00000000 Ricardo_SD_Card_Avalon_Interface.c
00000000 l    df *ABS*	00000000 alt_ucosii_simple_error_check.c
00000000 l    df *ABS*	00000000 app_config.c
00000000 l    df *ABS*	00000000 effects.c
00000000 l    df *ABS*	00000000 histogram.c
00000000 l    df *ABS*	00000000 isr.c
00000000 l    df *ABS*	00000000 sdcard.c
00000000 l    df *ABS*	00000000 task_config.c
00000000 l    df *ABS*	00000000 s_sin.c
00000000 l    df *ABS*	00000000 e_rem_pio2.c
000295bc l     O .rodata	00000108 two_over_pi
0002953c l     O .rodata	00000080 npio2_hw
00000000 l    df *ABS*	00000000 k_cos.c
00000000 l    df *ABS*	00000000 k_rem_pio2.c
00029704 l     O .rodata	00000010 init_jk
000296c4 l     O .rodata	00000040 PIo2
00000000 l    df *ABS*	00000000 k_sin.c
00000000 l    df *ABS*	00000000 s_fabs.c
00000000 l    df *ABS*	00000000 s_floor.c
00000000 l    df *ABS*	00000000 s_scalbn.c
00000000 l    df *ABS*	00000000 s_copysign.c
00000000 l    df *ABS*	00000000 lib2-divmod.c
00000000 l    df *ABS*	00000000 adddf3.c
00000000 l    df *ABS*	00000000 divdf3.c
00000000 l    df *ABS*	00000000 eqdf2.c
00000000 l    df *ABS*	00000000 gedf2.c
00000000 l    df *ABS*	00000000 muldf3.c
00000000 l    df *ABS*	00000000 subdf3.c
00000000 l    df *ABS*	00000000 fixdfsi.c
00000000 l    df *ABS*	00000000 floatsidf.c
00000000 l    df *ABS*	00000000 libgcc2.c
00000000 l    df *ABS*	00000000 libgcc2.c
00000000 l    df *ABS*	00000000 exit.c
00000000 l    df *ABS*	00000000 fprintf.c
00000000 l    df *ABS*	00000000 fwrite.c
00000000 l    df *ABS*	00000000 impure.c
0002a69c l     O .rwdata	00000424 impure_data
00000000 l    df *ABS*	00000000 printf.c
00000000 l    df *ABS*	00000000 puts.c
00000000 l    df *ABS*	00000000 sprintf.c
00000000 l    df *ABS*	00000000 strcpy.c
00000000 l    df *ABS*	00000000 strlen.c
00000000 l    df *ABS*	00000000 strstr.c
0000b4d8 l     F .text	00000104 critical_factorization
0000b5dc l     F .text	000003b0 two_way_long_needle
00000000 l    df *ABS*	00000000 vfprintf.c
0002985e l     O .rodata	00000010 zeroes.4389
0002986e l     O .rodata	00000010 blanks.4388
00000000 l    df *ABS*	00000000 vfprintf.c
0002987e l     O .rodata	00000010 zeroes.4404
00010128 l     F .text	000000bc __sbprintf
0002988e l     O .rodata	00000010 blanks.4403
00000000 l    df *ABS*	00000000 wsetup.c
00000000 l    df *ABS*	00000000 __call_atexit.c
00000000 l    df *ABS*	00000000 dtoa.c
000104b8 l     F .text	00000200 quorem
00000000 l    df *ABS*	00000000 fflush.c
00000000 l    df *ABS*	00000000 findfp.c
00011fe8 l     F .text	00000008 __fp_unlock
00011ffc l     F .text	0000019c __sinit.part.1
00012198 l     F .text	00000008 __fp_lock
00000000 l    df *ABS*	00000000 mallocr.c
00000000 l    df *ABS*	00000000 fvwrite.c
00000000 l    df *ABS*	00000000 fwalk.c
00000000 l    df *ABS*	00000000 locale.c
0002aae0 l     O .rwdata	00000020 lc_ctype_charset
0002aac0 l     O .rwdata	00000020 lc_message_charset
0002ab00 l     O .rwdata	00000038 lconv
00000000 l    df *ABS*	00000000 makebuf.c
00000000 l    df *ABS*	00000000 mallocr.c
00000000 l    df *ABS*	00000000 memchr.c
00000000 l    df *ABS*	00000000 memcmp.c
00000000 l    df *ABS*	00000000 memcpy.c
00000000 l    df *ABS*	00000000 memmove.c
00000000 l    df *ABS*	00000000 memset.c
00000000 l    df *ABS*	00000000 mprec.c
000298bc l     O .rodata	0000000c p05.2768
00000000 l    df *ABS*	00000000 mallocr.c
00000000 l    df *ABS*	00000000 s_fpclassify.c
00000000 l    df *ABS*	00000000 sbrkr.c
00000000 l    df *ABS*	00000000 stdio.c
00000000 l    df *ABS*	00000000 strchr.c
00000000 l    df *ABS*	00000000 strcmp.c
00000000 l    df *ABS*	00000000 vfprintf.c
000299f0 l     O .rodata	00000010 blanks.4332
000299e0 l     O .rodata	00000010 zeroes.4333
00000000 l    df *ABS*	00000000 vfprintf.c
00016b80 l     F .text	000000fc __sprint_r.part.0
00029a10 l     O .rodata	00000010 blanks.4348
00029a00 l     O .rodata	00000010 zeroes.4349
0001810c l     F .text	000000bc __sbprintf
00000000 l    df *ABS*	00000000 writer.c
00000000 l    df *ABS*	00000000 closer.c
00000000 l    df *ABS*	00000000 mallocr.c
00000000 l    df *ABS*	00000000 fclose.c
00000000 l    df *ABS*	00000000 fputwc.c
00000000 l    df *ABS*	00000000 fstatr.c
00000000 l    df *ABS*	00000000 int_errno.c
00000000 l    df *ABS*	00000000 isattyr.c
00000000 l    df *ABS*	00000000 lseekr.c
00000000 l    df *ABS*	00000000 readr.c
00000000 l    df *ABS*	00000000 wbuf.c
00000000 l    df *ABS*	00000000 wcrtomb.c
00000000 l    df *ABS*	00000000 wctomb_r.c
00000000 l    df *ABS*	00000000 libgcc2.c
00000000 l    df *ABS*	00000000 libgcc2.c
00000000 l    df *ABS*	00000000 ledf2.c
00000000 l    df *ABS*	00000000 floatunsidf.c
00000000 l    df *ABS*	00000000 alt_close.c
00019748 l     F .text	0000003c alt_get_errno
00000000 l    df *ABS*	00000000 alt_dev.c
00019854 l     F .text	0000002c alt_dev_null_write
00000000 l    df *ABS*	00000000 alt_errno.c
00000000 l    df *ABS*	00000000 alt_exit.c
00000000 l    df *ABS*	00000000 alt_find_dev.c
00000000 l    df *ABS*	00000000 alt_fstat.c
00019944 l     F .text	0000003c alt_get_errno
00000000 l    df *ABS*	00000000 alt_irq_register.c
00000000 l    df *ABS*	00000000 alt_irq_vars.c
00000000 l    df *ABS*	00000000 alt_isatty.c
00019bb0 l     F .text	0000003c alt_get_errno
00000000 l    df *ABS*	00000000 alt_load.c
00019c90 l     F .text	00000068 alt_load_section
00000000 l    df *ABS*	00000000 alt_lseek.c
00019d7c l     F .text	0000003c alt_get_errno
00000000 l    df *ABS*	00000000 alt_main.c
00000000 l    df *ABS*	00000000 alt_read.c
00019f48 l     F .text	0000003c alt_get_errno
00000000 l    df *ABS*	00000000 alt_release_fd.c
00000000 l    df *ABS*	00000000 alt_sbrk.c
0002c6a8 l     O .rwdata	00000004 heap_end
00000000 l    df *ABS*	00000000 alt_write.c
0001a194 l     F .text	0000003c alt_get_errno
00000000 l    df *ABS*	00000000 alt_env_lock.c
0002c6ac l     O .rwdata	00000004 lockid
0002f1d4 l     O .bss	00000004 locks
00000000 l    df *ABS*	00000000 alt_malloc_lock.c
0002c6b0 l     O .rwdata	00000004 lockid
0002f1dc l     O .bss	00000004 locks
00000000 l    df *ABS*	00000000 os_core.c
0001bbc4 l     F .text	00000048 OS_InitMisc
0001bc0c l     F .text	0000006c OS_InitRdyList
0001bd78 l     F .text	000000e4 OS_InitTCBList
0001bae4 l     F .text	000000e0 OS_InitEventList
0001bc78 l     F .text	00000080 OS_InitTaskIdle
0001bcf8 l     F .text	00000080 OS_InitTaskStat
0001bfe8 l     F .text	00000074 OS_SchedNew
00000000 l    df *ABS*	00000000 os_dbg.c
00000000 l    df *ABS*	00000000 os_flag.c
0001dcf8 l     F .text	000000f4 OS_FlagTaskRdy
0001dab8 l     F .text	00000160 OS_FlagBlock
00000000 l    df *ABS*	00000000 os_mbox.c
00000000 l    df *ABS*	00000000 os_mem.c
00000000 l    df *ABS*	00000000 os_q.c
00000000 l    df *ABS*	00000000 os_sem.c
00000000 l    df *ABS*	00000000 os_task.c
00000000 l    df *ABS*	00000000 os_time.c
00000000 l    df *ABS*	00000000 alt_sys_init.c
00022864 l     F .text	00000034 alt_dev_reg
0002b0e8 l     O .rwdata	000000dc flash_controller
0002b1c4 l     O .rwdata	0000106c jtag_uart
0002c230 l     O .rwdata	00000030 audio_config
0002c260 l     O .rwdata	00000030 audio
0002c290 l     O .rwdata	0000002c char_lcd
0002c2bc l     O .rwdata	0000002c green_leds
0002c2e8 l     O .rwdata	0000002c HEX3_HEX0
0002c314 l     O .rwdata	0000002c HEX7_HEX4
0002c340 l     O .rwdata	0000002c pushbuttons
0002c36c l     O .rwdata	0000002c red_leds
0002c398 l     O .rwdata	0000002c switches
0002c3c4 l     O .rwdata	00000038 ps2_key
0002c3fc l     O .rwdata	00000038 ps2_mouse
0002c434 l     O .rwdata	0000002c serial_port
0002c460 l     O .rwdata	00000048 mtl_char_buffer
0002c4a8 l     O .rwdata	0000005c camera_video_dma_controller
0002c504 l     O .rwdata	0000005c video_dma_controller_ip_camera_input
0002c560 l     O .rwdata	0000005c video_dma_controller_ip_output
0002c5bc l     O .rwdata	00000054 mtl_pixel_buffer_dma
0002c610 l     O .rwdata	0000002c SD_Card
00000000 l    df *ABS*	00000000 altera_avalon_cfi_flash.c
0002343c l     F .text	00000034 alt_flash_device_register
00000000 l    df *ABS*	00000000 altera_avalon_cfi_flash_table.c
0002428c l     F .text	00000080 alt_read_16bit_query_entry
00000000 l    df *ABS*	00000000 altera_avalon_jtag_uart_fd.c
00000000 l    df *ABS*	00000000 altera_avalon_jtag_uart_init.c
000253bc l     F .text	000002a8 altera_avalon_jtag_uart_irq
00025664 l     F .text	00000104 altera_avalon_jtag_uart_timeout
00000000 l    df *ABS*	00000000 altera_avalon_jtag_uart_ioctl.c
00000000 l    df *ABS*	00000000 altera_avalon_jtag_uart_read.c
00000000 l    df *ABS*	00000000 altera_avalon_jtag_uart_write.c
00000000 l    df *ABS*	00000000 altera_avalon_timer_sc.c
00025e40 l     F .text	0000007c alt_avalon_timer_sc_irq
00000000 l    df *ABS*	00000000 altera_up_avalon_character_lcd.c
00000000 l    df *ABS*	00000000 altera_up_avalon_ps2.c
00000000 l    df *ABS*	00000000 altera_up_avalon_rs232.c
00000000 l    df *ABS*	00000000 altera_up_avalon_video_character_buffer_with_dma.c
00000000 l    df *ABS*	00000000 alt_alarm_start.c
00000000 l    df *ABS*	00000000 alt_dcache_flush.c
00000000 l    df *ABS*	00000000 alt_dcache_flush_all.c
00000000 l    df *ABS*	00000000 alt_dev_llist_insert.c
00027330 l     F .text	0000003c alt_get_errno
00000000 l    df *ABS*	00000000 alt_do_ctors.c
00000000 l    df *ABS*	00000000 alt_do_dtors.c
00000000 l    df *ABS*	00000000 alt_flash_dev.c
00000000 l    df *ABS*	00000000 alt_icache_flush_all.c
00000000 l    df *ABS*	00000000 alt_io_redirect.c
000275c0 l     F .text	000000c4 alt_open_fd
00000000 l    df *ABS*	00000000 alt_open.c
00027700 l     F .text	0000003c alt_get_errno
0002773c l     F .text	000000c4 alt_file_locked
00000000 l    df *ABS*	00000000 alt_tick.c
00000000 l    df *ABS*	00000000 altera_nios2_gen2_irq.c
00000000 l    df *ABS*	00000000 os_cpu_a.o
00000040 l       *ABS*	00000000 OSCtxSw_SWITCH_PC
00000000 l    df *ABS*	00000000 os_cpu_c.c
00000014 l       *ABS*	00000000 OSTCBNext_OFFSET
00000032 l       *ABS*	00000000 OSTCBPrio_OFFSET
00000000 l       *ABS*	00000000 OSTCBStkPtr_OFFSET
00000000 l    df *ABS*	00000000 altera_avalon_cfi_flash_amd.c
00028208 l     F .text	000000cc alt_write_word_amd
000280ec l     F .text	0000011c alt_wait_for_command_to_complete_amd
00000000 l    df *ABS*	00000000 altera_avalon_cfi_flash_intel.c
000284e0 l     F .text	0000017c alt_unlock_block_intel
0002865c l     F .text	000000d4 alt_write_word_intel
00000000 l    df *ABS*	00000000 alt_find_file.c
00000000 l    df *ABS*	00000000 alt_get_fd.c
00000000 l    df *ABS*	00000000 alt_icache_flush.c
00000000 l    df *ABS*	00000000 alt_usleep.c
00000000 l    df *ABS*	00000000 alt_busy_sleep.c
00000000 l    df *ABS*	00000000 atexit.c
00000000 l    df *ABS*	00000000 __atexit.c
0002f23c g     O .bss	00000004 alt_instruction_exception_handler
0002c650 g     O .rwdata	00000004 SW_switch_ptr
0002f14c g     O .bss	00000004 aux_status_register
00014c54 g     F .text	00000074 _mprec_log10
0002c6fe g     O .rwdata	00000002 OSTaskNameSize
00014d40 g     F .text	0000008c __any_on
000186a8 g     F .text	00000054 _isatty_r
000298c8 g     O .rodata	00000028 __mprec_tinytens
00019e8c g     F .text	000000bc alt_main
0000b3b0 g     F .text	00000090 strcpy
0000b218 g     F .text	000000c0 _puts_r
00023d50 g     F .text	00000040 alt_read_query_entry_32bit
00026670 g     F .text	00000060 alt_up_ps2_disable_read_interrupt
0003e42c g     O .bss	00000100 alt_irq
000085f0 g     F .text	00000014 fabs
000186fc g     F .text	00000060 _lseek_r
0001efe0 g     F .text	000000cc OS_MemInit
00023500 g     F .text	000002a8 alt_flash_cfi_write
0002c738 g       *ABS*	00000000 __flash_rwdata_start
00022804 g     F .text	00000060 OSTimeSet
00025fa4 g     F .text	00000040 alt_up_character_lcd_send_cmd
00009cf0 g     F .text	00000088 .hidden __eqdf2
00005ef8 g     F .text	00000078 printHeader
00000634 g     F .text	000001a4 Check_for_Master_Boot_Record
0001a838 g     F .text	00000610 OSEventPendMulti
0003e52c g       *ABS*	00000000 __alt_heap_start
00027d48 g     F .text	00000024 OSTaskCreateHook
00004434 g     F .text	000001bc alt_up_sd_card_fclose
0000b1dc g     F .text	0000003c printf
0002c6d6 g     O .rwdata	00000002 OSMboxEn
0001aea0 g     F .text	0000004c OSIntEnter
00018914 g     F .text	0000009c _wcrtomb_r
00005674 g     F .text	00000154 writeWord
000060ac g     F .text	00000294 TaskSdcard
000154d0 g     F .text	0000005c __sseek
00012338 g     F .text	00000010 __sinit
00026fec g     F .text	000000fc alt_up_char_buffer_string
000187bc g     F .text	00000140 __swbuf_r
00026488 g     F .text	00000034 read_CE_bit
0002c6e6 g     O .rwdata	00000002 OSQEn
0002c666 g     O .rwdata	00000002 color_G
00012e00 g     F .text	0000007c _setlocale_r
000121a0 g     F .text	00000068 __sfmoreglue
0001a50c g     F .text	000000cc __malloc_unlock
00027db0 g     F .text	00000020 OSTaskStatHook
00026810 g     F .text	0000009c alt_up_ps2_read_data_byte_timeout
00026d04 g     F .text	00000090 alt_up_rs232_read_fd
0002f1e4 g     O .bss	00000001 OSLockNesting
0002f170 g     O .bss	00000004 current_sector_modified
0002c724 g     O .rwdata	00000002 OSDataSize
0002f1e5 g     O .bss	00000001 OSRunning
00026f20 g     F .text	000000cc alt_up_char_buffer_draw
00005d40 g     F .text	000001b8 loadFiles
00013b4c g     F .text	0000015c memmove
00027df0 g     F .text	00000020 OSInitHookBegin
0002c71c g     O .rwdata	00000002 OSTmrSize
00012320 g     F .text	00000018 _cleanup
0002c66c g     O .rwdata	00000004 threshold
00013dd0 g     F .text	000000a8 _Balloc
00003050 g     F .text	000000c4 alt_up_sd_card_is_Present
0000037c g     F .text	0000004c Save_Modified_Sector
0002f1e8 g     O .bss	00000004 OSIdleCtr
00009d78 g     F .text	000000dc .hidden __gtdf2
00027af8 g     F .text	00000024 altera_nios2_gen2_irq_init
00027bc8 g       .text	00000000 OSStartTsk
00025f30 g     F .text	00000074 get_DDRAM_addr
0001c318 g     F .text	000002d4 OS_TCBInit
00023ee8 g     F .text	00000050 alt_write_flash_command_32bit_device_16bit_mode
00000000 g     F .entry	0000001c __reset
0002f168 g     O .bss	00000004 fat_partition_size_in_512_byte_sectors
0002c722 g     O .rwdata	00000002 OSTmrWheelTblSize
00000020 g       *ABS*	00000000 __flash_exceptions_start
0002c6c2 g     O .rwdata	00000002 OSEventSize
0002f1ec g     O .bss	00000001 OSPrioHighRdy
0001864c g     F .text	0000005c _fstat_r
00027d6c g     F .text	00000024 OSTaskDelHook
000239f4 g     F .text	000002e0 alt_flash_program_block
0002f1bc g     O .bss	00000004 errno
00008604 g     F .text	000001ec floor
0001544c g     F .text	00000008 __seofread
00027ba8 g       .text	00000000 OSStartHighRdy
000212ac g     F .text	000001e4 OSTaskCreateExt
00015944 g     F .text	0000123c ___svfiprintf_internal_r
0001d600 g     F .text	00000060 OSFlagPendGetFlagsRdy
0002c702 g     O .rwdata	00000002 OSTaskStatStkSize
0001c77c g     F .text	00000308 OSFlagAccept
0001f618 g     F .text	000000b8 OSQFlush
0001f0ac g     F .text	00000140 OSQAccept
0002f1cc g     O .bss	00000004 alt_argv
0002f268 g     O .bss	00002000 image_task_stk
0003463c g       *ABS*	00000000 _gp
00028a40 g     F .text	00000114 usleep
00003620 g     F .text	0000037c alt_up_sd_card_fopen
00003180 g     F .text	000000d0 alt_up_sd_card_find_first
0002c654 g     O .rwdata	00000004 LCD_display_ptr
00021100 g     F .text	000001ac OSTaskCreate
0002f15c g     O .bss	00000004 command_argument_register
00020c10 g     F .text	000004f0 OSTaskChangePrio
0002f1e0 g     O .bss	00000004 alt_heapsem
0001c5ec g     F .text	00000190 OSDebugInit
00021490 g     F .text	00000344 OSTaskDel
0002af68 g     O .rwdata	00000180 alt_fd_list
0003b208 g     O .bss	00000370 OSFlagTbl
00006984 g     F .text	0000076c __ieee754_rem_pio2
00004a94 g     F .text	0000009c Init_App
0001b8c4 g     F .text	000000b8 OS_EventTaskRemove
000028b4 g     F .text	00000134 find_first_empty_record_in_root_directory
000198b4 g     F .text	00000090 alt_find_dev
00013a04 g     F .text	00000148 memcpy
0002c6ec g     O .rwdata	00000002 OSRdyTblSize
0002614c g     F .text	00000050 alt_up_character_lcd_write_fd
000270e8 g     F .text	0000005c alt_up_char_buffer_clear
00011ff0 g     F .text	0000000c _cleanup_r
0000aee8 g     F .text	000000dc .hidden __floatsidf
00027684 g     F .text	0000007c alt_io_redirect
000195ac g     F .text	000000f4 .hidden __ltdf2
00028dd8 g       *ABS*	00000000 __DTOR_END__
00026c90 g     F .text	00000074 alt_up_rs232_read_data
0000b2d8 g     F .text	00000014 puts
000289a4 g     F .text	0000009c alt_exception_cause_generated_bad_addr
0001a5d8 g     F .text	00000120 OSEventNameGet
0002c6d0 g     O .rwdata	00000002 OSFlagMax
000024ac g     F .text	000001bc find_first_empty_cluster
0002f188 g     O .bss	00000004 SW_value
00015330 g     F .text	00000074 __fpclassifyd
0002c63c g     O .rwdata	00000004 red_LED_ptr
00014bb0 g     F .text	000000a4 __ratio
00002f94 g     F .text	000000bc alt_up_sd_card_open_dev
0001aeec g     F .text	000000f8 OSIntExit
0002c648 g     O .rwdata	00000004 HEX7_HEX4_ptr
08000000 g       *ABS*	00000000 __alt_mem_flash_controller
000180f0 g     F .text	0000001c __vfiprintf_internal
0002c70a g     O .rwdata	00000002 OSTCBSize
0002f1ed g     O .bss	00000001 OSPrioCur
000258c0 g     F .text	000002bc altera_avalon_jtag_uart_read
0000b1ac g     F .text	00000030 _printf_r
00008aa0 g     F .text	00000064 .hidden __udivsi3
00019bec g     F .text	000000a4 isatty
0002c6f0 g     O .rwdata	00000002 OSStkWidth
00029918 g     O .rodata	000000c8 __mprec_tens
0002c6e4 g     O .rwdata	00000002 OSPtrSize
0002f1a0 g     O .bss	00000004 image
00012e7c g     F .text	0000000c __locale_charset
000070f0 g     F .text	000004a4 __kernel_cos
0002c6c4 g     O .rwdata	00000002 OSEventTblSize
00027b1c g       .text	00000000 OSCtxSw
00028914 g     F .text	00000090 alt_icache_flush
0002f1b8 g     O .bss	00000004 __malloc_top_pad
0002f1f0 g     O .bss	00000004 OSTCBList
0002f1c0 g     O .bss	00000004 alt_fd_list_lock
0002f134 g     O .bss	00000004 saveimg
0002c67c g     O .rwdata	00000004 __mb_cur_max
00012eac g     F .text	0000000c _localeconv_r
000141dc g     F .text	0000003c __i2b
000127bc g     F .text	000004bc __sfvwrite_r
0000179c g     F .text	000000b8 get_dir_divider_location
0003b578 g     O .bss	00000c30 OSMemTbl
0002f1f4 g     O .bss	00000001 OSTickStepState
000153a4 g     F .text	00000054 _sbrk_r
000282d4 g     F .text	00000080 alt_program_intel
0000146c g     F .text	000000c4 filename_to_upper_case
0002f180 g     O .bss	00000004 effect
000057c8 g     F .text	000000c8 writeShort
0002c6e8 g     O .rwdata	00000002 OSQMax
0000399c g     F .text	00000088 alt_up_sd_card_set_attributes
0003c1a8 g     O .bss	00000800 OSTaskStatStk
0001ec1c g     F .text	000000f0 OSMemNameGet
000007d8 g     F .text	0000027c Read_File_Record_At_Offset
0002c6c8 g     O .rwdata	00000002 OSFlagEn
0001875c g     F .text	00000060 _read_r
0002c70e g     O .rwdata	00000002 OSTimeTickHookEn
00027270 g     F .text	00000078 alt_dcache_flush
0001fac8 g     F .text	00000168 OSQPost
0001ddec g     F .text	000000a4 OS_FlagUnlink
0002c69c g     O .rwdata	00000004 alt_max_fd
00026c0c g     F .text	00000044 alt_up_rs232_check_parity
00023cd4 g     F .text	0000003c alt_read_query_entry_8bit
0001beb0 g     F .text	00000068 OS_MemCopy
0001bf18 g     F .text	000000d0 OS_Sched
00018340 g     F .text	000000f0 _fclose_r
00002030 g     F .text	0000047c find_file_in_directory
0001eb2c g     F .text	000000f0 OSMemGet
0001e848 g     F .text	00000110 OSMboxQuery
00021abc g     F .text	000001b4 OSTaskNameSet
000264bc g     F .text	00000030 read_num_bytes_available
00028354 g     F .text	0000018c alt_erase_block_intel
00011fb8 g     F .text	00000030 fflush
0002f1b4 g     O .bss	00000004 __malloc_max_sbrked_mem
0002f1f8 g     O .bss	00000004 OSCtxSwCtr
00027dd0 g     F .text	00000020 OSTimeTickHook
00019a30 g     F .text	00000180 alt_irq_register
0002c6d2 g     O .rwdata	00000002 OSFlagNameSize
00026424 g     F .text	00000034 read_RI_bit
00008324 g     F .text	000002cc __kernel_sin
0001b97c g     F .text	00000100 OS_EventTaskRemoveMulti
00003114 g     F .text	0000006c alt_up_sd_card_is_FAT16
00008b5c g     F .text	000008ac .hidden __adddf3
0001b774 g     F .text	00000150 OS_EventTaskWaitMulti
00014958 g     F .text	0000010c __b2d
0002c6ea g     O .rwdata	00000002 OSQSize
00019074 g     F .text	00000538 .hidden __umoddi3
00019db8 g     F .text	000000d4 lseek
00020578 g     F .text	0000020c OSSemPend
0002c674 g     O .rwdata	00000004 _global_impure_ptr
00001af0 g     F .text	00000540 get_home_directory_cluster_for_file
0002f190 g     O .bss	00000004 aux
00014dcc g     F .text	00000564 _realloc_r
0002c6d4 g     O .rwdata	00000002 OSLowestPrio
0003e52c g       *ABS*	00000000 __bss_end
00027e50 g     F .text	00000024 OSTCBInitHook
0002c71a g     O .rwdata	00000002 OSTmrCfgTicksPerSec
000279f0 g     F .text	00000108 alt_tick
0001e5dc g     F .text	00000110 OSMboxPost
00018afc g     F .text	00000578 .hidden __udivdi3
000185a8 g     F .text	00000024 _fputwc_r
0002c6bc g     O .rwdata	00000002 OSEventEn
000298f0 g     O .rodata	00000028 __mprec_bigtens
00013fc0 g     F .text	00000104 __s2b
0002c716 g     O .rwdata	00000002 OSTmrCfgNameSize
00005564 g     F .text	00000110 getWord
000196a0 g     F .text	000000a8 .hidden __floatunsidf
00014698 g     F .text	00000060 __mcmp
0002f174 g     O .bss	00000004 current_sector_index
00026520 g     F .text	0000002c read_data_byte
00012358 g     F .text	00000018 __fp_lock_all
0001dc18 g     F .text	000000e0 OS_FlagInit
00027954 g     F .text	0000009c alt_alarm_stop
0002c64c g     O .rwdata	00000004 KEY_ptr
00026458 g     F .text	00000030 read_RE_bit
00000554 g     F .text	000000e0 mark_cluster
0002c6f8 g     O .rwdata	00000002 OSTaskIdleStkSize
0002f1c4 g     O .bss	00000004 alt_irq_active
000201b0 g     F .text	000000b0 OSSemAccept
0001ee20 g     F .text	000000d8 OSMemPut
0001e958 g     F .text	000001d4 OSMemCreate
0002f1fc g     O .bss	00000004 OSIdleCtrMax
0002f18c g     O .bss	00000004 lastPressed
000000fc g     F .exceptions	000000d8 alt_irq_handler
0002af40 g     O .rwdata	00000028 alt_dev_null
0002c70c g     O .rwdata	00000002 OSTicksPerSec
00007594 g     F .text	00000d90 __kernel_rem_pio2
0002c65c g     O .rwdata	00000004 character_buffer
000029e8 g     F .text	0000018c convert_filename_to_name_extension
0000591c g     F .text	00000114 isBMP
000263ec g     F .text	00000038 alt_up_character_lcd_cursor_blink_on
000241f0 g     F .text	0000009c alt_set_flash_algorithm_func
00027b1c g       .text	00000000 OSIntCtxSw
000266d0 g     F .text	00000074 alt_up_ps2_write_data_byte
000272e8 g     F .text	00000048 alt_dcache_flush_all
000140c4 g     F .text	00000068 __hi0bits
00031268 g     O .bss	00002000 hist_task_stk
0002f148 g     O .bss	00000004 is_sd_card_formated_as_FAT16
0002a37c g     O .rwdata	00000320 B
0002c644 g     O .rwdata	00000004 HEX3_HEX0_ptr
0000ae68 g     F .text	00000080 .hidden __fixdfsi
00023d90 g     F .text	00000044 alt_write_flash_command_8bit_device_8bit_mode
00002668 g     F .text	0000024c find_first_empty_record_in_a_subdirectory
0002f200 g     O .bss	00000004 OSTCBFreeList
0002c738 g       *ABS*	00000000 __ram_rwdata_end
00020784 g     F .text	0000016c OSSemPendAbort
08800000 g       *ABS*	00000000 __alt_mem_onchip_memory
00004b30 g     F .text	00000280 TaskPoll
0002c694 g     O .rwdata	00000008 alt_dev_list
0001a1d0 g     F .text	000000f8 write
0002c668 g     O .rwdata	00000002 color_B
0002f16c g     O .bss	00000004 device_pointer
0002c710 g     O .rwdata	00000002 OSVersionNbr
000066dc g     F .text	0000004c TaskInit
00029d3c g       *ABS*	00000000 __ram_rodata_end
00019980 g     F .text	000000b0 fstat
0000b088 g     F .text	00000024 fprintf
00026d94 g     F .text	00000094 alt_up_rs232_write_fd
000195ac g     F .text	000000f4 .hidden __ledf2
00025044 g     F .text	000000d8 alt_check_primary_table
000397d0 g     O .bss	00000028 info_st
0002c6b8 g     O .rwdata	00000004 OSEndiannessTest
00014410 g     F .text	00000140 __pow5mult
00016c94 g     F .text	0000145c ___vfiprintf_internal_r
0002f1ac g     O .bss	00000004 __nlocale_changed
00008b04 g     F .text	00000058 .hidden __umodsi3
00023834 g     F .text	00000064 alt_flash_cfi_read
00023f88 g     F .text	00000038 alt_write_native_8bit
0002f138 g     O .bss	00000004 getimg
0002c6ca g     O .rwdata	00000002 OSFlagGrpSize
0003e52c g       *ABS*	00000000 end
00026a00 g     F .text	00000098 alt_up_ps2_write_fd
00023dd4 g     F .text	00000078 alt_write_flash_command_16bit_device_8bit_mode
00026e64 g     F .text	00000080 alt_up_char_buffer_init
0002430c g     F .text	000005c8 alt_read_cfi_table
00025280 g     F .text	0000013c altera_avalon_jtag_uart_init
0001c180 g     F .text	000000cc OS_TaskStat
000001d4 g     F .exceptions	00000074 alt_instruction_exception_entry
00028dd8 g       *ABS*	00000000 __CTOR_LIST__
08000000 g       *ABS*	00000000 __alt_stack_pointer
00025ebc g     F .text	00000074 alt_avalon_timer_sc_init
0000afc4 g     F .text	00000064 .hidden __clzsi2
00025b7c g     F .text	000002c4 altera_avalon_jtag_uart_write
00023470 g     F .text	00000090 alt_flash_cfi_init
00012348 g     F .text	00000004 __sfp_lock_acquire
000138a4 g     F .text	000000e4 memchr
0001be5c g     F .text	00000054 OS_MemClr
00026058 g     F .text	0000007c alt_up_character_lcd_write
0000df14 g     F .text	000021f8 ___vfprintf_internal_r
00027bec g     F .text	0000015c OSTaskStkInit
0000b2ec g     F .text	00000058 _sprintf_r
000124ac g     F .text	00000310 _free_r
00012e88 g     F .text	00000010 __locale_mb_cur_max
0001b4cc g     F .text	00000198 OS_EventTaskRdy
00010338 g     F .text	00000180 __call_exitprocs
0002f204 g     O .bss	00000001 OSCPUUsage
0002f1a8 g     O .bss	00000004 __mlocale_changed
000397f8 g     O .bss	00001a00 archivos
0000541c g     F .text	00000148 pushbutton_isr
0002c680 g     O .rwdata	00000004 __malloc_sbrk_base
00000248 g     F .text	0000004c _start
0002f234 g     O .bss	00000004 _alt_tick_rate
0001f6d0 g     F .text	0000028c OSQPend
0000b98c g     F .text	000003b0 strstr
00006894 g     F .text	000000f0 sin
0002237c g     F .text	00000104 OSTimeDly
00014550 g     F .text	00000148 __lshift
0002f238 g     O .bss	00000004 _alt_nticks
00019f84 g     F .text	000000fc read
0002f178 g     O .bss	00000004 old_sw
000228d0 g     F .text	00000b6c alt_sys_init
0002629c g     F .text	0000008c alt_up_character_lcd_shift_display
00015774 g     F .text	000001d0 __ssprint_r
00028cc0 g     F .text	00000118 __register_exitproc
0002f205 g     O .bss	00000001 OSTaskCtr
0002f194 g     O .bss	00000004 KEY_value
0002691c g     F .text	00000058 alt_up_ps2_clear_fifo
00026bd0 g     F .text	0000003c alt_up_rs232_get_available_space_in_write_FIFO
0002c664 g     O .rwdata	00000002 color_R
00023d10 g     F .text	00000040 alt_read_query_entry_16bit
00022480 g     F .text	00000154 OSTimeDlyHMSM
00014218 g     F .text	000001f8 __multiply
00026328 g     F .text	0000008c alt_up_character_lcd_erase_pos
00025768 g     F .text	00000068 altera_avalon_jtag_uart_close
00029d3c g       *ABS*	00000000 __ram_rwdata_start
00028dd8 g       *ABS*	00000000 __ram_rodata_start
0002f240 g     O .bss	00000028 __malloc_current_mallinfo
0002c6be g     O .rwdata	00000002 OSEventMax
0002402c g     F .text	000001c4 alt_set_flash_width_func
00014a64 g     F .text	0000014c __d2b
000208f0 g     F .text	00000110 OSSemPost
0002a05c g     O .rwdata	00000320 G
0002f144 g     O .bss	00000004 initialized
0002c670 g     O .rwdata	00000004 img
0001b070 g     F .text	000000dc OSSchedUnlock
0002511c g     F .text	00000060 altera_avalon_jtag_uart_read_fd
00028838 g     F .text	000000dc alt_get_fd
0002f208 g     O .bss	00000004 OSMemFreeList
0001b1bc g     F .text	000000b0 OSStatInit
00028b54 g     F .text	00000158 alt_busy_sleep
00039268 g     O .bss	00000014 search_data
0001d9f4 g     F .text	000000c4 OSFlagQuery
0002c6f4 g     O .rwdata	00000002 OSTaskCreateExtEn
00018228 g     F .text	00000054 _close_r
00027edc g     F .text	00000210 alt_erase_block_amd
00006660 g     F .text	0000007c CreateTasks
00013988 g     F .text	0000007c memcmp
0001b4ac g     F .text	00000020 OS_Dummy
000251dc g     F .text	00000050 altera_avalon_jtag_uart_close_fd
0003e52c g       *ABS*	00000000 __alt_stack_base
0002522c g     F .text	00000054 altera_avalon_jtag_uart_ioctl_fd
00005f70 g     F .text	0000013c printInfo
0000b0ac g     F .text	000000cc _fwrite_r
000101e4 g     F .text	00000154 __swsetup_r
000248d4 g     F .text	00000770 alt_read_cfi_width
0003c9a8 g     O .bss	000001e0 OSQTbl
00009408 g     F .text	000008e8 .hidden __divdf3
00012208 g     F .text	00000118 __sfp
0003927c g     O .bss	00000054 boot_sector_data
00014cc8 g     F .text	00000078 __copybits
0002ab38 g     O .rwdata	00000408 __malloc_av_
00012354 g     F .text	00000004 __sinit_lock_release
0002f20c g     O .bss	00000004 OSTCBHighRdy
00009e54 g     F .text	00000718 .hidden __muldf3
000153f8 g     F .text	00000054 __sread
0002f210 g     O .bss	00000004 OSQFreeList
00026b30 g     F .text	00000060 alt_up_rs232_disable_read_interrupt
00028730 g     F .text	00000108 alt_find_file
0002736c g     F .text	000000a4 alt_dev_llist_insert
0001a3ec g     F .text	00000120 __malloc_lock
0000b060 g     F .text	00000028 _fprintf_r
0001a0e4 g     F .text	000000b0 sbrk
0000bd3c g     F .text	000021d8 ___svfprintf_internal_r
00005384 g     F .text	00000098 capture_isr
0001a6f8 g     F .text	00000140 OSEventNameSet
00011f5c g     F .text	0000005c _fflush_r
0001827c g     F .text	000000c4 _calloc_r
0002f214 g     O .bss	00000001 OSRdyGrp
0002c728 g     O .rwdata	00000008 alt_flash_dev_list
00023e9c g     F .text	0000004c alt_write_flash_command_16bit_device_16bit_mode
0002f134 g       *ABS*	00000000 __bss_start
00013ca8 g     F .text	00000128 memset
0002f13c g     O .bss	00000002 err
00000294 g     F .text	00000034 main
0002f1d0 g     O .bss	00000004 alt_envp
0002f1b0 g     O .bss	00000004 __malloc_max_total_mem
00026ee4 g     F .text	0000003c alt_up_char_buffer_open_dev
0002517c g     F .text	00000060 altera_avalon_jtag_uart_write_fd
000188fc g     F .text	00000018 __swbuf
00029a3c g     O .rodata	00000100 OSUnMapTbl
00006728 g     F .text	0000016c initCreateTasks
00003a24 g     F .text	00000088 alt_up_sd_card_get_attributes
0002c6ee g     O .rwdata	00000002 OSSemEn
000002c8 g     F .text	000000b4 Write_Sector_Data
0002c660 g     O .rwdata	00000004 EFFECT_ptr
00003e24 g     F .text	00000610 alt_up_sd_card_write
00026210 g     F .text	0000008c alt_up_character_lcd_shift_cursor
0001d660 g     F .text	00000394 OSFlagPost
0001552c g     F .text	00000008 __sclose
0000463c g     F .text	00000458 alt_ucosii_simple_error_handler
08000000 g       *ABS*	00000000 __alt_heap_limit
00018430 g     F .text	00000014 fclose
0001b664 g     F .text	00000110 OS_EventTaskWait
000268ac g     F .text	00000070 alt_up_ps2_read_data_byte
0001c24c g     F .text	000000cc OS_TaskStatStkChk
000217d4 g     F .text	00000150 OSTaskDelReq
000106b8 g     F .text	00001688 _dtoa_r
00013098 g     F .text	0000080c _malloc_r
00018a70 g     F .text	00000030 __ascii_wctomb
0002c6a0 g     O .rwdata	00000004 alt_errno
00005c2c g     F .text	00000114 setInfoheader
0001b14c g     F .text	00000070 OSStart
00023f38 g     F .text	00000050 alt_write_flash_command_32bit_device_32bit_mode
0001a38c g     F .text	00000060 __env_unlock
00012c78 g     F .text	000000c4 _fwalk
00021c70 g     F .text	000001d4 OSTaskResume
0001eef8 g     F .text	000000e8 OSMemQuery
0002c700 g     O .rwdata	00000002 OSTaskStatEn
00023898 g     F .text	0000015c alt_write_value_to_flash
0002c6da g     O .rwdata	00000002 OSMemMax
0001fc30 g     F .text	00000170 OSQPostFront
00026a98 g     F .text	0000003c alt_up_ps2_open_dev
00023fc0 g     F .text	00000038 alt_write_native_16bit
000089a8 g     F .text	00000084 .hidden __divsi3
0002f215 g     O .bss	00000003 OSRdyTbl
0002c6b4 g     O .rwdata	00000002 OSDebugEn
0002601c g     F .text	0000003c alt_up_character_lcd_open_dev
00012388 g     F .text	00000124 _malloc_trim_r
00026614 g     F .text	0000005c alt_up_ps2_enable_read_interrupt
00028dd8 g       *ABS*	00000000 __CTOR_END__
0002c6cc g     O .rwdata	00000002 OSFlagNodeSize
0002f150 g     O .bss	00000004 status_register
0002c714 g     O .rwdata	00000002 OSTmrCfgMax
00025fe4 g     F .text	00000038 alt_up_character_lcd_init
00015698 g     F .text	000000dc strcmp
0002f158 g     O .bss	00000004 command_register
0001f1ec g     F .text	000001ac OSQCreate
00021924 g     F .text	00000198 OSTaskNameGet
00028dd8 g       *ABS*	00000000 __flash_rodata_start
0001fda0 g     F .text	0000020c OSQPostOpt
0001b26c g     F .text	00000220 OSTimeTick
0002c6fc g     O .rwdata	00000002 OSTaskMax
00028dd8 g       *ABS*	00000000 __DTOR_LIST__
00020260 g     F .text	000000d8 OSSemCreate
0002c720 g     O .rwdata	00000002 OSTmrWheelSize
00005890 g     F .text	0000008c getShort
00026e28 g     F .text	0000003c alt_up_rs232_open_dev
00033268 g     O .bss	00002000 save_task_stk
0000898c g     F .text	0000001c copysign
00009cf0 g     F .text	00000088 .hidden __nedf2
0002c6f6 g     O .rwdata	00000002 OSTaskDelEn
00020a00 g     F .text	00000110 OSSemQuery
0001f398 g     F .text	00000280 OSQDel
0001f95c g     F .text	0000016c OSQPendAbort
00022898 g     F .text	00000038 alt_irq_init
0001a080 g     F .text	00000064 alt_release_fd
000004a0 g     F .text	000000b4 get_cluster_flag
000264ec g     F .text	00000034 read_data_valid
0000b344 g     F .text	0000006c sprintf
000263b4 g     F .text	00000038 alt_up_character_lcd_cursor_off
00029714 g     O .rodata	00000100 .hidden __clz_tab
00000a54 g     F .text	0000028c Write_File_Record_At_Offset
0002f1a4 g     O .bss	00000004 _PathLocale
0002c658 g     O .rwdata	00000004 pixel_buffer
00029d3c g     O .rwdata	00000320 R
000267ac g     F .text	00000064 alt_up_ps2_write_data_byte_with_ack
00028cac g     F .text	00000014 atexit
000181c8 g     F .text	00000060 _write_r
0002f19c g     O .bss	00000004 num_imgs
0001afe4 g     F .text	0000008c OSSchedLock
00012eb8 g     F .text	00000018 setlocale
0001ca84 g     F .text	00000108 OSFlagCreate
00000ce0 g     F .text	000006a0 Check_for_DOS_FAT
00002b74 g     F .text	000002d8 create_file
00004e70 g     F .text	000000dc MTL_box2
0002c678 g     O .rwdata	00000004 _impure_ptr
0002f154 g     O .bss	00000004 CSD_register_w0
0002f1c8 g     O .bss	00000004 alt_argc
00004f4c g     F .text	00000404 actualizar_histograma
00011d40 g     F .text	0000021c __sflush_r
000087f0 g     F .text	0000019c scalbn
00027470 g     F .text	00000060 _do_dtors
00012ea4 g     F .text	00000008 __locale_cjk_lang
00005aa4 g     F .text	0000007c setFileheader
0002c6c6 g     O .rwdata	00000002 OSEventMultiEn
0001cb8c g     F .text	00000248 OSFlagDel
0002f218 g     O .bss	00000004 OSEventFreeList
0001e470 g     F .text	0000016c OSMboxPendAbort
00000020 g       .exceptions	00000000 alt_irq_entry
000148f4 g     F .text	00000064 __ulp
0001d048 g     F .text	000005b8 OSFlagPend
0002c712 g     O .rwdata	00000002 OSTmrEn
00012370 g     F .text	00000018 __fp_unlock_all
0003b1f8 g     O .bss	00000010 header
0002f17c g     O .bss	00000004 toggle
0002c68c g     O .rwdata	00000008 alt_fs_list
0002f198 g     O .bss	00000001 isSaving
000045f0 g     F .text	0000004c alt_ucosii_check_return_code
00001530 g     F .text	0000026c check_file_name_for_FAT16_compliance
0001c05c g     F .text	00000074 OS_StrCopy
0002f160 g     O .bss	00000004 buffer_memory
00026ad4 g     F .text	0000005c alt_up_rs232_enable_read_interrupt
00023e4c g     F .text	00000050 alt_write_flash_command_32bit_device_8bit_mode
00026c50 g     F .text	00000040 alt_up_rs232_write_data
0002c6dc g     O .rwdata	00000002 OSMemNameSize
00027e10 g     F .text	00000020 OSInitHookEnd
00000020 g       *ABS*	00000000 __ram_exceptions_start
0002c708 g     O .rwdata	00000002 OSTCBPrioTblMax
00012ed0 g     F .text	0000000c localeconv
0002c704 g     O .rwdata	00000002 OSTaskStatStkChkEn
0001df28 g     F .text	000000d4 OSMboxCreate
0002c6d8 g     O .rwdata	00000002 OSMemEn
0000b178 g     F .text	00000034 fwrite
0002f164 g     O .bss	00000004 fat_partition_offset_in_512_byte_sectors
0002c6e2 g     O .rwdata	00000002 OSMutexEn
0002c738 g       *ABS*	00000000 _edata
0003e52c g       *ABS*	00000000 _end
000274d0 g     F .text	00000068 alt_flash_open_dev
000392d0 g     O .bss	00000500 active_files
0002f21c g     O .bss	00000001 OSIntNesting
00018444 g     F .text	00000164 __fputwc
0002f184 g     O .bss	00000004 hist
00000248 g       *ABS*	00000000 __ram_exceptions_end
00002e4c g     F .text	00000148 copy_file_record_name_to_string
000257d0 g     F .text	000000f0 altera_avalon_jtag_uart_ioctl
000225d4 g     F .text	000001d4 OSTimeDlyResume
00001380 g     F .text	000000ec Look_for_FAT16
0002f140 g     O .bss	00000004 drawHist
0001cefc g     F .text	0000014c OSFlagNameSet
0001e23c g     F .text	00000234 OSMboxPend
00021e44 g     F .text	000001c0 OSTaskStkChk
0002c6de g     O .rwdata	00000002 OSMemSize
00015454 g     F .text	0000007c __swrite
0002c684 g     O .rwdata	00000004 __malloc_trim_threshold
00012e98 g     F .text	0000000c __locale_msgcharset
0002f220 g     O .bss	00000004 OSTCBCur
0000b028 g     F .text	00000038 exit
00003250 g     F .text	000003d0 alt_up_sd_card_find_next
0002c6e0 g     O .rwdata	00000002 OSMemTblSize
00012d3c g     F .text	000000c4 _fwalk_reent
0002654c g     F .text	000000c8 alt_up_ps2_init
000146f8 g     F .text	000001fc __mdiff
00005b20 g     F .text	0000010c getInfoheader
00027538 g     F .text	00000054 alt_flash_close_dev
00008a2c g     F .text	00000074 .hidden __modsi3
000003c8 g     F .text	000000d8 Read_Sector_Data
0001de90 g     F .text	00000098 OSMboxAccept
08000000 g       *ABS*	00000000 __alt_data_end
00000020 g     F .exceptions	00000000 alt_exception
0001234c g     F .text	00000004 __sfp_lock_release
0001ae48 g     F .text	00000058 OSInit
00000000 g       *ABS*	00000000 __alt_mem_sdram
000221e8 g     F .text	00000124 OSTaskQuery
000260d4 g     F .text	00000078 alt_up_character_lcd_string
00020108 g     F .text	000000a8 OS_QInit
0001c0d0 g     F .text	00000054 OS_StrLen
00004db0 g     F .text	000000c0 MTL_box
0001ed0c g     F .text	00000114 OSMemNameSet
00035268 g     O .bss	00002000 poll_task_stk
0002c6fa g     O .rwdata	00000002 OSTaskProfileEn
0002f224 g     O .bss	00000004 OSTime
00037268 g     O .bss	00002000 initialize_task_stk
0003cb88 g     O .bss	00000800 OSTaskIdleStk
00019880 g     F .text	00000034 _exit
0001e6ec g     F .text	0000015c OSMboxPostOpt
00027144 g     F .text	0000012c alt_alarm_start
0001cdd4 g     F .text	00000128 OSFlagNameGet
000227a8 g     F .text	0000005c OSTimeGet
00003aac g     F .text	00000378 alt_up_sd_card_read
00012edc g     F .text	000001bc __smakebuf_r
00023ff8 g     F .text	00000034 alt_write_native_32bit
00026744 g     F .text	00000068 alt_up_ps2_wait_for_ack
0000b440 g     F .text	00000098 strlen
00027d90 g     F .text	00000020 OSTaskSwHook
00027800 g     F .text	00000154 open
0003d388 g     O .bss	00000b40 OSEventTbl
00009d78 g     F .text	000000dc .hidden __gedf2
0003dec8 g     O .bss	00000510 OSTCBTbl
00020b10 g     F .text	00000100 OSSemSet
000237a8 g     F .text	0000008c alt_flash_cfi_get_info
0002c688 g     O .rwdata	00000004 __wctomb
00016c7c g     F .text	00000018 __sprint_r
0002758c g     F .text	00000034 alt_icache_flush_all
00015534 g     F .text	00000164 strchr
0002c640 g     O .rwdata	00000004 green_LED_ptr
0002619c g     F .text	00000074 alt_up_character_lcd_set_cursor_pos
0002c6a4 g     O .rwdata	00000004 alt_priority_mask
00020338 g     F .text	00000240 OSSemDel
0002f228 g     O .bss	00000004 OSFlagFreeList
0002c6c0 g     O .rwdata	00000002 OSEventNameSize
0001dffc g     F .text	00000240 OSMboxDel
0001010c g     F .text	0000001c __vfprintf_internal
0002f22c g     O .bss	00000001 OSStatRdy
0003e3d8 g     O .bss	00000054 OSTCBPrioTbl
00018aa0 g     F .text	0000005c _wctomb_r
0001a2c8 g     F .text	000000c4 __env_lock
00026974 g     F .text	0000008c alt_up_ps2_read_fd
0002c706 g     O .rwdata	00000002 OSTaskSwHookEn
0000a56c g     F .text	000008fc .hidden __subdf3
00006340 g     F .text	00000320 TaskSaveImg
0001412c g     F .text	000000b0 __lo0bits
0002c730 g     O .rwdata	00000008 alt_alarm_list
0002c6ce g     O .rwdata	00000002 OSFlagWidth
00027410 g     F .text	00000060 _do_ctors
00026b90 g     F .text	00000040 alt_up_rs232_get_used_space_in_read_FIFO
000189b0 g     F .text	000000c0 wcrtomb
00019784 g     F .text	000000d0 close
00027e74 g     F .text	00000068 alt_program_amd
0002f1d8 g     O .bss	00000004 alt_envsem
0002f230 g     O .bss	00000004 OSIdleCtrRun
0001b48c g     F .text	00000020 OSVersion
0002c718 g     O .rwdata	00000002 OSTmrCfgWheelSize
00019cf8 g     F .text	00000084 alt_load
0002230c g     F .text	00000070 OS_TaskStkClr
0002c6f2 g     O .rwdata	00000002 OSTaskCreateEn
00001854 g     F .text	0000029c match_file_record_to_name_ext
0001ba7c g     F .text	00000068 OS_EventWaitListInit
000185cc g     F .text	00000080 fputwc
00027e30 g     F .text	00000020 OSTaskIdleHook
00012350 g     F .text	00000004 __sinit_lock_acquire
00013ea0 g     F .text	00000120 __multadd
00013e78 g     F .text	00000028 _Bfree
00022004 g     F .text	000001e4 OSTaskSuspend
00005a30 g     F .text	00000074 getFileheader
00005350 g     F .text	00000034 TaskHistogram
0001c124 g     F .text	0000005c OS_TaskIdle
0002c71e g     O .rwdata	00000002 OSTmrTblSize
0001ffac g     F .text	0000015c OSQQuery



Disassembly of section .entry:

00000000 <__reset>:
#if NIOS2_ICACHE_SIZE > 0 && defined(ALT_ALLOW_CODE_AT_RESET) && (!defined(ALT_SIM_OPTIMIZE) || defined(NIOS2_ECC_PRESENT))
    /* Assume the instruction cache size is always a power of two. */
#if NIOS2_ICACHE_SIZE > 0x8000
    movhi r2, %hi(NIOS2_ICACHE_SIZE)
#else
    movui r2, NIOS2_ICACHE_SIZE
   0:	00840014 	movui	r2,4096
#endif

0:
    initi r2
   4:	1001483a 	initi	r2
    addi r2, r2, -NIOS2_ICACHE_LINE_SIZE
   8:	10bff804 	addi	r2,r2,-32
    bgt r2, zero, 0b
   c:	00bffd16 	blt	zero,r2,4 <__alt_mem_onchip_memory+0xf7800004>
 * Jump to the _start entry point in the .text section if reset code
 * is allowed or if optimizing for RTL simulation.
 */
#if defined(ALT_ALLOW_CODE_AT_RESET) || defined(ALT_SIM_OPTIMIZE)
    /* Jump to the _start entry point in the .text section. */
    movhi r1, %hi(_start)
  10:	00400034 	movhi	at,0
    ori r1, r1, %lo(_start)
  14:	08409214 	ori	at,at,584
    jmp r1
  18:	0800683a 	jmp	at
  1c:	00000000 	call	0 <__reset>

Disassembly of section .exceptions:

00000020 <alt_exception>:

#else /* ALT_EXCEPTION_STACK disabled */
        /* 
         * Reserve space on normal stack for registers about to be pushed.
         */
        addi  sp, sp, -76
  20:	deffed04 	addi	sp,sp,-76
         * documentation for details).
         *
         * Leave a gap in the stack frame at 4(sp) for the muldiv handler to
         * store zero into.
         */
        stw   ra,  0(sp)
  24:	dfc00015 	stw	ra,0(sp)
        stw   r1,   8(sp)
  28:	d8400215 	stw	at,8(sp)
        stw   r2,  12(sp)
  2c:	d8800315 	stw	r2,12(sp)
        stw   r3,  16(sp)
  30:	d8c00415 	stw	r3,16(sp)
        stw   r4,  20(sp)
  34:	d9000515 	stw	r4,20(sp)
        stw   r5,  24(sp)
  38:	d9400615 	stw	r5,24(sp)
        stw   r6,  28(sp)
  3c:	d9800715 	stw	r6,28(sp)
        stw   r7,  32(sp)
  40:	d9c00815 	stw	r7,32(sp)
        rdctl r5, estatus   /* Read early to avoid usage stall */
  44:	000b307a 	rdctl	r5,estatus
        stw   r8,  36(sp)
  48:	da000915 	stw	r8,36(sp)
        stw   r9,  40(sp)
  4c:	da400a15 	stw	r9,40(sp)
        stw   r10, 44(sp)
  50:	da800b15 	stw	r10,44(sp)
        stw   r11, 48(sp)
  54:	dac00c15 	stw	r11,48(sp)
        stw   r12, 52(sp)
  58:	db000d15 	stw	r12,52(sp)
        stw   r13, 56(sp)
  5c:	db400e15 	stw	r13,56(sp)
        stw   r14, 60(sp)
  60:	db800f15 	stw	r14,60(sp)
        stw   r15, 64(sp)
  64:	dbc01015 	stw	r15,64(sp)
        /*
         * ea-4 contains the address of the instruction being executed
         * when the exception occured. For interrupt exceptions, we will
         * will be re-issue the isntruction. Store it in 72(sp)
         */
        stw   r5,  68(sp)  /* estatus */
  68:	d9401115 	stw	r5,68(sp)
        addi  r15, ea, -4  /* instruction that caused exception */
  6c:	ebffff04 	addi	r15,ea,-4
        stw   r15,  72(sp)
  70:	dbc01215 	stw	r15,72(sp)
#else
        /*
         * Test to see if the exception was a software exception or caused 
         * by an external interrupt, and vector accordingly.
         */
        rdctl r4, ipending
  74:	0009313a 	rdctl	r4,ipending
        andi  r2, r5, 1
  78:	2880004c 	andi	r2,r5,1
        beq   r2, zero, .Lnot_irq
  7c:	10000326 	beq	r2,zero,8c <OSCtxSw_SWITCH_PC+0x4c>
        beq   r4, zero, .Lnot_irq
  80:	20000226 	beq	r4,zero,8c <OSCtxSw_SWITCH_PC+0x4c>
        /*
         * Now that all necessary registers have been preserved, call 
         * alt_irq_handler() to process the interrupts.
         */

        call alt_irq_handler
  84:	00000fc0 	call	fc <alt_irq_handler>

        .section .exceptions.irqreturn, "xa"

        br    .Lexception_exit
  88:	00000706 	br	a8 <OSCtxSw_SWITCH_PC+0x68>
         * upon completion, so we write ea (address of instruction *after*
         * the one where the exception occured) into 72(sp). The actual
         * instruction that caused the exception is written in r2, which these
         * handlers will utilize.
         */
        stw ea, 72(sp) /* EA is PC+4 so will skip over instruction causing exception */
  8c:	df401215 	stw	ea,72(sp)
.Lunknown_16bit:
        addi.n r4, r4, 2 /* Need PC+2 to skip over instruction causing exception */
        stw r4, 72(sp)

#else /* CDX is not Enabled and all instructions are 32bits */
        ldw r2, -4(ea) /* Instruction value that caused exception */
  90:	e8bfff17 	ldw	r2,-4(ea)
         * debugger is present) or go into an infinite loop since the
         * handling behavior is undefined; in that case we will not return here.
         */

        /* Load exception-causing address as first argument (r4) */
        addi   r4, ea, -4
  94:	e93fff04 	addi	r4,ea,-4

        /* Call the instruction-exception entry */
        call   alt_instruction_exception_entry
  98:	00001d40 	call	1d4 <alt_instruction_exception_entry>
         * instruction
         *
         * Return code was 0: Skip. The instruction after the exception is
         * already stored in 72(sp).
         */
        bne   r2, r0, .Lexception_exit
  9c:	1000021e 	bne	r2,zero,a8 <OSCtxSw_SWITCH_PC+0x68>

        /*
         * Otherwise, modify 72(sp) to re-issue the instruction that caused the
         * exception.
         */
        addi  r15, ea, -4  /* instruction that caused exception */
  a0:	ebffff04 	addi	r15,ea,-4
        stw   r15,  72(sp)
  a4:	dbc01215 	stw	r15,72(sp)
        /* 
         * Restore the saved registers, so that all general purpose registers 
         * have been restored to their state at the time the interrupt occured.
         */

        ldw   r5,  68(sp)
  a8:	d9401117 	ldw	r5,68(sp)
        ldw   ea,  72(sp)  /* This becomes the PC once eret is executed */
  ac:	df401217 	ldw	ea,72(sp)
        ldw   ra,   0(sp)
  b0:	dfc00017 	ldw	ra,0(sp)

        wrctl estatus, r5
  b4:	2801707a 	wrctl	estatus,r5

        ldw   r1,   8(sp)
  b8:	d8400217 	ldw	at,8(sp)
        ldw   r2,  12(sp)
  bc:	d8800317 	ldw	r2,12(sp)
        ldw   r3,  16(sp)
  c0:	d8c00417 	ldw	r3,16(sp)
        ldw   r4,  20(sp)
  c4:	d9000517 	ldw	r4,20(sp)
        ldw   r5,  24(sp)
  c8:	d9400617 	ldw	r5,24(sp)
        ldw   r6,  28(sp)
  cc:	d9800717 	ldw	r6,28(sp)
        ldw   r7,  32(sp)
  d0:	d9c00817 	ldw	r7,32(sp)

#if defined(ALT_EXCEPTION_STACK) && defined(ALT_STACK_CHECK)
        ldw   et, %gprel(alt_exception_old_stack_limit)(gp)
#endif

        ldw   r8,  36(sp)
  d4:	da000917 	ldw	r8,36(sp)
        ldw   r9,  40(sp)
  d8:	da400a17 	ldw	r9,40(sp)
        ldw   r10, 44(sp)
  dc:	da800b17 	ldw	r10,44(sp)
        ldw   r11, 48(sp)
  e0:	dac00c17 	ldw	r11,48(sp)
        ldw   r12, 52(sp)
  e4:	db000d17 	ldw	r12,52(sp)
        ldw   r13, 56(sp)
  e8:	db400e17 	ldw	r13,56(sp)
        ldw   r14, 60(sp)
  ec:	db800f17 	ldw	r14,60(sp)
        ldw   r15, 64(sp)
  f0:	dbc01017 	ldw	r15,64(sp)
        stw   et, %gprel(alt_stack_limit_value)(gp)
        stw   zero, %gprel(alt_exception_old_stack_limit)(gp)
#endif /* ALT_STACK_CHECK */
        ldw   sp,  76(sp)
#else /* ALT_EXCEPTION_STACK disabled */
        addi  sp, sp, 76
  f4:	dec01304 	addi	sp,sp,76

        /*
         * Return to the interrupted instruction.
         */

        eret
  f8:	ef80083a 	eret

000000fc <alt_irq_handler>:
 * instruction is present if the macro ALT_CI_INTERRUPT_VECTOR defined.
 */

void alt_irq_handler (void) __attribute__ ((section (".exceptions")));
void alt_irq_handler (void)
{
  fc:	defff904 	addi	sp,sp,-28
 100:	dfc00615 	stw	ra,24(sp)
 104:	df000515 	stw	fp,20(sp)
 108:	df000504 	addi	fp,sp,20
  
  /*
   * Notify the operating system that we are at interrupt level.
   */ 
  
  ALT_OS_INT_ENTER();
 10c:	001aea00 	call	1aea0 <OSIntEnter>
#ifndef NIOS2_EIC_PRESENT
static ALT_INLINE alt_u32 ALT_ALWAYS_INLINE alt_irq_pending (void)
{
  alt_u32 active;

  NIOS2_READ_IPENDING (active);
 110:	0005313a 	rdctl	r2,ipending
 114:	e0bffe15 	stw	r2,-8(fp)

  return active;
 118:	e0bffe17 	ldw	r2,-8(fp)
   * Consider the case where the high priority interupt is asserted during
   * the interrupt entry sequence for a lower priority interrupt to see why
   * this is the case.
   */

  active = alt_irq_pending ();
 11c:	e0bffb15 	stw	r2,-20(fp)

  do
  {
    i = 0;
 120:	e03ffd15 	stw	zero,-12(fp)
    mask = 1;
 124:	00800044 	movi	r2,1
 128:	e0bffc15 	stw	r2,-16(fp)
     * called to clear the interrupt condition.
     */

    do
    {
      if (active & mask)
 12c:	e0fffb17 	ldw	r3,-20(fp)
 130:	e0bffc17 	ldw	r2,-16(fp)
 134:	1884703a 	and	r2,r3,r2
 138:	10001526 	beq	r2,zero,190 <alt_irq_handler+0x94>
      { 
#ifdef ALT_ENHANCED_INTERRUPT_API_PRESENT
        alt_irq[i].handler(alt_irq[i].context); 
#else
        alt_irq[i].handler(alt_irq[i].context, i); 
 13c:	00800134 	movhi	r2,4
 140:	10b90b04 	addi	r2,r2,-7124
 144:	e0fffd17 	ldw	r3,-12(fp)
 148:	180690fa 	slli	r3,r3,3
 14c:	10c5883a 	add	r2,r2,r3
 150:	10c00017 	ldw	r3,0(r2)
 154:	00800134 	movhi	r2,4
 158:	10b90b04 	addi	r2,r2,-7124
 15c:	e13ffd17 	ldw	r4,-12(fp)
 160:	200890fa 	slli	r4,r4,3
 164:	1105883a 	add	r2,r2,r4
 168:	10800104 	addi	r2,r2,4
 16c:	10800017 	ldw	r2,0(r2)
 170:	e17ffd17 	ldw	r5,-12(fp)
 174:	1009883a 	mov	r4,r2
 178:	183ee83a 	callr	r3
#endif
        break;
 17c:	0001883a 	nop
#ifndef NIOS2_EIC_PRESENT
static ALT_INLINE alt_u32 ALT_ALWAYS_INLINE alt_irq_pending (void)
{
  alt_u32 active;

  NIOS2_READ_IPENDING (active);
 180:	0005313a 	rdctl	r2,ipending
 184:	e0bfff15 	stw	r2,-4(fp)

  return active;
 188:	e0bfff17 	ldw	r2,-4(fp)
 18c:	00000706 	br	1ac <alt_irq_handler+0xb0>
      }
      mask <<= 1;
 190:	e0bffc17 	ldw	r2,-16(fp)
 194:	1085883a 	add	r2,r2,r2
 198:	e0bffc15 	stw	r2,-16(fp)
      i++;
 19c:	e0bffd17 	ldw	r2,-12(fp)
 1a0:	10800044 	addi	r2,r2,1
 1a4:	e0bffd15 	stw	r2,-12(fp)

    } while (1);
 1a8:	003fe006 	br	12c <__alt_mem_onchip_memory+0xf780012c>

    active = alt_irq_pending ();
 1ac:	e0bffb15 	stw	r2,-20(fp)
    
  } while (active);
 1b0:	e0bffb17 	ldw	r2,-20(fp)
 1b4:	103fda1e 	bne	r2,zero,120 <__alt_mem_onchip_memory+0xf7800120>

  /*
   * Notify the operating system that interrupt processing is complete.
   */ 

  ALT_OS_INT_EXIT();
 1b8:	001aeec0 	call	1aeec <OSIntExit>
}
 1bc:	0001883a 	nop
 1c0:	e037883a 	mov	sp,fp
 1c4:	dfc00117 	ldw	ra,4(sp)
 1c8:	df000017 	ldw	fp,0(sp)
 1cc:	dec00204 	addi	sp,sp,8
 1d0:	f800283a 	ret

000001d4 <alt_instruction_exception_entry>:
 * that handler if it has been registered. Absent a handler, it will
 * break break or hang as discussed below.
 */
int 
alt_instruction_exception_entry (alt_u32 exception_pc)
{
 1d4:	defffb04 	addi	sp,sp,-20
 1d8:	dfc00415 	stw	ra,16(sp)
 1dc:	df000315 	stw	fp,12(sp)
 1e0:	df000304 	addi	fp,sp,12
 1e4:	e13fff15 	stw	r4,-4(fp)
 * NIOS2_EXCEPTION_CAUSE_NOT_PRESENT. Your handling routine should
 * check the validity of the cause argument before proceeding.
 */
#ifdef NIOS2_HAS_EXTRA_EXCEPTION_INFO
  /* Get exception cause & "badaddr" */
  NIOS2_READ_EXCEPTION(cause);
 1e8:	000531fa 	rdctl	r2,exception
 1ec:	e0bffd15 	stw	r2,-12(fp)
  cause = ( (cause & NIOS2_EXCEPTION_REG_CAUSE_MASK) >>
 1f0:	e0bffd17 	ldw	r2,-12(fp)
 1f4:	10801f0c 	andi	r2,r2,124
 1f8:	1004d0ba 	srli	r2,r2,2
 1fc:	e0bffd15 	stw	r2,-12(fp)
              NIOS2_EXCEPTION_REG_CAUSE_OFST );

  NIOS2_READ_BADADDR(badaddr);
 200:	0005333a 	rdctl	r2,badaddr
 204:	e0bffe15 	stw	r2,-8(fp)
#else
  cause = NIOS2_EXCEPTION_CAUSE_NOT_PRESENT;
  badaddr = 0;
#endif /* NIOS2_HAS_EXTRA_EXCEPTION_INFO */

  if(alt_instruction_exception_handler) {
 208:	d0ab0017 	ldw	r2,-21504(gp)
 20c:	10000726 	beq	r2,zero,22c <alt_instruction_exception_entry+0x58>
     * Call handler. Its return value indicates whether the exception-causing
     * instruction should be re-issued. The code that called us,
     * alt_eceptions_entry.S, will look at this value and adjust the ea
     * register as necessary
     */
    return alt_instruction_exception_handler(cause, exception_pc, badaddr);
 210:	d0ab0017 	ldw	r2,-21504(gp)
 214:	e0fffd17 	ldw	r3,-12(fp)
 218:	e1bffe17 	ldw	r6,-8(fp)
 21c:	e17fff17 	ldw	r5,-4(fp)
 220:	1809883a 	mov	r4,r3
 224:	103ee83a 	callr	r2
 228:	00000206 	br	234 <alt_instruction_exception_entry+0x60>
   *    (a peripheral which negates its interrupt output before its
   *    interrupt handler has been executed will cause spurious interrupts)
   */
  else {
#ifdef NIOS2_HAS_DEBUG_STUB
    NIOS2_BREAK();
 22c:	003da03a 	break	0
      ;
#endif /* NIOS2_HAS_DEBUG_STUB */
  }

  /* We should not get here. Remove compiler warning. */
  return NIOS2_EXCEPTION_RETURN_REISSUE_INST;
 230:	0005883a 	mov	r2,zero
}
 234:	e037883a 	mov	sp,fp
 238:	dfc00117 	ldw	ra,4(sp)
 23c:	df000017 	ldw	fp,0(sp)
 240:	dec00204 	addi	sp,sp,8
 244:	f800283a 	ret

Disassembly of section .text:

00000248 <_start>:

    /* Assume the data cache size is always a power of two. */
#if NIOS2_DCACHE_SIZE > 0x8000
    movhi r2, %hi(NIOS2_DCACHE_SIZE)
#else
    movui r2, NIOS2_DCACHE_SIZE
     248:	00820014 	movui	r2,2048
#endif

0:
    initd 0(r2)
     24c:	10000033 	initd	0(r2)
#ifdef NIOS2_ECC_PRESENT
    addi r2, r2, -4
#else
    addi r2, r2, -NIOS2_DCACHE_LINE_SIZE
     250:	10bff804 	addi	r2,r2,-32
#endif
    bgt r2, zero, 0b
     254:	00bffd16 	blt	zero,r2,24c <__alt_mem_onchip_memory+0xf780024c>

    /*
     * Now that the caches are initialized, set up the stack pointer and global pointer.
     * The values provided by the linker are assumed to be correctly aligned.
     */
    movhi sp, %hi(__alt_stack_pointer)
     258:	06c20034 	movhi	sp,2048
    ori sp, sp, %lo(__alt_stack_pointer)
     25c:	dec00014 	ori	sp,sp,0
    movhi gp, %hi(_gp)
     260:	068000f4 	movhi	gp,3
    ori gp, gp, %lo(_gp)
     264:	d6918f14 	ori	gp,gp,17980
 */
#ifndef ALT_SIM_OPTIMIZE
    /* Log that the BSS is about to be cleared. */
    ALT_LOG_PUTS(alt_log_msg_bss)

    movhi r2, %hi(__bss_start)
     268:	008000b4 	movhi	r2,2
    ori r2, r2, %lo(__bss_start)
     26c:	10bc4d14 	ori	r2,r2,61748

    movhi r3, %hi(__bss_end)
     270:	00c000f4 	movhi	r3,3
    ori r3, r3, %lo(__bss_end)
     274:	18f94b14 	ori	r3,r3,58668

    beq r2, r3, 1f
     278:	10c00326 	beq	r2,r3,288 <_start+0x40>

0:
    stw zero, (r2)
     27c:	10000015 	stw	zero,0(r2)
    addi r2, r2, 4
     280:	10800104 	addi	r2,r2,4
    bltu r2, r3, 0b
     284:	10fffd36 	bltu	r2,r3,27c <__alt_mem_onchip_memory+0xf780027c>
     * section aren't defined until alt_load() has been called).
     */
    mov   et, zero
#endif

    call alt_load
     288:	0019cf80 	call	19cf8 <alt_load>

    /* Log that alt_main is about to be called. */
    ALT_LOG_PUTS(alt_log_msg_alt_main)

    /* Call the C entry point. It should never return. */
    call alt_main
     28c:	0019e8c0 	call	19e8c <alt_main>

00000290 <alt_after_alt_main>:

    /* Wait in infinite loop in case alt_main does return. */
alt_after_alt_main:
    br alt_after_alt_main
     290:	003fff06 	br	290 <__alt_mem_onchip_memory+0xf7800290>

00000294 <main>:
#include "inc/task_config.h"
#include "inc/app_config.h"

int main(void)
{
     294:	defffe04 	addi	sp,sp,-8
     298:	dfc00115 	stw	ra,4(sp)
     29c:	df000015 	stw	fp,0(sp)
     2a0:	d839883a 	mov	fp,sp
	//En app_config
	Init_App();
     2a4:	0004a940 	call	4a94 <Init_App>
	//En task_config
	CreateTasks();
     2a8:	00066600 	call	6660 <CreateTasks>

	OSStart();
     2ac:	001b14c0 	call	1b14c <OSStart>

	return 0;
     2b0:	0005883a 	mov	r2,zero
}
     2b4:	e037883a 	mov	sp,fp
     2b8:	dfc00117 	ldw	ra,4(sp)
     2bc:	df000017 	ldw	fp,0(sp)
     2c0:	dec00204 	addi	sp,sp,8
     2c4:	f800283a 	ret

000002c8 <Write_Sector_Data>:
///////////////////////////////////////////////////////////////////////////

        
bool Write_Sector_Data(int sector_index, int partition_offset)
// This function writes a sector at the specified address on the SD Card.
{
     2c8:	defffa04 	addi	sp,sp,-24
     2cc:	dfc00515 	stw	ra,20(sp)
     2d0:	df000415 	stw	fp,16(sp)
     2d4:	df000404 	addi	fp,sp,16
     2d8:	e13ffe15 	stw	r4,-8(fp)
     2dc:	e17fff15 	stw	r5,-4(fp)
    bool result = false;
     2e0:	e03ffc15 	stw	zero,-16(fp)
    
    if (alt_up_sd_card_is_Present())
     2e4:	00030500 	call	3050 <alt_up_sd_card_is_Present>
     2e8:	10001e26 	beq	r2,zero,364 <Write_Sector_Data+0x9c>
    {
        short int reg_state = 0xff;
     2ec:	00803fc4 	movi	r2,255
     2f0:	e0bffd0d 	sth	r2,-12(fp)

		/* Multiply sector offset by sector size to get the address. Sector size is 512. Also,
         * the SD card reads data in 512 byte chunks, so the address must be a multiple of 512. */
        IOWR_32DIRECT(command_argument_register, 0, (sector_index + partition_offset)*512);
     2f4:	d0aac817 	ldw	r2,-21728(gp)
     2f8:	e13ffe17 	ldw	r4,-8(fp)
     2fc:	e0ffff17 	ldw	r3,-4(fp)
     300:	20c7883a 	add	r3,r4,r3
     304:	1806927a 	slli	r3,r3,9
     308:	10c00035 	stwio	r3,0(r2)
        IOWR_16DIRECT(command_register, 0, CMD_WRITE_BLOCK);
     30c:	d0aac717 	ldw	r2,-21732(gp)
     310:	00c00604 	movi	r3,24
     314:	10c0002d 	sthio	r3,0(r2)
        do {
            reg_state = (short int) IORD_16DIRECT(aux_status_register,0);
     318:	d0aac417 	ldw	r2,-21744(gp)
     31c:	1080002b 	ldhuio	r2,0(r2)
     320:	10bfffcc 	andi	r2,r2,65535
     324:	e0bffd0d 	sth	r2,-12(fp)
        } while ((reg_state & 0x04)!=0);
     328:	e0bffd0b 	ldhu	r2,-12(fp)
     32c:	10bfffcc 	andi	r2,r2,65535
     330:	1080010c 	andi	r2,r2,4
     334:	103ff81e 	bne	r2,zero,318 <__alt_mem_onchip_memory+0xf7800318>
        // Make sure the request did not time out.
        if ((reg_state & 0x10) == 0)
     338:	e0bffd0b 	ldhu	r2,-12(fp)
     33c:	10bfffcc 	andi	r2,r2,65535
     340:	1080040c 	andi	r2,r2,16
     344:	1000071e 	bne	r2,zero,364 <Write_Sector_Data+0x9c>
        {
            result = true;
     348:	00800044 	movi	r2,1
     34c:	e0bffc15 	stw	r2,-16(fp)
            current_sector_modified = false;
     350:	d02acd15 	stw	zero,-21708(gp)
            current_sector_index = sector_index+partition_offset;
     354:	e0fffe17 	ldw	r3,-8(fp)
     358:	e0bfff17 	ldw	r2,-4(fp)
     35c:	1885883a 	add	r2,r3,r2
     360:	d0aace15 	stw	r2,-21704(gp)
        }
    }
    return result;
     364:	e0bffc17 	ldw	r2,-16(fp)
}
     368:	e037883a 	mov	sp,fp
     36c:	dfc00117 	ldw	ra,4(sp)
     370:	df000017 	ldw	fp,0(sp)
     374:	dec00204 	addi	sp,sp,8
     378:	f800283a 	ret

0000037c <Save_Modified_Sector>:


bool Save_Modified_Sector()
// If the sector has been modified, then save it to the SD Card.
{
     37c:	defffd04 	addi	sp,sp,-12
     380:	dfc00215 	stw	ra,8(sp)
     384:	df000115 	stw	fp,4(sp)
     388:	df000104 	addi	fp,sp,4
    bool result = true;
     38c:	00800044 	movi	r2,1
     390:	e0bfff15 	stw	r2,-4(fp)
    if (current_sector_modified)
     394:	d0aacd17 	ldw	r2,-21708(gp)
     398:	10000526 	beq	r2,zero,3b0 <Save_Modified_Sector+0x34>
    {
        result = Write_Sector_Data(current_sector_index, 0);
     39c:	d0aace17 	ldw	r2,-21704(gp)
     3a0:	000b883a 	mov	r5,zero
     3a4:	1009883a 	mov	r4,r2
     3a8:	00002c80 	call	2c8 <Write_Sector_Data>
     3ac:	e0bfff15 	stw	r2,-4(fp)
    }
    return result;
     3b0:	e0bfff17 	ldw	r2,-4(fp)
}
     3b4:	e037883a 	mov	sp,fp
     3b8:	dfc00117 	ldw	ra,4(sp)
     3bc:	df000017 	ldw	fp,0(sp)
     3c0:	dec00204 	addi	sp,sp,8
     3c4:	f800283a 	ret

000003c8 <Read_Sector_Data>:


bool Read_Sector_Data(int sector_index, int partition_offset)
// This function reads a sector at the specified address on the SD Card.
{
     3c8:	defffa04 	addi	sp,sp,-24
     3cc:	dfc00515 	stw	ra,20(sp)
     3d0:	df000415 	stw	fp,16(sp)
     3d4:	df000404 	addi	fp,sp,16
     3d8:	e13ffe15 	stw	r4,-8(fp)
     3dc:	e17fff15 	stw	r5,-4(fp)
	bool result = false;
     3e0:	e03ffc15 	stw	zero,-16(fp)
    
	if (alt_up_sd_card_is_Present())
     3e4:	00030500 	call	3050 <alt_up_sd_card_is_Present>
     3e8:	10002726 	beq	r2,zero,488 <Read_Sector_Data+0xc0>
	{
		short int reg_state = 0xff;
     3ec:	00803fc4 	movi	r2,255
     3f0:	e0bffd0d 	sth	r2,-12(fp)
        
        /* Write data to the SD card if the current buffer is out of date. */
        if (current_sector_modified)
     3f4:	d0aacd17 	ldw	r2,-21708(gp)
     3f8:	10000726 	beq	r2,zero,418 <Read_Sector_Data+0x50>
        {
            if (Write_Sector_Data(current_sector_index, 0) == false)
     3fc:	d0aace17 	ldw	r2,-21704(gp)
     400:	000b883a 	mov	r5,zero
     404:	1009883a 	mov	r4,r2
     408:	00002c80 	call	2c8 <Write_Sector_Data>
     40c:	1000021e 	bne	r2,zero,418 <Read_Sector_Data+0x50>
            {
                return false;
     410:	0005883a 	mov	r2,zero
     414:	00001d06 	br	48c <Read_Sector_Data+0xc4>
            }
        }
		/* Multiply sector offset by sector size to get the address. Sector size is 512. Also,
		 * the SD card reads data in 512 byte chunks, so the address must be a multiple of 512. */
        IOWR_32DIRECT(command_argument_register, 0, (sector_index + partition_offset)*512);
     418:	d0aac817 	ldw	r2,-21728(gp)
     41c:	e13ffe17 	ldw	r4,-8(fp)
     420:	e0ffff17 	ldw	r3,-4(fp)
     424:	20c7883a 	add	r3,r4,r3
     428:	1806927a 	slli	r3,r3,9
     42c:	10c00035 	stwio	r3,0(r2)
        IOWR_16DIRECT(command_register, 0, CMD_READ_BLOCK);
     430:	d0aac717 	ldw	r2,-21732(gp)
     434:	00c00444 	movi	r3,17
     438:	10c0002d 	sthio	r3,0(r2)
		do {
			reg_state = (short int) IORD_16DIRECT(aux_status_register,0);
     43c:	d0aac417 	ldw	r2,-21744(gp)
     440:	1080002b 	ldhuio	r2,0(r2)
     444:	10bfffcc 	andi	r2,r2,65535
     448:	e0bffd0d 	sth	r2,-12(fp)
		} while ((reg_state & 0x04)!=0);
     44c:	e0bffd0b 	ldhu	r2,-12(fp)
     450:	10bfffcc 	andi	r2,r2,65535
     454:	1080010c 	andi	r2,r2,4
     458:	103ff81e 	bne	r2,zero,43c <__alt_mem_onchip_memory+0xf780043c>
		// Make sure the request did not time out.
		if ((reg_state & 0x10) == 0)
     45c:	e0bffd0b 	ldhu	r2,-12(fp)
     460:	10bfffcc 	andi	r2,r2,65535
     464:	1080040c 	andi	r2,r2,16
     468:	1000071e 	bne	r2,zero,488 <Read_Sector_Data+0xc0>
		{
			result = true;
     46c:	00800044 	movi	r2,1
     470:	e0bffc15 	stw	r2,-16(fp)
            current_sector_modified = false;
     474:	d02acd15 	stw	zero,-21708(gp)
            current_sector_index = sector_index+partition_offset;
     478:	e0fffe17 	ldw	r3,-8(fp)
     47c:	e0bfff17 	ldw	r2,-4(fp)
     480:	1885883a 	add	r2,r3,r2
     484:	d0aace15 	stw	r2,-21704(gp)
		}
	}
	return result;
     488:	e0bffc17 	ldw	r2,-16(fp)
}
     48c:	e037883a 	mov	sp,fp
     490:	dfc00117 	ldw	ra,4(sp)
     494:	df000017 	ldw	fp,0(sp)
     498:	dec00204 	addi	sp,sp,8
     49c:	f800283a 	ret

000004a0 <get_cluster_flag>:


bool get_cluster_flag(unsigned int cluster_index, unsigned short int *flag)
// Read a cluster flag.
{
     4a0:	defffb04 	addi	sp,sp,-20
     4a4:	dfc00415 	stw	ra,16(sp)
     4a8:	df000315 	stw	fp,12(sp)
     4ac:	df000304 	addi	fp,sp,12
     4b0:	e13ffe15 	stw	r4,-8(fp)
     4b4:	e17fff15 	stw	r5,-4(fp)
    unsigned int sector_index = (cluster_index / 256) + fat_partition_offset_in_512_byte_sectors;
     4b8:	e0bffe17 	ldw	r2,-8(fp)
     4bc:	1004d23a 	srli	r2,r2,8
     4c0:	d0eaca17 	ldw	r3,-21720(gp)
     4c4:	10c5883a 	add	r2,r2,r3
     4c8:	e0bffd15 	stw	r2,-12(fp)
    
    sector_index  = sector_index + boot_sector_data.first_fat_sector_offset;
     4cc:	00800134 	movhi	r2,4
     4d0:	10a49f04 	addi	r2,r2,-28036
     4d4:	10801117 	ldw	r2,68(r2)
     4d8:	e0fffd17 	ldw	r3,-12(fp)
     4dc:	1885883a 	add	r2,r3,r2
     4e0:	e0bffd15 	stw	r2,-12(fp)
     
    if (sector_index != current_sector_index)
     4e4:	d0aace17 	ldw	r2,-21704(gp)
     4e8:	e0fffd17 	ldw	r3,-12(fp)
     4ec:	18800726 	beq	r3,r2,50c <get_cluster_flag+0x6c>
    {
        if (Read_Sector_Data(sector_index, 0) == false)
     4f0:	e0bffd17 	ldw	r2,-12(fp)
     4f4:	000b883a 	mov	r5,zero
     4f8:	1009883a 	mov	r4,r2
     4fc:	00003c80 	call	3c8 <Read_Sector_Data>
     500:	1000021e 	bne	r2,zero,50c <get_cluster_flag+0x6c>
        {
            return false;
     504:	0005883a 	mov	r2,zero
     508:	00000d06 	br	540 <get_cluster_flag+0xa0>
        }
    }
    *flag = (unsigned short int) IORD_16DIRECT(device_pointer->base, 2*(cluster_index % 256));
     50c:	e0bffe17 	ldw	r2,-8(fp)
     510:	10803fcc 	andi	r2,r2,255
     514:	1085883a 	add	r2,r2,r2
     518:	1007883a 	mov	r3,r2
     51c:	d0aacc17 	ldw	r2,-21712(gp)
     520:	10800a17 	ldw	r2,40(r2)
     524:	1885883a 	add	r2,r3,r2
     528:	1080002b 	ldhuio	r2,0(r2)
     52c:	10bfffcc 	andi	r2,r2,65535
     530:	1007883a 	mov	r3,r2
     534:	e0bfff17 	ldw	r2,-4(fp)
     538:	10c0000d 	sth	r3,0(r2)
    return true;
     53c:	00800044 	movi	r2,1
}
     540:	e037883a 	mov	sp,fp
     544:	dfc00117 	ldw	ra,4(sp)
     548:	df000017 	ldw	fp,0(sp)
     54c:	dec00204 	addi	sp,sp,8
     550:	f800283a 	ret

00000554 <mark_cluster>:


bool mark_cluster(unsigned int cluster_index, short int flag, bool first_fat)
// Place a marker on the specified cluster in a given FAT.
{
     554:	defffa04 	addi	sp,sp,-24
     558:	dfc00515 	stw	ra,20(sp)
     55c:	df000415 	stw	fp,16(sp)
     560:	df000404 	addi	fp,sp,16
     564:	e13ffd15 	stw	r4,-12(fp)
     568:	2805883a 	mov	r2,r5
     56c:	e1bfff15 	stw	r6,-4(fp)
     570:	e0bffe0d 	sth	r2,-8(fp)
    unsigned int sector_index = (cluster_index / 256) +  fat_partition_offset_in_512_byte_sectors;
     574:	e0bffd17 	ldw	r2,-12(fp)
     578:	1004d23a 	srli	r2,r2,8
     57c:	d0eaca17 	ldw	r3,-21720(gp)
     580:	10c5883a 	add	r2,r2,r3
     584:	e0bffc15 	stw	r2,-16(fp)
    
    if (first_fat)
     588:	e0bfff17 	ldw	r2,-4(fp)
     58c:	10000726 	beq	r2,zero,5ac <mark_cluster+0x58>
    {
        sector_index  = sector_index + boot_sector_data.first_fat_sector_offset;
     590:	00800134 	movhi	r2,4
     594:	10a49f04 	addi	r2,r2,-28036
     598:	10801117 	ldw	r2,68(r2)
     59c:	e0fffc17 	ldw	r3,-16(fp)
     5a0:	1885883a 	add	r2,r3,r2
     5a4:	e0bffc15 	stw	r2,-16(fp)
     5a8:	00000606 	br	5c4 <mark_cluster+0x70>
    }
    else
    {
        sector_index  = sector_index + boot_sector_data.second_fat_sector_offset;
     5ac:	00800134 	movhi	r2,4
     5b0:	10a49f04 	addi	r2,r2,-28036
     5b4:	10801217 	ldw	r2,72(r2)
     5b8:	e0fffc17 	ldw	r3,-16(fp)
     5bc:	1885883a 	add	r2,r3,r2
     5c0:	e0bffc15 	stw	r2,-16(fp)
    }
     
    if (sector_index != current_sector_index)
     5c4:	d0aace17 	ldw	r2,-21704(gp)
     5c8:	e0fffc17 	ldw	r3,-16(fp)
     5cc:	18800726 	beq	r3,r2,5ec <mark_cluster+0x98>
    {
        if (Read_Sector_Data(sector_index, 0) == false)
     5d0:	e0bffc17 	ldw	r2,-16(fp)
     5d4:	000b883a 	mov	r5,zero
     5d8:	1009883a 	mov	r4,r2
     5dc:	00003c80 	call	3c8 <Read_Sector_Data>
     5e0:	1000021e 	bne	r2,zero,5ec <mark_cluster+0x98>
        {
            return false;
     5e4:	0005883a 	mov	r2,zero
     5e8:	00000d06 	br	620 <mark_cluster+0xcc>
        }
    }
    IOWR_16DIRECT(device_pointer->base, 2*(cluster_index % 256), flag);
     5ec:	e0bffd17 	ldw	r2,-12(fp)
     5f0:	10803fcc 	andi	r2,r2,255
     5f4:	1085883a 	add	r2,r2,r2
     5f8:	1007883a 	mov	r3,r2
     5fc:	d0aacc17 	ldw	r2,-21712(gp)
     600:	10800a17 	ldw	r2,40(r2)
     604:	1885883a 	add	r2,r3,r2
     608:	1007883a 	mov	r3,r2
     60c:	e0bffe0f 	ldh	r2,-8(fp)
     610:	1880002d 	sthio	r2,0(r3)
    current_sector_modified = true;
     614:	00800044 	movi	r2,1
     618:	d0aacd15 	stw	r2,-21708(gp)
    return true;
     61c:	00800044 	movi	r2,1
}
     620:	e037883a 	mov	sp,fp
     624:	dfc00117 	ldw	ra,4(sp)
     628:	df000017 	ldw	fp,0(sp)
     62c:	dec00204 	addi	sp,sp,8
     630:	f800283a 	ret

00000634 <Check_for_Master_Boot_Record>:

bool Check_for_Master_Boot_Record(void)
// This function reads the first 512 bytes on the SD Card. This data should
// contain the Master Boot Record. If it does, then print
// relevant information and return true. Otherwise, return false. 
{
     634:	defff704 	addi	sp,sp,-36
     638:	dfc00815 	stw	ra,32(sp)
     63c:	df000715 	stw	fp,28(sp)
     640:	df000704 	addi	fp,sp,28
	bool result = false;
     644:	e03ff915 	stw	zero,-28(fp)
	int index;
	int end, offset, partition_size;

	/* Load the first 512 bytes of data from SD card. */
	if (Read_Sector_Data(0, 0))
     648:	000b883a 	mov	r5,zero
     64c:	0009883a 	mov	r4,zero
     650:	00003c80 	call	3c8 <Read_Sector_Data>
     654:	10005a26 	beq	r2,zero,7c0 <Check_for_Master_Boot_Record+0x18c>
	{
		end =  (short int) IORD_16DIRECT(device_pointer->base,0x1fe);
     658:	d0aacc17 	ldw	r2,-21712(gp)
     65c:	10800a17 	ldw	r2,40(r2)
     660:	10807f84 	addi	r2,r2,510
     664:	1080002b 	ldhuio	r2,0(r2)
     668:	10bfffcc 	andi	r2,r2,65535
     66c:	10bfffcc 	andi	r2,r2,65535
     670:	10a0001c 	xori	r2,r2,32768
     674:	10a00004 	addi	r2,r2,-32768
     678:	e0bffb15 	stw	r2,-20(fp)

		// Check if the end of the sector contains an end string 0xaa55.
		if ((end & 0x0000ffff) == 0x0000aa55)
     67c:	e0bffb17 	ldw	r2,-20(fp)
     680:	10ffffcc 	andi	r3,r2,65535
     684:	00aa9554 	movui	r2,43605
     688:	18804d1e 	bne	r3,r2,7c0 <Check_for_Master_Boot_Record+0x18c>
		{
			// Check four partition entries and see if any are valid
			for (index = 0; index < 4; index++)
     68c:	e03ffa15 	stw	zero,-24(fp)
     690:	00004806 	br	7b4 <Check_for_Master_Boot_Record+0x180>
			{
				int partition_data_offset = (index * 16) + 0x01be;
     694:	e0bffa17 	ldw	r2,-24(fp)
     698:	1004913a 	slli	r2,r2,4
     69c:	10806f84 	addi	r2,r2,446
     6a0:	e0bffc15 	stw	r2,-16(fp)
				char type;
		        
				// Read Partition type
				type = (unsigned char) IORD_8DIRECT(device_pointer->base,partition_data_offset + 0x04);
     6a4:	d0aacc17 	ldw	r2,-21712(gp)
     6a8:	10c00a17 	ldw	r3,40(r2)
     6ac:	e0bffc17 	ldw	r2,-16(fp)
     6b0:	1885883a 	add	r2,r3,r2
     6b4:	10800104 	addi	r2,r2,4
     6b8:	10800023 	ldbuio	r2,0(r2)
     6bc:	10803fcc 	andi	r2,r2,255
     6c0:	e0bffd05 	stb	r2,-12(fp)

				// Check if this is an FAT parition
				if ((type == 1) || (type == 4) || (type == 6) || (type == 14))
     6c4:	e0bffd07 	ldb	r2,-12(fp)
     6c8:	10800060 	cmpeqi	r2,r2,1
     6cc:	1000091e 	bne	r2,zero,6f4 <Check_for_Master_Boot_Record+0xc0>
     6d0:	e0bffd07 	ldb	r2,-12(fp)
     6d4:	10800120 	cmpeqi	r2,r2,4
     6d8:	1000061e 	bne	r2,zero,6f4 <Check_for_Master_Boot_Record+0xc0>
     6dc:	e0bffd07 	ldb	r2,-12(fp)
     6e0:	108001a0 	cmpeqi	r2,r2,6
     6e4:	1000031e 	bne	r2,zero,6f4 <Check_for_Master_Boot_Record+0xc0>
     6e8:	e0bffd07 	ldb	r2,-12(fp)
     6ec:	10800398 	cmpnei	r2,r2,14
     6f0:	10002d1e 	bne	r2,zero,7a8 <Check_for_Master_Boot_Record+0x174>
				{
					// Get partition offset and size.
					offset = (((unsigned short int) IORD_16DIRECT(device_pointer->base,partition_data_offset + 0x0A)) << 16) | ((unsigned short int) IORD_16DIRECT(device_pointer->base,partition_data_offset + 0x08));
     6f4:	d0aacc17 	ldw	r2,-21712(gp)
     6f8:	10c00a17 	ldw	r3,40(r2)
     6fc:	e0bffc17 	ldw	r2,-16(fp)
     700:	1885883a 	add	r2,r3,r2
     704:	10800284 	addi	r2,r2,10
     708:	1080002b 	ldhuio	r2,0(r2)
     70c:	10bfffcc 	andi	r2,r2,65535
     710:	1006943a 	slli	r3,r2,16
     714:	d0aacc17 	ldw	r2,-21712(gp)
     718:	11000a17 	ldw	r4,40(r2)
     71c:	e0bffc17 	ldw	r2,-16(fp)
     720:	2085883a 	add	r2,r4,r2
     724:	10800204 	addi	r2,r2,8
     728:	1080002b 	ldhuio	r2,0(r2)
     72c:	10bfffcc 	andi	r2,r2,65535
     730:	10bfffcc 	andi	r2,r2,65535
     734:	1884b03a 	or	r2,r3,r2
     738:	e0bffe15 	stw	r2,-8(fp)
					partition_size = (((unsigned short int) IORD_16DIRECT(device_pointer->base,partition_data_offset + 0x0E)) << 16) | ((unsigned short int) IORD_16DIRECT(device_pointer->base,partition_data_offset + 0x0C));
     73c:	d0aacc17 	ldw	r2,-21712(gp)
     740:	10c00a17 	ldw	r3,40(r2)
     744:	e0bffc17 	ldw	r2,-16(fp)
     748:	1885883a 	add	r2,r3,r2
     74c:	10800384 	addi	r2,r2,14
     750:	1080002b 	ldhuio	r2,0(r2)
     754:	10bfffcc 	andi	r2,r2,65535
     758:	1006943a 	slli	r3,r2,16
     75c:	d0aacc17 	ldw	r2,-21712(gp)
     760:	11000a17 	ldw	r4,40(r2)
     764:	e0bffc17 	ldw	r2,-16(fp)
     768:	2085883a 	add	r2,r4,r2
     76c:	10800304 	addi	r2,r2,12
     770:	1080002b 	ldhuio	r2,0(r2)
     774:	10bfffcc 	andi	r2,r2,65535
     778:	10bfffcc 	andi	r2,r2,65535
     77c:	1884b03a 	or	r2,r3,r2
     780:	e0bfff15 	stw	r2,-4(fp)
		            
					// Check if the partition is valid
					if (partition_size > 0)
     784:	e0bfff17 	ldw	r2,-4(fp)
     788:	0080070e 	bge	zero,r2,7a8 <Check_for_Master_Boot_Record+0x174>
					{
						result = true;
     78c:	00800044 	movi	r2,1
     790:	e0bff915 	stw	r2,-28(fp)
						fat_partition_size_in_512_byte_sectors = partition_size;
     794:	e0bfff17 	ldw	r2,-4(fp)
     798:	d0aacb15 	stw	r2,-21716(gp)
						fat_partition_offset_in_512_byte_sectors = offset;
     79c:	e0bffe17 	ldw	r2,-8(fp)
     7a0:	d0aaca15 	stw	r2,-21720(gp)
						break;
     7a4:	00000606 	br	7c0 <Check_for_Master_Boot_Record+0x18c>

		// Check if the end of the sector contains an end string 0xaa55.
		if ((end & 0x0000ffff) == 0x0000aa55)
		{
			// Check four partition entries and see if any are valid
			for (index = 0; index < 4; index++)
     7a8:	e0bffa17 	ldw	r2,-24(fp)
     7ac:	10800044 	addi	r2,r2,1
     7b0:	e0bffa15 	stw	r2,-24(fp)
     7b4:	e0bffa17 	ldw	r2,-24(fp)
     7b8:	10800110 	cmplti	r2,r2,4
     7bc:	103fb51e 	bne	r2,zero,694 <__alt_mem_onchip_memory+0xf7800694>
				}
			}
		}
	}

	return result;
     7c0:	e0bff917 	ldw	r2,-28(fp)
}
     7c4:	e037883a 	mov	sp,fp
     7c8:	dfc00117 	ldw	ra,4(sp)
     7cc:	df000017 	ldw	fp,0(sp)
     7d0:	dec00204 	addi	sp,sp,8
     7d4:	f800283a 	ret

000007d8 <Read_File_Record_At_Offset>:


bool Read_File_Record_At_Offset(int offset, t_file_record *record, unsigned int cluster_index, unsigned int sector_in_cluster)
// This function reads a file record
{
     7d8:	defff804 	addi	sp,sp,-32
     7dc:	dfc00715 	stw	ra,28(sp)
     7e0:	df000615 	stw	fp,24(sp)
     7e4:	df000604 	addi	fp,sp,24
     7e8:	e13ffc15 	stw	r4,-16(fp)
     7ec:	e17ffd15 	stw	r5,-12(fp)
     7f0:	e1bffe15 	stw	r6,-8(fp)
     7f4:	e1ffff15 	stw	r7,-4(fp)
	bool result = false;
     7f8:	e03ffa15 	stw	zero,-24(fp)
	if (((offset & 0x01f) == 0) && (alt_up_sd_card_is_Present()) && (is_sd_card_formated_as_FAT16))
     7fc:	e0bffc17 	ldw	r2,-16(fp)
     800:	108007cc 	andi	r2,r2,31
     804:	10008d1e 	bne	r2,zero,a3c <Read_File_Record_At_Offset+0x264>
     808:	00030500 	call	3050 <alt_up_sd_card_is_Present>
     80c:	10008b26 	beq	r2,zero,a3c <Read_File_Record_At_Offset+0x264>
     810:	d0aac317 	ldw	r2,-21748(gp)
     814:	10008926 	beq	r2,zero,a3c <Read_File_Record_At_Offset+0x264>
	{
		int counter;

		for (counter = 0; counter < 8; counter++)
     818:	e03ffb15 	stw	zero,-20(fp)
     81c:	00001106 	br	864 <Read_File_Record_At_Offset+0x8c>
		{
			record->name[counter] = (char) IORD_8DIRECT(device_pointer->base, offset+counter);
     820:	e0fffc17 	ldw	r3,-16(fp)
     824:	e0bffb17 	ldw	r2,-20(fp)
     828:	1885883a 	add	r2,r3,r2
     82c:	1007883a 	mov	r3,r2
     830:	d0aacc17 	ldw	r2,-21712(gp)
     834:	10800a17 	ldw	r2,40(r2)
     838:	1885883a 	add	r2,r3,r2
     83c:	10800023 	ldbuio	r2,0(r2)
     840:	10803fcc 	andi	r2,r2,255
     844:	1009883a 	mov	r4,r2
     848:	e0fffd17 	ldw	r3,-12(fp)
     84c:	e0bffb17 	ldw	r2,-20(fp)
     850:	1885883a 	add	r2,r3,r2
     854:	11000005 	stb	r4,0(r2)
	bool result = false;
	if (((offset & 0x01f) == 0) && (alt_up_sd_card_is_Present()) && (is_sd_card_formated_as_FAT16))
	{
		int counter;

		for (counter = 0; counter < 8; counter++)
     858:	e0bffb17 	ldw	r2,-20(fp)
     85c:	10800044 	addi	r2,r2,1
     860:	e0bffb15 	stw	r2,-20(fp)
     864:	e0bffb17 	ldw	r2,-20(fp)
     868:	10800210 	cmplti	r2,r2,8
     86c:	103fec1e 	bne	r2,zero,820 <__alt_mem_onchip_memory+0xf7800820>
		{
			record->name[counter] = (char) IORD_8DIRECT(device_pointer->base, offset+counter);
		}        
		for (counter = 0; counter < 3; counter++)
     870:	e03ffb15 	stw	zero,-20(fp)
     874:	00001306 	br	8c4 <Read_File_Record_At_Offset+0xec>
		{
			record->extension[counter] = (char) IORD_8DIRECT(device_pointer->base, offset+counter+8);
     878:	e0fffc17 	ldw	r3,-16(fp)
     87c:	e0bffb17 	ldw	r2,-20(fp)
     880:	1885883a 	add	r2,r3,r2
     884:	1007883a 	mov	r3,r2
     888:	d0aacc17 	ldw	r2,-21712(gp)
     88c:	10800a17 	ldw	r2,40(r2)
     890:	1885883a 	add	r2,r3,r2
     894:	10800204 	addi	r2,r2,8
     898:	10800023 	ldbuio	r2,0(r2)
     89c:	10803fcc 	andi	r2,r2,255
     8a0:	1009883a 	mov	r4,r2
     8a4:	e0fffd17 	ldw	r3,-12(fp)
     8a8:	e0bffb17 	ldw	r2,-20(fp)
     8ac:	1885883a 	add	r2,r3,r2
     8b0:	10800204 	addi	r2,r2,8
     8b4:	11000005 	stb	r4,0(r2)

		for (counter = 0; counter < 8; counter++)
		{
			record->name[counter] = (char) IORD_8DIRECT(device_pointer->base, offset+counter);
		}        
		for (counter = 0; counter < 3; counter++)
     8b8:	e0bffb17 	ldw	r2,-20(fp)
     8bc:	10800044 	addi	r2,r2,1
     8c0:	e0bffb15 	stw	r2,-20(fp)
     8c4:	e0bffb17 	ldw	r2,-20(fp)
     8c8:	108000d0 	cmplti	r2,r2,3
     8cc:	103fea1e 	bne	r2,zero,878 <__alt_mem_onchip_memory+0xf7800878>
		{
			record->extension[counter] = (char) IORD_8DIRECT(device_pointer->base, offset+counter+8);
		}        
		record->attributes          =   (char) IORD_8DIRECT(device_pointer->base, offset+11);
     8d0:	d0aacc17 	ldw	r2,-21712(gp)
     8d4:	10c00a17 	ldw	r3,40(r2)
     8d8:	e0bffc17 	ldw	r2,-16(fp)
     8dc:	1885883a 	add	r2,r3,r2
     8e0:	108002c4 	addi	r2,r2,11
     8e4:	10800023 	ldbuio	r2,0(r2)
     8e8:	10803fcc 	andi	r2,r2,255
     8ec:	1007883a 	mov	r3,r2
     8f0:	e0bffd17 	ldw	r2,-12(fp)
     8f4:	10c002c5 	stb	r3,11(r2)
		/* Ignore reserved bytes at locations 12 and 13. */
		record->create_time         =   (unsigned short int) IORD_16DIRECT(device_pointer->base, offset+14);
     8f8:	d0aacc17 	ldw	r2,-21712(gp)
     8fc:	10c00a17 	ldw	r3,40(r2)
     900:	e0bffc17 	ldw	r2,-16(fp)
     904:	1885883a 	add	r2,r3,r2
     908:	10800384 	addi	r2,r2,14
     90c:	1080002b 	ldhuio	r2,0(r2)
     910:	10bfffcc 	andi	r2,r2,65535
     914:	1007883a 	mov	r3,r2
     918:	e0bffd17 	ldw	r2,-12(fp)
     91c:	10c0030d 	sth	r3,12(r2)
		record->create_date         =   (unsigned short int) IORD_16DIRECT(device_pointer->base, offset+16);
     920:	d0aacc17 	ldw	r2,-21712(gp)
     924:	10c00a17 	ldw	r3,40(r2)
     928:	e0bffc17 	ldw	r2,-16(fp)
     92c:	1885883a 	add	r2,r3,r2
     930:	10800404 	addi	r2,r2,16
     934:	1080002b 	ldhuio	r2,0(r2)
     938:	10bfffcc 	andi	r2,r2,65535
     93c:	1007883a 	mov	r3,r2
     940:	e0bffd17 	ldw	r2,-12(fp)
     944:	10c0038d 	sth	r3,14(r2)
		record->last_access_date    =   (unsigned short int) IORD_16DIRECT(device_pointer->base, offset+18);
     948:	d0aacc17 	ldw	r2,-21712(gp)
     94c:	10c00a17 	ldw	r3,40(r2)
     950:	e0bffc17 	ldw	r2,-16(fp)
     954:	1885883a 	add	r2,r3,r2
     958:	10800484 	addi	r2,r2,18
     95c:	1080002b 	ldhuio	r2,0(r2)
     960:	10bfffcc 	andi	r2,r2,65535
     964:	1007883a 	mov	r3,r2
     968:	e0bffd17 	ldw	r2,-12(fp)
     96c:	10c0040d 	sth	r3,16(r2)
		/* Ignore reserved bytes at locations 20 and 21. */
		record->last_modified_time  =	(unsigned short int) IORD_16DIRECT(device_pointer->base, offset+22);
     970:	d0aacc17 	ldw	r2,-21712(gp)
     974:	10c00a17 	ldw	r3,40(r2)
     978:	e0bffc17 	ldw	r2,-16(fp)
     97c:	1885883a 	add	r2,r3,r2
     980:	10800584 	addi	r2,r2,22
     984:	1080002b 	ldhuio	r2,0(r2)
     988:	10bfffcc 	andi	r2,r2,65535
     98c:	1007883a 	mov	r3,r2
     990:	e0bffd17 	ldw	r2,-12(fp)
     994:	10c0048d 	sth	r3,18(r2)
		record->last_modified_date  =	(unsigned short int) IORD_16DIRECT(device_pointer->base, offset+24);
     998:	d0aacc17 	ldw	r2,-21712(gp)
     99c:	10c00a17 	ldw	r3,40(r2)
     9a0:	e0bffc17 	ldw	r2,-16(fp)
     9a4:	1885883a 	add	r2,r3,r2
     9a8:	10800604 	addi	r2,r2,24
     9ac:	1080002b 	ldhuio	r2,0(r2)
     9b0:	10bfffcc 	andi	r2,r2,65535
     9b4:	1007883a 	mov	r3,r2
     9b8:	e0bffd17 	ldw	r2,-12(fp)
     9bc:	10c0050d 	sth	r3,20(r2)
		record->start_cluster_index =	(unsigned short int) IORD_16DIRECT(device_pointer->base, offset+26);
     9c0:	d0aacc17 	ldw	r2,-21712(gp)
     9c4:	10c00a17 	ldw	r3,40(r2)
     9c8:	e0bffc17 	ldw	r2,-16(fp)
     9cc:	1885883a 	add	r2,r3,r2
     9d0:	10800684 	addi	r2,r2,26
     9d4:	1080002b 	ldhuio	r2,0(r2)
     9d8:	10bfffcc 	andi	r2,r2,65535
     9dc:	1007883a 	mov	r3,r2
     9e0:	e0bffd17 	ldw	r2,-12(fp)
     9e4:	10c0058d 	sth	r3,22(r2)
		record->file_size_in_bytes  =	(unsigned int) IORD_32DIRECT(device_pointer->base, offset+28);
     9e8:	d0aacc17 	ldw	r2,-21712(gp)
     9ec:	10c00a17 	ldw	r3,40(r2)
     9f0:	e0bffc17 	ldw	r2,-16(fp)
     9f4:	1885883a 	add	r2,r3,r2
     9f8:	10800704 	addi	r2,r2,28
     9fc:	10800037 	ldwio	r2,0(r2)
     a00:	1007883a 	mov	r3,r2
     a04:	e0bffd17 	ldw	r2,-12(fp)
     a08:	10c00615 	stw	r3,24(r2)
		record->file_record_cluster = cluster_index;
     a0c:	e0bffd17 	ldw	r2,-12(fp)
     a10:	e0fffe17 	ldw	r3,-8(fp)
     a14:	10c00a15 	stw	r3,40(r2)
		record->file_record_sector_in_cluster = sector_in_cluster;
     a18:	e0bffd17 	ldw	r2,-12(fp)
     a1c:	e0ffff17 	ldw	r3,-4(fp)
     a20:	10c00b15 	stw	r3,44(r2)
		record->file_record_offset = offset;
     a24:	e0bffc17 	ldw	r2,-16(fp)
     a28:	1007883a 	mov	r3,r2
     a2c:	e0bffd17 	ldw	r2,-12(fp)
     a30:	10c00c0d 	sth	r3,48(r2)
		result = true;
     a34:	00800044 	movi	r2,1
     a38:	e0bffa15 	stw	r2,-24(fp)
	}
	return result;
     a3c:	e0bffa17 	ldw	r2,-24(fp)
}
     a40:	e037883a 	mov	sp,fp
     a44:	dfc00117 	ldw	ra,4(sp)
     a48:	df000017 	ldw	fp,0(sp)
     a4c:	dec00204 	addi	sp,sp,8
     a50:	f800283a 	ret

00000a54 <Write_File_Record_At_Offset>:


bool Write_File_Record_At_Offset(int offset, t_file_record *record)
// This function writes a file record at a given offset. The offset is given in bytes.
{
     a54:	defff904 	addi	sp,sp,-28
     a58:	dfc00615 	stw	ra,24(sp)
     a5c:	df000515 	stw	fp,20(sp)
     a60:	df000504 	addi	fp,sp,20
     a64:	e13ffe15 	stw	r4,-8(fp)
     a68:	e17fff15 	stw	r5,-4(fp)
    bool result = false;
     a6c:	e03ffb15 	stw	zero,-20(fp)
    if (((offset & 0x01f) == 0) && (alt_up_sd_card_is_Present()) && (is_sd_card_formated_as_FAT16))
     a70:	e0bffe17 	ldw	r2,-8(fp)
     a74:	108007cc 	andi	r2,r2,31
     a78:	1000931e 	bne	r2,zero,cc8 <Write_File_Record_At_Offset+0x274>
     a7c:	00030500 	call	3050 <alt_up_sd_card_is_Present>
     a80:	10009126 	beq	r2,zero,cc8 <Write_File_Record_At_Offset+0x274>
     a84:	d0aac317 	ldw	r2,-21748(gp)
     a88:	10008f26 	beq	r2,zero,cc8 <Write_File_Record_At_Offset+0x274>
    {
        int counter;

        for (counter = 0; counter < 8; counter=counter+2)
     a8c:	e03ffc15 	stw	zero,-16(fp)
     a90:	00001f06 	br	b10 <Write_File_Record_At_Offset+0xbc>
        {
            short int two_chars = (short int) record->name[counter+1];
     a94:	e0bffc17 	ldw	r2,-16(fp)
     a98:	10800044 	addi	r2,r2,1
     a9c:	e0ffff17 	ldw	r3,-4(fp)
     aa0:	1885883a 	add	r2,r3,r2
     aa4:	10800003 	ldbu	r2,0(r2)
     aa8:	10803fcc 	andi	r2,r2,255
     aac:	e0bffd0d 	sth	r2,-12(fp)
            two_chars = two_chars << 8;
     ab0:	e0bffd0f 	ldh	r2,-12(fp)
     ab4:	1004923a 	slli	r2,r2,8
     ab8:	e0bffd0d 	sth	r2,-12(fp)
            two_chars = two_chars | record->name[counter];
     abc:	e0ffff17 	ldw	r3,-4(fp)
     ac0:	e0bffc17 	ldw	r2,-16(fp)
     ac4:	1885883a 	add	r2,r3,r2
     ac8:	10800003 	ldbu	r2,0(r2)
     acc:	10c03fcc 	andi	r3,r2,255
     ad0:	e0bffd0b 	ldhu	r2,-12(fp)
     ad4:	1884b03a 	or	r2,r3,r2
     ad8:	e0bffd0d 	sth	r2,-12(fp)
            IOWR_16DIRECT(device_pointer->base, offset+counter, two_chars);
     adc:	e0fffe17 	ldw	r3,-8(fp)
     ae0:	e0bffc17 	ldw	r2,-16(fp)
     ae4:	1885883a 	add	r2,r3,r2
     ae8:	1007883a 	mov	r3,r2
     aec:	d0aacc17 	ldw	r2,-21712(gp)
     af0:	10800a17 	ldw	r2,40(r2)
     af4:	1885883a 	add	r2,r3,r2
     af8:	1007883a 	mov	r3,r2
     afc:	e0bffd0f 	ldh	r2,-12(fp)
     b00:	1880002d 	sthio	r2,0(r3)
    bool result = false;
    if (((offset & 0x01f) == 0) && (alt_up_sd_card_is_Present()) && (is_sd_card_formated_as_FAT16))
    {
        int counter;

        for (counter = 0; counter < 8; counter=counter+2)
     b04:	e0bffc17 	ldw	r2,-16(fp)
     b08:	10800084 	addi	r2,r2,2
     b0c:	e0bffc15 	stw	r2,-16(fp)
     b10:	e0bffc17 	ldw	r2,-16(fp)
     b14:	10800210 	cmplti	r2,r2,8
     b18:	103fde1e 	bne	r2,zero,a94 <__alt_mem_onchip_memory+0xf7800a94>
            short int two_chars = (short int) record->name[counter+1];
            two_chars = two_chars << 8;
            two_chars = two_chars | record->name[counter];
            IOWR_16DIRECT(device_pointer->base, offset+counter, two_chars);
        }        
        for (counter = 0; counter < 3; counter++)
     b1c:	e03ffc15 	stw	zero,-16(fp)
     b20:	00001306 	br	b70 <Write_File_Record_At_Offset+0x11c>
        {
            IOWR_8DIRECT(device_pointer->base, offset+counter+8, record->extension[counter]);
     b24:	e0fffe17 	ldw	r3,-8(fp)
     b28:	e0bffc17 	ldw	r2,-16(fp)
     b2c:	1885883a 	add	r2,r3,r2
     b30:	1007883a 	mov	r3,r2
     b34:	d0aacc17 	ldw	r2,-21712(gp)
     b38:	10800a17 	ldw	r2,40(r2)
     b3c:	1885883a 	add	r2,r3,r2
     b40:	10800204 	addi	r2,r2,8
     b44:	1009883a 	mov	r4,r2
     b48:	e0ffff17 	ldw	r3,-4(fp)
     b4c:	e0bffc17 	ldw	r2,-16(fp)
     b50:	1885883a 	add	r2,r3,r2
     b54:	10800204 	addi	r2,r2,8
     b58:	10800003 	ldbu	r2,0(r2)
     b5c:	10803fcc 	andi	r2,r2,255
     b60:	20800025 	stbio	r2,0(r4)
            short int two_chars = (short int) record->name[counter+1];
            two_chars = two_chars << 8;
            two_chars = two_chars | record->name[counter];
            IOWR_16DIRECT(device_pointer->base, offset+counter, two_chars);
        }        
        for (counter = 0; counter < 3; counter++)
     b64:	e0bffc17 	ldw	r2,-16(fp)
     b68:	10800044 	addi	r2,r2,1
     b6c:	e0bffc15 	stw	r2,-16(fp)
     b70:	e0bffc17 	ldw	r2,-16(fp)
     b74:	108000d0 	cmplti	r2,r2,3
     b78:	103fea1e 	bne	r2,zero,b24 <__alt_mem_onchip_memory+0xf7800b24>
        {
            IOWR_8DIRECT(device_pointer->base, offset+counter+8, record->extension[counter]);
        }        
        IOWR_8DIRECT(device_pointer->base, offset+11, record->attributes);
     b7c:	d0aacc17 	ldw	r2,-21712(gp)
     b80:	10c00a17 	ldw	r3,40(r2)
     b84:	e0bffe17 	ldw	r2,-8(fp)
     b88:	1885883a 	add	r2,r3,r2
     b8c:	108002c4 	addi	r2,r2,11
     b90:	1007883a 	mov	r3,r2
     b94:	e0bfff17 	ldw	r2,-4(fp)
     b98:	108002c3 	ldbu	r2,11(r2)
     b9c:	10803fcc 	andi	r2,r2,255
     ba0:	18800025 	stbio	r2,0(r3)
        /* Ignore reserved bytes at locations 12 and 13. */
        IOWR_16DIRECT(device_pointer->base, offset+14, record->create_time);
     ba4:	d0aacc17 	ldw	r2,-21712(gp)
     ba8:	10c00a17 	ldw	r3,40(r2)
     bac:	e0bffe17 	ldw	r2,-8(fp)
     bb0:	1885883a 	add	r2,r3,r2
     bb4:	10800384 	addi	r2,r2,14
     bb8:	1007883a 	mov	r3,r2
     bbc:	e0bfff17 	ldw	r2,-4(fp)
     bc0:	1080030b 	ldhu	r2,12(r2)
     bc4:	10bfffcc 	andi	r2,r2,65535
     bc8:	1880002d 	sthio	r2,0(r3)
        IOWR_16DIRECT(device_pointer->base, offset+16, record->create_date);
     bcc:	d0aacc17 	ldw	r2,-21712(gp)
     bd0:	10c00a17 	ldw	r3,40(r2)
     bd4:	e0bffe17 	ldw	r2,-8(fp)
     bd8:	1885883a 	add	r2,r3,r2
     bdc:	10800404 	addi	r2,r2,16
     be0:	1007883a 	mov	r3,r2
     be4:	e0bfff17 	ldw	r2,-4(fp)
     be8:	1080038b 	ldhu	r2,14(r2)
     bec:	10bfffcc 	andi	r2,r2,65535
     bf0:	1880002d 	sthio	r2,0(r3)
        IOWR_16DIRECT(device_pointer->base, offset+18, record->last_access_date);
     bf4:	d0aacc17 	ldw	r2,-21712(gp)
     bf8:	10c00a17 	ldw	r3,40(r2)
     bfc:	e0bffe17 	ldw	r2,-8(fp)
     c00:	1885883a 	add	r2,r3,r2
     c04:	10800484 	addi	r2,r2,18
     c08:	1007883a 	mov	r3,r2
     c0c:	e0bfff17 	ldw	r2,-4(fp)
     c10:	1080040b 	ldhu	r2,16(r2)
     c14:	10bfffcc 	andi	r2,r2,65535
     c18:	1880002d 	sthio	r2,0(r3)
        /* Ignore reserved bytes at locations 20 and 21. */
        IOWR_16DIRECT(device_pointer->base, offset+22, record->last_modified_time);
     c1c:	d0aacc17 	ldw	r2,-21712(gp)
     c20:	10c00a17 	ldw	r3,40(r2)
     c24:	e0bffe17 	ldw	r2,-8(fp)
     c28:	1885883a 	add	r2,r3,r2
     c2c:	10800584 	addi	r2,r2,22
     c30:	1007883a 	mov	r3,r2
     c34:	e0bfff17 	ldw	r2,-4(fp)
     c38:	1080048b 	ldhu	r2,18(r2)
     c3c:	10bfffcc 	andi	r2,r2,65535
     c40:	1880002d 	sthio	r2,0(r3)
        IOWR_16DIRECT(device_pointer->base, offset+24, record->last_modified_date);
     c44:	d0aacc17 	ldw	r2,-21712(gp)
     c48:	10c00a17 	ldw	r3,40(r2)
     c4c:	e0bffe17 	ldw	r2,-8(fp)
     c50:	1885883a 	add	r2,r3,r2
     c54:	10800604 	addi	r2,r2,24
     c58:	1007883a 	mov	r3,r2
     c5c:	e0bfff17 	ldw	r2,-4(fp)
     c60:	1080050b 	ldhu	r2,20(r2)
     c64:	10bfffcc 	andi	r2,r2,65535
     c68:	1880002d 	sthio	r2,0(r3)
        IOWR_16DIRECT(device_pointer->base, offset+26, record->start_cluster_index);
     c6c:	d0aacc17 	ldw	r2,-21712(gp)
     c70:	10c00a17 	ldw	r3,40(r2)
     c74:	e0bffe17 	ldw	r2,-8(fp)
     c78:	1885883a 	add	r2,r3,r2
     c7c:	10800684 	addi	r2,r2,26
     c80:	1007883a 	mov	r3,r2
     c84:	e0bfff17 	ldw	r2,-4(fp)
     c88:	1080058b 	ldhu	r2,22(r2)
     c8c:	10bfffcc 	andi	r2,r2,65535
     c90:	1880002d 	sthio	r2,0(r3)
        IOWR_32DIRECT(device_pointer->base, offset+28, record->file_size_in_bytes);
     c94:	d0aacc17 	ldw	r2,-21712(gp)
     c98:	10c00a17 	ldw	r3,40(r2)
     c9c:	e0bffe17 	ldw	r2,-8(fp)
     ca0:	1885883a 	add	r2,r3,r2
     ca4:	10800704 	addi	r2,r2,28
     ca8:	1007883a 	mov	r3,r2
     cac:	e0bfff17 	ldw	r2,-4(fp)
     cb0:	10800617 	ldw	r2,24(r2)
     cb4:	18800035 	stwio	r2,0(r3)
        current_sector_modified = true;                  
     cb8:	00800044 	movi	r2,1
     cbc:	d0aacd15 	stw	r2,-21708(gp)
        result = true;
     cc0:	00800044 	movi	r2,1
     cc4:	e0bffb15 	stw	r2,-20(fp)
    }
    return result;
     cc8:	e0bffb17 	ldw	r2,-20(fp)
}
     ccc:	e037883a 	mov	sp,fp
     cd0:	dfc00117 	ldw	ra,4(sp)
     cd4:	df000017 	ldw	fp,0(sp)
     cd8:	dec00204 	addi	sp,sp,8
     cdc:	f800283a 	ret

00000ce0 <Check_for_DOS_FAT>:
// This function reads the boot sector for the FAT file system on the SD Card.
// The offset_address should point to the sector on the card where the boot sector is located.
// The sector number is specified either in the master Boot Record, or is 0 by default for a purely FAT
// based file system. If the specified sector contains a FAT boot sector, then this function prints the
// relevant information and returns 1. Otherwise, it returns 0. 
{
     ce0:	defff804 	addi	sp,sp,-32
     ce4:	dfc00715 	stw	ra,28(sp)
     ce8:	df000615 	stw	fp,24(sp)
     cec:	dc000515 	stw	r16,20(sp)
     cf0:	df000604 	addi	fp,sp,24
     cf4:	e13ffe15 	stw	r4,-8(fp)
	bool result = false;
     cf8:	e03ffa15 	stw	zero,-24(fp)
	int counter = 0;
     cfc:	e03ffb15 	stw	zero,-20(fp)
	short int end;

	result = Read_Sector_Data(0, FAT_partition_start_sector);
     d00:	e17ffe17 	ldw	r5,-8(fp)
     d04:	0009883a 	mov	r4,zero
     d08:	00003c80 	call	3c8 <Read_Sector_Data>
     d0c:	e0bffa15 	stw	r2,-24(fp)
	end =  (short int) IORD_16DIRECT(device_pointer->base, 0x1fe);
     d10:	d0aacc17 	ldw	r2,-21712(gp)
     d14:	10800a17 	ldw	r2,40(r2)
     d18:	10807f84 	addi	r2,r2,510
     d1c:	1080002b 	ldhuio	r2,0(r2)
     d20:	10bfffcc 	andi	r2,r2,65535
     d24:	e0bffd0d 	sth	r2,-12(fp)
	if (((end & 0x0000ffff) == 0x0000aa55) && (result))
     d28:	e0bffd0f 	ldh	r2,-12(fp)
     d2c:	10ffffcc 	andi	r3,r2,65535
     d30:	00aa9554 	movui	r2,43605
     d34:	18818a1e 	bne	r3,r2,1360 <Check_for_DOS_FAT+0x680>
     d38:	e0bffa17 	ldw	r2,-24(fp)
     d3c:	10018826 	beq	r2,zero,1360 <Check_for_DOS_FAT+0x680>
	{
		int num_clusters = 0;
     d40:	e03ffc15 	stw	zero,-16(fp)

		boot_sector_data.jump_instruction[0] = (char) IORD_8DIRECT(device_pointer->base, 0);
     d44:	d0aacc17 	ldw	r2,-21712(gp)
     d48:	10800a17 	ldw	r2,40(r2)
     d4c:	10800023 	ldbuio	r2,0(r2)
     d50:	10803fcc 	andi	r2,r2,255
     d54:	1007883a 	mov	r3,r2
     d58:	00800134 	movhi	r2,4
     d5c:	10a49f04 	addi	r2,r2,-28036
     d60:	10c00005 	stb	r3,0(r2)
		boot_sector_data.jump_instruction[1] = (char) IORD_8DIRECT(device_pointer->base, 1);
     d64:	d0aacc17 	ldw	r2,-21712(gp)
     d68:	10800a17 	ldw	r2,40(r2)
     d6c:	10800044 	addi	r2,r2,1
     d70:	10800023 	ldbuio	r2,0(r2)
     d74:	10803fcc 	andi	r2,r2,255
     d78:	1007883a 	mov	r3,r2
     d7c:	00800134 	movhi	r2,4
     d80:	10a49f04 	addi	r2,r2,-28036
     d84:	10c00045 	stb	r3,1(r2)
		boot_sector_data.jump_instruction[2] = (char) IORD_8DIRECT(device_pointer->base, 2);
     d88:	d0aacc17 	ldw	r2,-21712(gp)
     d8c:	10800a17 	ldw	r2,40(r2)
     d90:	10800084 	addi	r2,r2,2
     d94:	10800023 	ldbuio	r2,0(r2)
     d98:	10803fcc 	andi	r2,r2,255
     d9c:	1007883a 	mov	r3,r2
     da0:	00800134 	movhi	r2,4
     da4:	10a49f04 	addi	r2,r2,-28036
     da8:	10c00085 	stb	r3,2(r2)
		for (counter = 0; counter < 8; counter++)
     dac:	e03ffb15 	stw	zero,-20(fp)
     db0:	00001106 	br	df8 <Check_for_DOS_FAT+0x118>
		{
			boot_sector_data.OEM_name[counter] = (char) IORD_8DIRECT(device_pointer->base, 3+counter);
     db4:	d0aacc17 	ldw	r2,-21712(gp)
     db8:	10c00a17 	ldw	r3,40(r2)
     dbc:	e0bffb17 	ldw	r2,-20(fp)
     dc0:	1885883a 	add	r2,r3,r2
     dc4:	108000c4 	addi	r2,r2,3
     dc8:	10800023 	ldbuio	r2,0(r2)
     dcc:	10803fcc 	andi	r2,r2,255
     dd0:	1009883a 	mov	r4,r2
     dd4:	00800134 	movhi	r2,4
     dd8:	10a49f04 	addi	r2,r2,-28036
     ddc:	e0fffb17 	ldw	r3,-20(fp)
     de0:	10c5883a 	add	r2,r2,r3
     de4:	108000c4 	addi	r2,r2,3
     de8:	11000005 	stb	r4,0(r2)
		int num_clusters = 0;

		boot_sector_data.jump_instruction[0] = (char) IORD_8DIRECT(device_pointer->base, 0);
		boot_sector_data.jump_instruction[1] = (char) IORD_8DIRECT(device_pointer->base, 1);
		boot_sector_data.jump_instruction[2] = (char) IORD_8DIRECT(device_pointer->base, 2);
		for (counter = 0; counter < 8; counter++)
     dec:	e0bffb17 	ldw	r2,-20(fp)
     df0:	10800044 	addi	r2,r2,1
     df4:	e0bffb15 	stw	r2,-20(fp)
     df8:	e0bffb17 	ldw	r2,-20(fp)
     dfc:	10800210 	cmplti	r2,r2,8
     e00:	103fec1e 	bne	r2,zero,db4 <__alt_mem_onchip_memory+0xf7800db4>
		{
			boot_sector_data.OEM_name[counter] = (char) IORD_8DIRECT(device_pointer->base, 3+counter);
		}
		boot_sector_data.sector_size_in_bytes = (((unsigned char) IORD_8DIRECT(device_pointer->base, 12)) << 8 ) | ((char) IORD_8DIRECT(device_pointer->base, 11));
     e04:	d0aacc17 	ldw	r2,-21712(gp)
     e08:	10800a17 	ldw	r2,40(r2)
     e0c:	10800304 	addi	r2,r2,12
     e10:	10800023 	ldbuio	r2,0(r2)
     e14:	10803fcc 	andi	r2,r2,255
     e18:	1004923a 	slli	r2,r2,8
     e1c:	1007883a 	mov	r3,r2
     e20:	d0aacc17 	ldw	r2,-21712(gp)
     e24:	10800a17 	ldw	r2,40(r2)
     e28:	108002c4 	addi	r2,r2,11
     e2c:	10800023 	ldbuio	r2,0(r2)
     e30:	10803fcc 	andi	r2,r2,255
     e34:	10803fcc 	andi	r2,r2,255
     e38:	1080201c 	xori	r2,r2,128
     e3c:	10bfe004 	addi	r2,r2,-128
     e40:	1884b03a 	or	r2,r3,r2
     e44:	1007883a 	mov	r3,r2
     e48:	00800134 	movhi	r2,4
     e4c:	10a49f04 	addi	r2,r2,-28036
     e50:	10c0030d 	sth	r3,12(r2)
		boot_sector_data.sectors_per_cluster = ((unsigned char) IORD_8DIRECT(device_pointer->base, 13));
     e54:	d0aacc17 	ldw	r2,-21712(gp)
     e58:	10800a17 	ldw	r2,40(r2)
     e5c:	10800344 	addi	r2,r2,13
     e60:	10800023 	ldbuio	r2,0(r2)
     e64:	10803fcc 	andi	r2,r2,255
     e68:	1007883a 	mov	r3,r2
     e6c:	00800134 	movhi	r2,4
     e70:	10a49f04 	addi	r2,r2,-28036
     e74:	10c00385 	stb	r3,14(r2)
		boot_sector_data.reserved_sectors = ((unsigned short int) IORD_16DIRECT(device_pointer->base, 14));
     e78:	d0aacc17 	ldw	r2,-21712(gp)
     e7c:	10800a17 	ldw	r2,40(r2)
     e80:	10800384 	addi	r2,r2,14
     e84:	1080002b 	ldhuio	r2,0(r2)
     e88:	10bfffcc 	andi	r2,r2,65535
     e8c:	1007883a 	mov	r3,r2
     e90:	00800134 	movhi	r2,4
     e94:	10a49f04 	addi	r2,r2,-28036
     e98:	10c0040d 	sth	r3,16(r2)
		boot_sector_data.number_of_FATs = ((unsigned char) IORD_8DIRECT(device_pointer->base, 16));
     e9c:	d0aacc17 	ldw	r2,-21712(gp)
     ea0:	10800a17 	ldw	r2,40(r2)
     ea4:	10800404 	addi	r2,r2,16
     ea8:	10800023 	ldbuio	r2,0(r2)
     eac:	10803fcc 	andi	r2,r2,255
     eb0:	1007883a 	mov	r3,r2
     eb4:	00800134 	movhi	r2,4
     eb8:	10a49f04 	addi	r2,r2,-28036
     ebc:	10c00485 	stb	r3,18(r2)
		boot_sector_data.max_number_of_dir_entires = (((unsigned short int)(((unsigned char) IORD_8DIRECT(device_pointer->base, 18)))) << 8 ) | ((unsigned char) IORD_8DIRECT(device_pointer->base, 17));
     ec0:	d0aacc17 	ldw	r2,-21712(gp)
     ec4:	10800a17 	ldw	r2,40(r2)
     ec8:	10800484 	addi	r2,r2,18
     ecc:	10800023 	ldbuio	r2,0(r2)
     ed0:	10803fcc 	andi	r2,r2,255
     ed4:	1004923a 	slli	r2,r2,8
     ed8:	1007883a 	mov	r3,r2
     edc:	d0aacc17 	ldw	r2,-21712(gp)
     ee0:	10800a17 	ldw	r2,40(r2)
     ee4:	10800444 	addi	r2,r2,17
     ee8:	10800023 	ldbuio	r2,0(r2)
     eec:	10803fcc 	andi	r2,r2,255
     ef0:	10803fcc 	andi	r2,r2,255
     ef4:	1884b03a 	or	r2,r3,r2
     ef8:	1007883a 	mov	r3,r2
     efc:	00800134 	movhi	r2,4
     f00:	10a49f04 	addi	r2,r2,-28036
     f04:	10c0050d 	sth	r3,20(r2)
		boot_sector_data.number_of_sectors_in_partition = (((unsigned short int)(((unsigned char) IORD_8DIRECT(device_pointer->base, 20)))) << 8 ) | ((unsigned char) IORD_8DIRECT(device_pointer->base, 19));
     f08:	d0aacc17 	ldw	r2,-21712(gp)
     f0c:	10800a17 	ldw	r2,40(r2)
     f10:	10800504 	addi	r2,r2,20
     f14:	10800023 	ldbuio	r2,0(r2)
     f18:	10803fcc 	andi	r2,r2,255
     f1c:	1004923a 	slli	r2,r2,8
     f20:	1007883a 	mov	r3,r2
     f24:	d0aacc17 	ldw	r2,-21712(gp)
     f28:	10800a17 	ldw	r2,40(r2)
     f2c:	108004c4 	addi	r2,r2,19
     f30:	10800023 	ldbuio	r2,0(r2)
     f34:	10803fcc 	andi	r2,r2,255
     f38:	10803fcc 	andi	r2,r2,255
     f3c:	1884b03a 	or	r2,r3,r2
     f40:	1007883a 	mov	r3,r2
     f44:	00800134 	movhi	r2,4
     f48:	10a49f04 	addi	r2,r2,-28036
     f4c:	10c0058d 	sth	r3,22(r2)
		boot_sector_data.media_descriptor = ((unsigned char) IORD_8DIRECT(device_pointer->base, 21));
     f50:	d0aacc17 	ldw	r2,-21712(gp)
     f54:	10800a17 	ldw	r2,40(r2)
     f58:	10800544 	addi	r2,r2,21
     f5c:	10800023 	ldbuio	r2,0(r2)
     f60:	10803fcc 	andi	r2,r2,255
     f64:	1007883a 	mov	r3,r2
     f68:	00800134 	movhi	r2,4
     f6c:	10a49f04 	addi	r2,r2,-28036
     f70:	10c00605 	stb	r3,24(r2)
		boot_sector_data.number_of_sectors_per_table = ((unsigned short int) IORD_16DIRECT(device_pointer->base, 22));
     f74:	d0aacc17 	ldw	r2,-21712(gp)
     f78:	10800a17 	ldw	r2,40(r2)
     f7c:	10800584 	addi	r2,r2,22
     f80:	1080002b 	ldhuio	r2,0(r2)
     f84:	10bfffcc 	andi	r2,r2,65535
     f88:	1007883a 	mov	r3,r2
     f8c:	00800134 	movhi	r2,4
     f90:	10a49f04 	addi	r2,r2,-28036
     f94:	10c0068d 	sth	r3,26(r2)
		boot_sector_data.number_of_sectors_per_track = ((unsigned short int) IORD_16DIRECT(device_pointer->base, 24));
     f98:	d0aacc17 	ldw	r2,-21712(gp)
     f9c:	10800a17 	ldw	r2,40(r2)
     fa0:	10800604 	addi	r2,r2,24
     fa4:	1080002b 	ldhuio	r2,0(r2)
     fa8:	10bfffcc 	andi	r2,r2,65535
     fac:	1007883a 	mov	r3,r2
     fb0:	00800134 	movhi	r2,4
     fb4:	10a49f04 	addi	r2,r2,-28036
     fb8:	10c0070d 	sth	r3,28(r2)
		boot_sector_data.number_of_heads = ((unsigned short int) IORD_16DIRECT(device_pointer->base, 26));
     fbc:	d0aacc17 	ldw	r2,-21712(gp)
     fc0:	10800a17 	ldw	r2,40(r2)
     fc4:	10800684 	addi	r2,r2,26
     fc8:	1080002b 	ldhuio	r2,0(r2)
     fcc:	10bfffcc 	andi	r2,r2,65535
     fd0:	1007883a 	mov	r3,r2
     fd4:	00800134 	movhi	r2,4
     fd8:	10a49f04 	addi	r2,r2,-28036
     fdc:	10c0078d 	sth	r3,30(r2)
		boot_sector_data.number_of_hidden_sectors = ((unsigned int) IORD_32DIRECT(device_pointer->base, 28));
     fe0:	d0aacc17 	ldw	r2,-21712(gp)
     fe4:	10800a17 	ldw	r2,40(r2)
     fe8:	10800704 	addi	r2,r2,28
     fec:	10800037 	ldwio	r2,0(r2)
     ff0:	1007883a 	mov	r3,r2
     ff4:	00800134 	movhi	r2,4
     ff8:	10a49f04 	addi	r2,r2,-28036
     ffc:	10c00815 	stw	r3,32(r2)
		boot_sector_data.total_sector_count_if_above_32MB = ((unsigned int) IORD_32DIRECT(device_pointer->base, 32));
    1000:	d0aacc17 	ldw	r2,-21712(gp)
    1004:	10800a17 	ldw	r2,40(r2)
    1008:	10800804 	addi	r2,r2,32
    100c:	10800037 	ldwio	r2,0(r2)
    1010:	1007883a 	mov	r3,r2
    1014:	00800134 	movhi	r2,4
    1018:	10a49f04 	addi	r2,r2,-28036
    101c:	10c00915 	stw	r3,36(r2)
		boot_sector_data.drive_number = ((unsigned char) IORD_8DIRECT(device_pointer->base, 36));
    1020:	d0aacc17 	ldw	r2,-21712(gp)
    1024:	10800a17 	ldw	r2,40(r2)
    1028:	10800904 	addi	r2,r2,36
    102c:	10800023 	ldbuio	r2,0(r2)
    1030:	10803fcc 	andi	r2,r2,255
    1034:	1007883a 	mov	r3,r2
    1038:	00800134 	movhi	r2,4
    103c:	10a49f04 	addi	r2,r2,-28036
    1040:	10c00a05 	stb	r3,40(r2)
		boot_sector_data.current_head = ((unsigned char) IORD_8DIRECT(device_pointer->base, 37));
    1044:	d0aacc17 	ldw	r2,-21712(gp)
    1048:	10800a17 	ldw	r2,40(r2)
    104c:	10800944 	addi	r2,r2,37
    1050:	10800023 	ldbuio	r2,0(r2)
    1054:	10803fcc 	andi	r2,r2,255
    1058:	1007883a 	mov	r3,r2
    105c:	00800134 	movhi	r2,4
    1060:	10a49f04 	addi	r2,r2,-28036
    1064:	10c00a45 	stb	r3,41(r2)
		boot_sector_data.boot_signature = ((unsigned char) IORD_8DIRECT(device_pointer->base, 38));
    1068:	d0aacc17 	ldw	r2,-21712(gp)
    106c:	10800a17 	ldw	r2,40(r2)
    1070:	10800984 	addi	r2,r2,38
    1074:	10800023 	ldbuio	r2,0(r2)
    1078:	10803fcc 	andi	r2,r2,255
    107c:	1007883a 	mov	r3,r2
    1080:	00800134 	movhi	r2,4
    1084:	10a49f04 	addi	r2,r2,-28036
    1088:	10c00a85 	stb	r3,42(r2)
		boot_sector_data.first_fat_sector_offset = boot_sector_data.reserved_sectors;
    108c:	00800134 	movhi	r2,4
    1090:	10a49f04 	addi	r2,r2,-28036
    1094:	1080040b 	ldhu	r2,16(r2)
    1098:	10ffffcc 	andi	r3,r2,65535
    109c:	00800134 	movhi	r2,4
    10a0:	10a49f04 	addi	r2,r2,-28036
    10a4:	10c01115 	stw	r3,68(r2)
		boot_sector_data.second_fat_sector_offset = boot_sector_data.first_fat_sector_offset + boot_sector_data.number_of_sectors_per_table;
    10a8:	00800134 	movhi	r2,4
    10ac:	10a49f04 	addi	r2,r2,-28036
    10b0:	10c01117 	ldw	r3,68(r2)
    10b4:	00800134 	movhi	r2,4
    10b8:	10a49f04 	addi	r2,r2,-28036
    10bc:	1080068b 	ldhu	r2,26(r2)
    10c0:	10bfffcc 	andi	r2,r2,65535
    10c4:	1887883a 	add	r3,r3,r2
    10c8:	00800134 	movhi	r2,4
    10cc:	10a49f04 	addi	r2,r2,-28036
    10d0:	10c01215 	stw	r3,72(r2)
		boot_sector_data.root_directory_sector_offset = boot_sector_data.second_fat_sector_offset + boot_sector_data.number_of_sectors_per_table; 
    10d4:	00800134 	movhi	r2,4
    10d8:	10a49f04 	addi	r2,r2,-28036
    10dc:	10c01217 	ldw	r3,72(r2)
    10e0:	00800134 	movhi	r2,4
    10e4:	10a49f04 	addi	r2,r2,-28036
    10e8:	1080068b 	ldhu	r2,26(r2)
    10ec:	10bfffcc 	andi	r2,r2,65535
    10f0:	1887883a 	add	r3,r3,r2
    10f4:	00800134 	movhi	r2,4
    10f8:	10a49f04 	addi	r2,r2,-28036
    10fc:	10c01315 	stw	r3,76(r2)
		boot_sector_data.data_sector_offset = boot_sector_data.root_directory_sector_offset + (32*boot_sector_data.max_number_of_dir_entires / boot_sector_data.sector_size_in_bytes);    
    1100:	00800134 	movhi	r2,4
    1104:	10a49f04 	addi	r2,r2,-28036
    1108:	14001317 	ldw	r16,76(r2)
    110c:	00800134 	movhi	r2,4
    1110:	10a49f04 	addi	r2,r2,-28036
    1114:	1080050b 	ldhu	r2,20(r2)
    1118:	10bfffcc 	andi	r2,r2,65535
    111c:	1006917a 	slli	r3,r2,5
    1120:	00800134 	movhi	r2,4
    1124:	10a49f04 	addi	r2,r2,-28036
    1128:	1080030b 	ldhu	r2,12(r2)
    112c:	10bfffcc 	andi	r2,r2,65535
    1130:	100b883a 	mov	r5,r2
    1134:	1809883a 	mov	r4,r3
    1138:	00089a80 	call	89a8 <__divsi3>
    113c:	8087883a 	add	r3,r16,r2
    1140:	00800134 	movhi	r2,4
    1144:	10a49f04 	addi	r2,r2,-28036
    1148:	10c01415 	stw	r3,80(r2)
	    
		if (boot_sector_data.number_of_sectors_in_partition > 0)
    114c:	00800134 	movhi	r2,4
    1150:	10a49f04 	addi	r2,r2,-28036
    1154:	1080058b 	ldhu	r2,22(r2)
    1158:	10bfffcc 	andi	r2,r2,65535
    115c:	10000d26 	beq	r2,zero,1194 <Check_for_DOS_FAT+0x4b4>
		{
			num_clusters = (boot_sector_data.number_of_sectors_in_partition / boot_sector_data.sectors_per_cluster);
    1160:	00800134 	movhi	r2,4
    1164:	10a49f04 	addi	r2,r2,-28036
    1168:	1080058b 	ldhu	r2,22(r2)
    116c:	10ffffcc 	andi	r3,r2,65535
    1170:	00800134 	movhi	r2,4
    1174:	10a49f04 	addi	r2,r2,-28036
    1178:	10800383 	ldbu	r2,14(r2)
    117c:	10803fcc 	andi	r2,r2,255
    1180:	100b883a 	mov	r5,r2
    1184:	1809883a 	mov	r4,r3
    1188:	00089a80 	call	89a8 <__divsi3>
    118c:	e0bffc15 	stw	r2,-16(fp)
    1190:	00000b06 	br	11c0 <Check_for_DOS_FAT+0x4e0>
		}
		else
		{
			num_clusters = (boot_sector_data.total_sector_count_if_above_32MB / boot_sector_data.sectors_per_cluster);
    1194:	00800134 	movhi	r2,4
    1198:	10a49f04 	addi	r2,r2,-28036
    119c:	10c00917 	ldw	r3,36(r2)
    11a0:	00800134 	movhi	r2,4
    11a4:	10a49f04 	addi	r2,r2,-28036
    11a8:	10800383 	ldbu	r2,14(r2)
    11ac:	10803fcc 	andi	r2,r2,255
    11b0:	100b883a 	mov	r5,r2
    11b4:	1809883a 	mov	r4,r3
    11b8:	0008aa00 	call	8aa0 <__udivsi3>
    11bc:	e0bffc15 	stw	r2,-16(fp)
		}
		if (num_clusters < 4087)
    11c0:	e0bffc17 	ldw	r2,-16(fp)
    11c4:	1083fdc8 	cmpgei	r2,r2,4087
    11c8:	1000051e 	bne	r2,zero,11e0 <Check_for_DOS_FAT+0x500>
		{
			boot_sector_data.bits_for_cluster_index = 12;
    11cc:	00800134 	movhi	r2,4
    11d0:	10a49f04 	addi	r2,r2,-28036
    11d4:	00c00304 	movi	r3,12
    11d8:	10c01085 	stb	r3,66(r2)
    11dc:	00000c06 	br	1210 <Check_for_DOS_FAT+0x530>
		}
		else if (num_clusters <= 65517)
    11e0:	e0bffc17 	ldw	r2,-16(fp)
    11e4:	00fffb54 	movui	r3,65517
    11e8:	18800516 	blt	r3,r2,1200 <Check_for_DOS_FAT+0x520>
		{
			boot_sector_data.bits_for_cluster_index = 16;
    11ec:	00800134 	movhi	r2,4
    11f0:	10a49f04 	addi	r2,r2,-28036
    11f4:	00c00404 	movi	r3,16
    11f8:	10c01085 	stb	r3,66(r2)
    11fc:	00000406 	br	1210 <Check_for_DOS_FAT+0x530>
		}
		else
		{
			boot_sector_data.bits_for_cluster_index = 32;
    1200:	00800134 	movhi	r2,4
    1204:	10a49f04 	addi	r2,r2,-28036
    1208:	00c00804 	movi	r3,32
    120c:	10c01085 	stb	r3,66(r2)
		}
	    
		for (counter = 0; counter < 4; counter++)
    1210:	e03ffb15 	stw	zero,-20(fp)
    1214:	00001106 	br	125c <Check_for_DOS_FAT+0x57c>
		{
			boot_sector_data.volume_id[counter] = ((char) IORD_8DIRECT(device_pointer->base, 39+counter));
    1218:	d0aacc17 	ldw	r2,-21712(gp)
    121c:	10c00a17 	ldw	r3,40(r2)
    1220:	e0bffb17 	ldw	r2,-20(fp)
    1224:	1885883a 	add	r2,r3,r2
    1228:	108009c4 	addi	r2,r2,39
    122c:	10800023 	ldbuio	r2,0(r2)
    1230:	10803fcc 	andi	r2,r2,255
    1234:	1009883a 	mov	r4,r2
    1238:	00800134 	movhi	r2,4
    123c:	10a49f04 	addi	r2,r2,-28036
    1240:	e0fffb17 	ldw	r3,-20(fp)
    1244:	10c5883a 	add	r2,r2,r3
    1248:	10800ac4 	addi	r2,r2,43
    124c:	11000005 	stb	r4,0(r2)
		else
		{
			boot_sector_data.bits_for_cluster_index = 32;
		}
	    
		for (counter = 0; counter < 4; counter++)
    1250:	e0bffb17 	ldw	r2,-20(fp)
    1254:	10800044 	addi	r2,r2,1
    1258:	e0bffb15 	stw	r2,-20(fp)
    125c:	e0bffb17 	ldw	r2,-20(fp)
    1260:	10800110 	cmplti	r2,r2,4
    1264:	103fec1e 	bne	r2,zero,1218 <__alt_mem_onchip_memory+0xf7801218>
		{
			boot_sector_data.volume_id[counter] = ((char) IORD_8DIRECT(device_pointer->base, 39+counter));
		}    
		for (counter = 0; counter < 11; counter++)
    1268:	e03ffb15 	stw	zero,-20(fp)
    126c:	00001106 	br	12b4 <Check_for_DOS_FAT+0x5d4>
		{
			boot_sector_data.volume_label[counter] = ((char) IORD_8DIRECT(device_pointer->base, 43+counter));
    1270:	d0aacc17 	ldw	r2,-21712(gp)
    1274:	10c00a17 	ldw	r3,40(r2)
    1278:	e0bffb17 	ldw	r2,-20(fp)
    127c:	1885883a 	add	r2,r3,r2
    1280:	10800ac4 	addi	r2,r2,43
    1284:	10800023 	ldbuio	r2,0(r2)
    1288:	10803fcc 	andi	r2,r2,255
    128c:	1009883a 	mov	r4,r2
    1290:	00800134 	movhi	r2,4
    1294:	10a49f04 	addi	r2,r2,-28036
    1298:	e0fffb17 	ldw	r3,-20(fp)
    129c:	10c5883a 	add	r2,r2,r3
    12a0:	10800bc4 	addi	r2,r2,47
    12a4:	11000005 	stb	r4,0(r2)
	    
		for (counter = 0; counter < 4; counter++)
		{
			boot_sector_data.volume_id[counter] = ((char) IORD_8DIRECT(device_pointer->base, 39+counter));
		}    
		for (counter = 0; counter < 11; counter++)
    12a8:	e0bffb17 	ldw	r2,-20(fp)
    12ac:	10800044 	addi	r2,r2,1
    12b0:	e0bffb15 	stw	r2,-20(fp)
    12b4:	e0bffb17 	ldw	r2,-20(fp)
    12b8:	108002d0 	cmplti	r2,r2,11
    12bc:	103fec1e 	bne	r2,zero,1270 <__alt_mem_onchip_memory+0xf7801270>
		{
			boot_sector_data.volume_label[counter] = ((char) IORD_8DIRECT(device_pointer->base, 43+counter));
		}    
		for (counter = 0; counter < 8; counter++)
    12c0:	e03ffb15 	stw	zero,-20(fp)
    12c4:	00001106 	br	130c <Check_for_DOS_FAT+0x62c>
		{
			boot_sector_data.file_system_type[counter] = ((char) IORD_8DIRECT(device_pointer->base, 54+counter));
    12c8:	d0aacc17 	ldw	r2,-21712(gp)
    12cc:	10c00a17 	ldw	r3,40(r2)
    12d0:	e0bffb17 	ldw	r2,-20(fp)
    12d4:	1885883a 	add	r2,r3,r2
    12d8:	10800d84 	addi	r2,r2,54
    12dc:	10800023 	ldbuio	r2,0(r2)
    12e0:	10803fcc 	andi	r2,r2,255
    12e4:	1009883a 	mov	r4,r2
    12e8:	00800134 	movhi	r2,4
    12ec:	10a49f04 	addi	r2,r2,-28036
    12f0:	e0fffb17 	ldw	r3,-20(fp)
    12f4:	10c5883a 	add	r2,r2,r3
    12f8:	10800e84 	addi	r2,r2,58
    12fc:	11000005 	stb	r4,0(r2)
		}    
		for (counter = 0; counter < 11; counter++)
		{
			boot_sector_data.volume_label[counter] = ((char) IORD_8DIRECT(device_pointer->base, 43+counter));
		}    
		for (counter = 0; counter < 8; counter++)
    1300:	e0bffb17 	ldw	r2,-20(fp)
    1304:	10800044 	addi	r2,r2,1
    1308:	e0bffb15 	stw	r2,-20(fp)
    130c:	e0bffb17 	ldw	r2,-20(fp)
    1310:	10800210 	cmplti	r2,r2,8
    1314:	103fec1e 	bne	r2,zero,12c8 <__alt_mem_onchip_memory+0xf78012c8>
		{
			boot_sector_data.file_system_type[counter] = ((char) IORD_8DIRECT(device_pointer->base, 54+counter));
		}    
		// Clear file records
		for (counter = 0; counter < MAX_FILES_OPENED; counter++)
    1318:	e03ffb15 	stw	zero,-20(fp)
    131c:	00000a06 	br	1348 <Check_for_DOS_FAT+0x668>
		{
			active_files[counter].in_use = false;
    1320:	00800134 	movhi	r2,4
    1324:	10a4b404 	addi	r2,r2,-27952
    1328:	e0fffb17 	ldw	r3,-20(fp)
    132c:	180691ba 	slli	r3,r3,6
    1330:	10c5883a 	add	r2,r2,r3
    1334:	10800f04 	addi	r2,r2,60
    1338:	10000015 	stw	zero,0(r2)
		for (counter = 0; counter < 8; counter++)
		{
			boot_sector_data.file_system_type[counter] = ((char) IORD_8DIRECT(device_pointer->base, 54+counter));
		}    
		// Clear file records
		for (counter = 0; counter < MAX_FILES_OPENED; counter++)
    133c:	e0bffb17 	ldw	r2,-20(fp)
    1340:	10800044 	addi	r2,r2,1
    1344:	e0bffb15 	stw	r2,-20(fp)
    1348:	e0bffb17 	ldw	r2,-20(fp)
    134c:	10800510 	cmplti	r2,r2,20
    1350:	103ff31e 	bne	r2,zero,1320 <__alt_mem_onchip_memory+0xf7801320>
		{
			active_files[counter].in_use = false;
		}
		result = true;
    1354:	00800044 	movi	r2,1
    1358:	e0bffa15 	stw	r2,-24(fp)
	short int end;

	result = Read_Sector_Data(0, FAT_partition_start_sector);
	end =  (short int) IORD_16DIRECT(device_pointer->base, 0x1fe);
	if (((end & 0x0000ffff) == 0x0000aa55) && (result))
	{
    135c:	00000106 	br	1364 <Check_for_DOS_FAT+0x684>
		}
		result = true;
	}
    else
    {
        result = false;
    1360:	e03ffa15 	stw	zero,-24(fp)
    }
	return result;
    1364:	e0bffa17 	ldw	r2,-24(fp)
}
    1368:	e6ffff04 	addi	sp,fp,-4
    136c:	dfc00217 	ldw	ra,8(sp)
    1370:	df000117 	ldw	fp,4(sp)
    1374:	dc000017 	ldw	r16,0(sp)
    1378:	dec00304 	addi	sp,sp,12
    137c:	f800283a 	ret

00001380 <Look_for_FAT16>:


bool Look_for_FAT16(void)
// Read the SD card to determine if it contains a FAT16 partition.
{
    1380:	defffc04 	addi	sp,sp,-16
    1384:	dfc00315 	stw	ra,12(sp)
    1388:	df000215 	stw	fp,8(sp)
    138c:	df000204 	addi	fp,sp,8
	bool result = false;
    1390:	e03ffe15 	stw	zero,-8(fp)

	if (alt_up_sd_card_is_Present())
    1394:	00030500 	call	3050 <alt_up_sd_card_is_Present>
    1398:	10002e26 	beq	r2,zero,1454 <Look_for_FAT16+0xd4>
	{
		short int csd_file_format = *CSD_register_w0;
    139c:	d0aac617 	ldw	r2,-21736(gp)
    13a0:	1080000b 	ldhu	r2,0(r2)
    13a4:	e0bfff0d 	sth	r2,-4(fp)
        
		fat_partition_offset_in_512_byte_sectors = 0;
    13a8:	d02aca15 	stw	zero,-21720(gp)
		fat_partition_size_in_512_byte_sectors = 0;              
    13ac:	d02acb15 	stw	zero,-21716(gp)

		if (((csd_file_format & 0x8000) == 0) && ((csd_file_format & 0x0c00) != 0x0c00))
    13b0:	e0bfff0f 	ldh	r2,-4(fp)
    13b4:	10002716 	blt	r2,zero,1454 <Look_for_FAT16+0xd4>
    13b8:	e0bfff0b 	ldhu	r2,-4(fp)
    13bc:	10bfffcc 	andi	r2,r2,65535
    13c0:	1083000c 	andi	r2,r2,3072
    13c4:	10830020 	cmpeqi	r2,r2,3072
    13c8:	1000221e 	bne	r2,zero,1454 <Look_for_FAT16+0xd4>
		{
			if ((csd_file_format & 0x0c00) == 0x0400)
    13cc:	e0bfff0b 	ldhu	r2,-4(fp)
    13d0:	10bfffcc 	andi	r2,r2,65535
    13d4:	1083000c 	andi	r2,r2,3072
    13d8:	10810018 	cmpnei	r2,r2,1024
    13dc:	1000031e 	bne	r2,zero,13ec <Look_for_FAT16+0x6c>
			{
				/* SD Card contains files stored in a DOS FAT (floppy like) file format, without a partition table */
				result = Check_for_DOS_FAT(0);
    13e0:	0009883a 	mov	r4,zero
    13e4:	0000ce00 	call	ce0 <Check_for_DOS_FAT>
    13e8:	e0bffe15 	stw	r2,-8(fp)
			}
			if ((csd_file_format & 0x0c00) == 0x0000)
    13ec:	e0bfff0b 	ldhu	r2,-4(fp)
    13f0:	10bfffcc 	andi	r2,r2,65535
    13f4:	1083000c 	andi	r2,r2,3072
    13f8:	1000061e 	bne	r2,zero,1414 <Look_for_FAT16+0x94>
			{
				/* SD Card contains files stored in a Hard disk-like file format that contains a partition table */
				if (Check_for_Master_Boot_Record())
    13fc:	00006340 	call	634 <Check_for_Master_Boot_Record>
    1400:	10000426 	beq	r2,zero,1414 <Look_for_FAT16+0x94>
				{
					result = Check_for_DOS_FAT(fat_partition_offset_in_512_byte_sectors);
    1404:	d0aaca17 	ldw	r2,-21720(gp)
    1408:	1009883a 	mov	r4,r2
    140c:	0000ce00 	call	ce0 <Check_for_DOS_FAT>
    1410:	e0bffe15 	stw	r2,-8(fp)
				}                        
			}
			if (result == true)
    1414:	e0bffe17 	ldw	r2,-8(fp)
    1418:	10800058 	cmpnei	r2,r2,1
    141c:	10000d1e 	bne	r2,zero,1454 <Look_for_FAT16+0xd4>
			{
				// Accept only FAT16, not FAT12.
				if (boot_sector_data.bits_for_cluster_index != 16)
    1420:	00800134 	movhi	r2,4
    1424:	10a49f04 	addi	r2,r2,-28036
    1428:	10801083 	ldbu	r2,66(r2)
    142c:	10803fcc 	andi	r2,r2,255
    1430:	10800420 	cmpeqi	r2,r2,16
    1434:	1000021e 	bne	r2,zero,1440 <Look_for_FAT16+0xc0>
				{
					result = false;
    1438:	e03ffe15 	stw	zero,-8(fp)
    143c:	00000506 	br	1454 <Look_for_FAT16+0xd4>
				}
				else
				{
					fat_partition_size_in_512_byte_sectors = boot_sector_data.number_of_sectors_in_partition;
    1440:	00800134 	movhi	r2,4
    1444:	10a49f04 	addi	r2,r2,-28036
    1448:	1080058b 	ldhu	r2,22(r2)
    144c:	10bfffcc 	andi	r2,r2,65535
    1450:	d0aacb15 	stw	r2,-21716(gp)
				}
			}
		}
	}
	return result;
    1454:	e0bffe17 	ldw	r2,-8(fp)
}
    1458:	e037883a 	mov	sp,fp
    145c:	dfc00117 	ldw	ra,4(sp)
    1460:	df000017 	ldw	fp,0(sp)
    1464:	dec00204 	addi	sp,sp,8
    1468:	f800283a 	ret

0000146c <filename_to_upper_case>:
 

void filename_to_upper_case(char *file_name)
// Change file name to upper case.
{
    146c:	defffb04 	addi	sp,sp,-20
    1470:	dfc00415 	stw	ra,16(sp)
    1474:	df000315 	stw	fp,12(sp)
    1478:	df000304 	addi	fp,sp,12
    147c:	e13fff15 	stw	r4,-4(fp)
    int index;
    int length = strlen(file_name);
    1480:	e13fff17 	ldw	r4,-4(fp)
    1484:	000b4400 	call	b440 <strlen>
    1488:	e0bffe15 	stw	r2,-8(fp)
    
    for (index = 0; index < length; index++)
    148c:	e03ffd15 	stw	zero,-12(fp)
    1490:	00001e06 	br	150c <filename_to_upper_case+0xa0>
    {
        if ((file_name[index] >= 'a') && (file_name[index] <= 'z'))
    1494:	e0bffd17 	ldw	r2,-12(fp)
    1498:	e0ffff17 	ldw	r3,-4(fp)
    149c:	1885883a 	add	r2,r3,r2
    14a0:	10800003 	ldbu	r2,0(r2)
    14a4:	10803fcc 	andi	r2,r2,255
    14a8:	1080201c 	xori	r2,r2,128
    14ac:	10bfe004 	addi	r2,r2,-128
    14b0:	10801850 	cmplti	r2,r2,97
    14b4:	1000121e 	bne	r2,zero,1500 <filename_to_upper_case+0x94>
    14b8:	e0bffd17 	ldw	r2,-12(fp)
    14bc:	e0ffff17 	ldw	r3,-4(fp)
    14c0:	1885883a 	add	r2,r3,r2
    14c4:	10800003 	ldbu	r2,0(r2)
    14c8:	10803fcc 	andi	r2,r2,255
    14cc:	1080201c 	xori	r2,r2,128
    14d0:	10bfe004 	addi	r2,r2,-128
    14d4:	10801ec8 	cmpgei	r2,r2,123
    14d8:	1000091e 	bne	r2,zero,1500 <filename_to_upper_case+0x94>
        {
            file_name[index] = (file_name[index] - 'a') + 'A';
    14dc:	e0bffd17 	ldw	r2,-12(fp)
    14e0:	e0ffff17 	ldw	r3,-4(fp)
    14e4:	1885883a 	add	r2,r3,r2
    14e8:	e0fffd17 	ldw	r3,-12(fp)
    14ec:	e13fff17 	ldw	r4,-4(fp)
    14f0:	20c7883a 	add	r3,r4,r3
    14f4:	18c00003 	ldbu	r3,0(r3)
    14f8:	18fff804 	addi	r3,r3,-32
    14fc:	10c00005 	stb	r3,0(r2)
// Change file name to upper case.
{
    int index;
    int length = strlen(file_name);
    
    for (index = 0; index < length; index++)
    1500:	e0bffd17 	ldw	r2,-12(fp)
    1504:	10800044 	addi	r2,r2,1
    1508:	e0bffd15 	stw	r2,-12(fp)
    150c:	e0fffd17 	ldw	r3,-12(fp)
    1510:	e0bffe17 	ldw	r2,-8(fp)
    1514:	18bfdf16 	blt	r3,r2,1494 <__alt_mem_onchip_memory+0xf7801494>
        if ((file_name[index] >= 'a') && (file_name[index] <= 'z'))
        {
            file_name[index] = (file_name[index] - 'a') + 'A';
        }
    }
}
    1518:	0001883a 	nop
    151c:	e037883a 	mov	sp,fp
    1520:	dfc00117 	ldw	ra,4(sp)
    1524:	df000017 	ldw	fp,0(sp)
    1528:	dec00204 	addi	sp,sp,8
    152c:	f800283a 	ret

00001530 <check_file_name_for_FAT16_compliance>:


bool check_file_name_for_FAT16_compliance(char *file_name)
// Check if the file complies with FAT16 naming convention.
{
    1530:	defff804 	addi	sp,sp,-32
    1534:	dfc00715 	stw	ra,28(sp)
    1538:	df000615 	stw	fp,24(sp)
    153c:	df000604 	addi	fp,sp,24
    1540:	e13fff15 	stw	r4,-4(fp)
    int length = strlen(file_name);
    1544:	e13fff17 	ldw	r4,-4(fp)
    1548:	000b4400 	call	b440 <strlen>
    154c:	e0bffe15 	stw	r2,-8(fp)
    int index;
    int last_dir_break_position = -1;
    1550:	00bfffc4 	movi	r2,-1
    1554:	e0bffb15 	stw	r2,-20(fp)
    int last_period = -1;
    1558:	00bfffc4 	movi	r2,-1
    155c:	e0bffc15 	stw	r2,-16(fp)
    bool result = true;
    1560:	00800044 	movi	r2,1
    1564:	e0bffd15 	stw	r2,-12(fp)
    
    for(index = 0; index < length; index++)
    1568:	e03ffa15 	stw	zero,-24(fp)
    156c:	00006d06 	br	1724 <check_file_name_for_FAT16_compliance+0x1f4>
    {
        if ((file_name[index] == ' ') ||
    1570:	e0bffa17 	ldw	r2,-24(fp)
    1574:	e0ffff17 	ldw	r3,-4(fp)
    1578:	1885883a 	add	r2,r3,r2
    157c:	10800003 	ldbu	r2,0(r2)
    1580:	10803fcc 	andi	r2,r2,255
    1584:	1080201c 	xori	r2,r2,128
    1588:	10bfe004 	addi	r2,r2,-128
    158c:	10800820 	cmpeqi	r2,r2,32
    1590:	10003e1e 	bne	r2,zero,168c <check_file_name_for_FAT16_compliance+0x15c>
            ((last_dir_break_position == (index - 1)) && ((file_name[index] == '\\') || (file_name[index] == '/'))) ||
    1594:	e0bffa17 	ldw	r2,-24(fp)
    1598:	10ffffc4 	addi	r3,r2,-1
    int last_period = -1;
    bool result = true;
    
    for(index = 0; index < length; index++)
    {
        if ((file_name[index] == ' ') ||
    159c:	e0bffb17 	ldw	r2,-20(fp)
    15a0:	1880121e 	bne	r3,r2,15ec <check_file_name_for_FAT16_compliance+0xbc>
            ((last_dir_break_position == (index - 1)) && ((file_name[index] == '\\') || (file_name[index] == '/'))) ||
    15a4:	e0bffa17 	ldw	r2,-24(fp)
    15a8:	e0ffff17 	ldw	r3,-4(fp)
    15ac:	1885883a 	add	r2,r3,r2
    15b0:	10800003 	ldbu	r2,0(r2)
    15b4:	10803fcc 	andi	r2,r2,255
    15b8:	1080201c 	xori	r2,r2,128
    15bc:	10bfe004 	addi	r2,r2,-128
    15c0:	10801720 	cmpeqi	r2,r2,92
    15c4:	1000311e 	bne	r2,zero,168c <check_file_name_for_FAT16_compliance+0x15c>
    15c8:	e0bffa17 	ldw	r2,-24(fp)
    15cc:	e0ffff17 	ldw	r3,-4(fp)
    15d0:	1885883a 	add	r2,r3,r2
    15d4:	10800003 	ldbu	r2,0(r2)
    15d8:	10803fcc 	andi	r2,r2,255
    15dc:	1080201c 	xori	r2,r2,128
    15e0:	10bfe004 	addi	r2,r2,-128
    15e4:	10800be0 	cmpeqi	r2,r2,47
    15e8:	1000281e 	bne	r2,zero,168c <check_file_name_for_FAT16_compliance+0x15c>
            ((index - last_period == 9) && (file_name[index] != '.')) ||
    15ec:	e0fffa17 	ldw	r3,-24(fp)
    15f0:	e0bffc17 	ldw	r2,-16(fp)
    15f4:	1885c83a 	sub	r2,r3,r2
    bool result = true;
    
    for(index = 0; index < length; index++)
    {
        if ((file_name[index] == ' ') ||
            ((last_dir_break_position == (index - 1)) && ((file_name[index] == '\\') || (file_name[index] == '/'))) ||
    15f8:	10800258 	cmpnei	r2,r2,9
    15fc:	1000091e 	bne	r2,zero,1624 <check_file_name_for_FAT16_compliance+0xf4>
            ((index - last_period == 9) && (file_name[index] != '.')) ||
    1600:	e0bffa17 	ldw	r2,-24(fp)
    1604:	e0ffff17 	ldw	r3,-4(fp)
    1608:	1885883a 	add	r2,r3,r2
    160c:	10800003 	ldbu	r2,0(r2)
    1610:	10803fcc 	andi	r2,r2,255
    1614:	1080201c 	xori	r2,r2,128
    1618:	10bfe004 	addi	r2,r2,-128
    161c:	10800b98 	cmpnei	r2,r2,46
    1620:	10001a1e 	bne	r2,zero,168c <check_file_name_for_FAT16_compliance+0x15c>
    1624:	e0fffb17 	ldw	r3,-20(fp)
    1628:	e0bffc17 	ldw	r2,-16(fp)
    162c:	18801926 	beq	r3,r2,1694 <check_file_name_for_FAT16_compliance+0x164>
            ((last_dir_break_position != last_period) && (index - last_period > 3) &&
    1630:	e0fffa17 	ldw	r3,-24(fp)
    1634:	e0bffc17 	ldw	r2,-16(fp)
    1638:	1885c83a 	sub	r2,r3,r2
    163c:	10800110 	cmplti	r2,r2,4
    1640:	1000141e 	bne	r2,zero,1694 <check_file_name_for_FAT16_compliance+0x164>
             (file_name[index] != '\\') && (file_name[index] != '/'))
    1644:	e0bffa17 	ldw	r2,-24(fp)
    1648:	e0ffff17 	ldw	r3,-4(fp)
    164c:	1885883a 	add	r2,r3,r2
    1650:	10800003 	ldbu	r2,0(r2)
    for(index = 0; index < length; index++)
    {
        if ((file_name[index] == ' ') ||
            ((last_dir_break_position == (index - 1)) && ((file_name[index] == '\\') || (file_name[index] == '/'))) ||
            ((index - last_period == 9) && (file_name[index] != '.')) ||
            ((last_dir_break_position != last_period) && (index - last_period > 3) &&
    1654:	10803fcc 	andi	r2,r2,255
    1658:	1080201c 	xori	r2,r2,128
    165c:	10bfe004 	addi	r2,r2,-128
    1660:	10801720 	cmpeqi	r2,r2,92
    1664:	10000b1e 	bne	r2,zero,1694 <check_file_name_for_FAT16_compliance+0x164>
             (file_name[index] != '\\') && (file_name[index] != '/'))
    1668:	e0bffa17 	ldw	r2,-24(fp)
    166c:	e0ffff17 	ldw	r3,-4(fp)
    1670:	1885883a 	add	r2,r3,r2
    1674:	10800003 	ldbu	r2,0(r2)
    1678:	10803fcc 	andi	r2,r2,255
    167c:	1080201c 	xori	r2,r2,128
    1680:	10bfe004 	addi	r2,r2,-128
    1684:	10800be0 	cmpeqi	r2,r2,47
    1688:	1000021e 	bne	r2,zero,1694 <check_file_name_for_FAT16_compliance+0x164>
           )
        {
            result = false;
    168c:	e03ffd15 	stw	zero,-12(fp)
            break;
    1690:	00002706 	br	1730 <check_file_name_for_FAT16_compliance+0x200>
        }
        if ((file_name[index] == '\\') || (file_name[index] == '/'))
    1694:	e0bffa17 	ldw	r2,-24(fp)
    1698:	e0ffff17 	ldw	r3,-4(fp)
    169c:	1885883a 	add	r2,r3,r2
    16a0:	10800003 	ldbu	r2,0(r2)
    16a4:	10803fcc 	andi	r2,r2,255
    16a8:	1080201c 	xori	r2,r2,128
    16ac:	10bfe004 	addi	r2,r2,-128
    16b0:	10801720 	cmpeqi	r2,r2,92
    16b4:	1000091e 	bne	r2,zero,16dc <check_file_name_for_FAT16_compliance+0x1ac>
    16b8:	e0bffa17 	ldw	r2,-24(fp)
    16bc:	e0ffff17 	ldw	r3,-4(fp)
    16c0:	1885883a 	add	r2,r3,r2
    16c4:	10800003 	ldbu	r2,0(r2)
    16c8:	10803fcc 	andi	r2,r2,255
    16cc:	1080201c 	xori	r2,r2,128
    16d0:	10bfe004 	addi	r2,r2,-128
    16d4:	10800bd8 	cmpnei	r2,r2,47
    16d8:	1000041e 	bne	r2,zero,16ec <check_file_name_for_FAT16_compliance+0x1bc>
        {
            last_period = index;
    16dc:	e0bffa17 	ldw	r2,-24(fp)
    16e0:	e0bffc15 	stw	r2,-16(fp)
            last_dir_break_position = index;
    16e4:	e0bffa17 	ldw	r2,-24(fp)
    16e8:	e0bffb15 	stw	r2,-20(fp)
        }
        if (file_name[index] == '.')
    16ec:	e0bffa17 	ldw	r2,-24(fp)
    16f0:	e0ffff17 	ldw	r3,-4(fp)
    16f4:	1885883a 	add	r2,r3,r2
    16f8:	10800003 	ldbu	r2,0(r2)
    16fc:	10803fcc 	andi	r2,r2,255
    1700:	1080201c 	xori	r2,r2,128
    1704:	10bfe004 	addi	r2,r2,-128
    1708:	10800b98 	cmpnei	r2,r2,46
    170c:	1000021e 	bne	r2,zero,1718 <check_file_name_for_FAT16_compliance+0x1e8>
        {
            last_period = index;
    1710:	e0bffa17 	ldw	r2,-24(fp)
    1714:	e0bffc15 	stw	r2,-16(fp)
    int index;
    int last_dir_break_position = -1;
    int last_period = -1;
    bool result = true;
    
    for(index = 0; index < length; index++)
    1718:	e0bffa17 	ldw	r2,-24(fp)
    171c:	10800044 	addi	r2,r2,1
    1720:	e0bffa15 	stw	r2,-24(fp)
    1724:	e0fffa17 	ldw	r3,-24(fp)
    1728:	e0bffe17 	ldw	r2,-8(fp)
    172c:	18bf9016 	blt	r3,r2,1570 <__alt_mem_onchip_memory+0xf7801570>
        if (file_name[index] == '.')
        {
            last_period = index;
        }
    }
    if ((file_name[length-1] == '\\') || (file_name[length-1] == '/'))
    1730:	e0bffe17 	ldw	r2,-8(fp)
    1734:	10bfffc4 	addi	r2,r2,-1
    1738:	e0ffff17 	ldw	r3,-4(fp)
    173c:	1885883a 	add	r2,r3,r2
    1740:	10800003 	ldbu	r2,0(r2)
    1744:	10803fcc 	andi	r2,r2,255
    1748:	1080201c 	xori	r2,r2,128
    174c:	10bfe004 	addi	r2,r2,-128
    1750:	10801720 	cmpeqi	r2,r2,92
    1754:	10000a1e 	bne	r2,zero,1780 <check_file_name_for_FAT16_compliance+0x250>
    1758:	e0bffe17 	ldw	r2,-8(fp)
    175c:	10bfffc4 	addi	r2,r2,-1
    1760:	e0ffff17 	ldw	r3,-4(fp)
    1764:	1885883a 	add	r2,r3,r2
    1768:	10800003 	ldbu	r2,0(r2)
    176c:	10803fcc 	andi	r2,r2,255
    1770:	1080201c 	xori	r2,r2,128
    1774:	10bfe004 	addi	r2,r2,-128
    1778:	10800bd8 	cmpnei	r2,r2,47
    177c:	1000011e 	bne	r2,zero,1784 <check_file_name_for_FAT16_compliance+0x254>
    {
        result = false;
    1780:	e03ffd15 	stw	zero,-12(fp)
    }
    return result;
    1784:	e0bffd17 	ldw	r2,-12(fp)
}
    1788:	e037883a 	mov	sp,fp
    178c:	dfc00117 	ldw	ra,4(sp)
    1790:	df000017 	ldw	fp,0(sp)
    1794:	dec00204 	addi	sp,sp,8
    1798:	f800283a 	ret

0000179c <get_dir_divider_location>:


int get_dir_divider_location(char *name)
// Find a directory divider location.
{
    179c:	defffb04 	addi	sp,sp,-20
    17a0:	dfc00415 	stw	ra,16(sp)
    17a4:	df000315 	stw	fp,12(sp)
    17a8:	df000304 	addi	fp,sp,12
    17ac:	e13fff15 	stw	r4,-4(fp)
    int index = 0;
    17b0:	e03ffd15 	stw	zero,-12(fp)
    int length = strlen(name);
    17b4:	e13fff17 	ldw	r4,-4(fp)
    17b8:	000b4400 	call	b440 <strlen>
    17bc:	e0bffe15 	stw	r2,-8(fp)
    
    for(index = 0; index < length; index++)
    17c0:	e03ffd15 	stw	zero,-12(fp)
    17c4:	00001506 	br	181c <get_dir_divider_location+0x80>
    {
        if ((name[index] == '\\') || (name[index] == '/'))
    17c8:	e0bffd17 	ldw	r2,-12(fp)
    17cc:	e0ffff17 	ldw	r3,-4(fp)
    17d0:	1885883a 	add	r2,r3,r2
    17d4:	10800003 	ldbu	r2,0(r2)
    17d8:	10803fcc 	andi	r2,r2,255
    17dc:	1080201c 	xori	r2,r2,128
    17e0:	10bfe004 	addi	r2,r2,-128
    17e4:	10801720 	cmpeqi	r2,r2,92
    17e8:	10000f1e 	bne	r2,zero,1828 <get_dir_divider_location+0x8c>
    17ec:	e0bffd17 	ldw	r2,-12(fp)
    17f0:	e0ffff17 	ldw	r3,-4(fp)
    17f4:	1885883a 	add	r2,r3,r2
    17f8:	10800003 	ldbu	r2,0(r2)
    17fc:	10803fcc 	andi	r2,r2,255
    1800:	1080201c 	xori	r2,r2,128
    1804:	10bfe004 	addi	r2,r2,-128
    1808:	10800be0 	cmpeqi	r2,r2,47
    180c:	1000061e 	bne	r2,zero,1828 <get_dir_divider_location+0x8c>
// Find a directory divider location.
{
    int index = 0;
    int length = strlen(name);
    
    for(index = 0; index < length; index++)
    1810:	e0bffd17 	ldw	r2,-12(fp)
    1814:	10800044 	addi	r2,r2,1
    1818:	e0bffd15 	stw	r2,-12(fp)
    181c:	e0fffd17 	ldw	r3,-12(fp)
    1820:	e0bffe17 	ldw	r2,-8(fp)
    1824:	18bfe816 	blt	r3,r2,17c8 <__alt_mem_onchip_memory+0xf78017c8>
        {
            break;
        }
    }
    
    if (index == length)
    1828:	e0fffd17 	ldw	r3,-12(fp)
    182c:	e0bffe17 	ldw	r2,-8(fp)
    1830:	1880021e 	bne	r3,r2,183c <get_dir_divider_location+0xa0>
    {
        index = -1;
    1834:	00bfffc4 	movi	r2,-1
    1838:	e0bffd15 	stw	r2,-12(fp)
    }
    
    return index;
    183c:	e0bffd17 	ldw	r2,-12(fp)
}
    1840:	e037883a 	mov	sp,fp
    1844:	dfc00117 	ldw	ra,4(sp)
    1848:	df000017 	ldw	fp,0(sp)
    184c:	dec00204 	addi	sp,sp,8
    1850:	f800283a 	ret

00001854 <match_file_record_to_name_ext>:


bool match_file_record_to_name_ext(t_file_record *file_record, char *name, char *extension)
/* See if the given name and extension match the file record. Return true if this is so, false otherwise. */
{
    1854:	defffa04 	addi	sp,sp,-24
    1858:	df000515 	stw	fp,20(sp)
    185c:	df000504 	addi	fp,sp,20
    1860:	e13ffd15 	stw	r4,-12(fp)
    1864:	e17ffe15 	stw	r5,-8(fp)
    1868:	e1bfff15 	stw	r6,-4(fp)
    bool match = true;
    186c:	00800044 	movi	r2,1
    1870:	e0bffb15 	stw	r2,-20(fp)
	int index;

    for (index = 0; index < 8; index++)
    1874:	e03ffc15 	stw	zero,-16(fp)
    1878:	00004606 	br	1994 <match_file_record_to_name_ext+0x140>
    {
        if (CHAR_TO_UPPER(file_record->name[index]) != CHAR_TO_UPPER(name[index]))
    187c:	e0fffd17 	ldw	r3,-12(fp)
    1880:	e0bffc17 	ldw	r2,-16(fp)
    1884:	1885883a 	add	r2,r3,r2
    1888:	10800003 	ldbu	r2,0(r2)
    188c:	10803fcc 	andi	r2,r2,255
    1890:	10801870 	cmpltui	r2,r2,97
    1894:	1000101e 	bne	r2,zero,18d8 <match_file_record_to_name_ext+0x84>
    1898:	e0fffd17 	ldw	r3,-12(fp)
    189c:	e0bffc17 	ldw	r2,-16(fp)
    18a0:	1885883a 	add	r2,r3,r2
    18a4:	10800003 	ldbu	r2,0(r2)
    18a8:	10803fcc 	andi	r2,r2,255
    18ac:	10801ee8 	cmpgeui	r2,r2,123
    18b0:	1000091e 	bne	r2,zero,18d8 <match_file_record_to_name_ext+0x84>
    18b4:	e0fffd17 	ldw	r3,-12(fp)
    18b8:	e0bffc17 	ldw	r2,-16(fp)
    18bc:	1885883a 	add	r2,r3,r2
    18c0:	10800003 	ldbu	r2,0(r2)
    18c4:	10bff804 	addi	r2,r2,-32
    18c8:	10c03fcc 	andi	r3,r2,255
    18cc:	18c0201c 	xori	r3,r3,128
    18d0:	18ffe004 	addi	r3,r3,-128
    18d4:	00000706 	br	18f4 <match_file_record_to_name_ext+0xa0>
    18d8:	e0fffd17 	ldw	r3,-12(fp)
    18dc:	e0bffc17 	ldw	r2,-16(fp)
    18e0:	1885883a 	add	r2,r3,r2
    18e4:	10800003 	ldbu	r2,0(r2)
    18e8:	10c03fcc 	andi	r3,r2,255
    18ec:	18c0201c 	xori	r3,r3,128
    18f0:	18ffe004 	addi	r3,r3,-128
    18f4:	e0bffc17 	ldw	r2,-16(fp)
    18f8:	e13ffe17 	ldw	r4,-8(fp)
    18fc:	2085883a 	add	r2,r4,r2
    1900:	10800003 	ldbu	r2,0(r2)
    1904:	10803fcc 	andi	r2,r2,255
    1908:	1080201c 	xori	r2,r2,128
    190c:	10bfe004 	addi	r2,r2,-128
    1910:	10801850 	cmplti	r2,r2,97
    1914:	1000121e 	bne	r2,zero,1960 <match_file_record_to_name_ext+0x10c>
    1918:	e0bffc17 	ldw	r2,-16(fp)
    191c:	e13ffe17 	ldw	r4,-8(fp)
    1920:	2085883a 	add	r2,r4,r2
    1924:	10800003 	ldbu	r2,0(r2)
    1928:	10803fcc 	andi	r2,r2,255
    192c:	1080201c 	xori	r2,r2,128
    1930:	10bfe004 	addi	r2,r2,-128
    1934:	10801ec8 	cmpgei	r2,r2,123
    1938:	1000091e 	bne	r2,zero,1960 <match_file_record_to_name_ext+0x10c>
    193c:	e0bffc17 	ldw	r2,-16(fp)
    1940:	e13ffe17 	ldw	r4,-8(fp)
    1944:	2085883a 	add	r2,r4,r2
    1948:	10800003 	ldbu	r2,0(r2)
    194c:	10bff804 	addi	r2,r2,-32
    1950:	10803fcc 	andi	r2,r2,255
    1954:	1080201c 	xori	r2,r2,128
    1958:	10bfe004 	addi	r2,r2,-128
    195c:	00000706 	br	197c <match_file_record_to_name_ext+0x128>
    1960:	e0bffc17 	ldw	r2,-16(fp)
    1964:	e13ffe17 	ldw	r4,-8(fp)
    1968:	2085883a 	add	r2,r4,r2
    196c:	10800003 	ldbu	r2,0(r2)
    1970:	10803fcc 	andi	r2,r2,255
    1974:	1080201c 	xori	r2,r2,128
    1978:	10bfe004 	addi	r2,r2,-128
    197c:	18800226 	beq	r3,r2,1988 <match_file_record_to_name_ext+0x134>
        {
            match = false;
    1980:	e03ffb15 	stw	zero,-20(fp)
			break;
    1984:	00000606 	br	19a0 <match_file_record_to_name_ext+0x14c>
/* See if the given name and extension match the file record. Return true if this is so, false otherwise. */
{
    bool match = true;
	int index;

    for (index = 0; index < 8; index++)
    1988:	e0bffc17 	ldw	r2,-16(fp)
    198c:	10800044 	addi	r2,r2,1
    1990:	e0bffc15 	stw	r2,-16(fp)
    1994:	e0bffc17 	ldw	r2,-16(fp)
    1998:	10800210 	cmplti	r2,r2,8
    199c:	103fb71e 	bne	r2,zero,187c <__alt_mem_onchip_memory+0xf780187c>
        {
            match = false;
			break;
        }
    }
    for (index = 0; index < 3; index++)
    19a0:	e03ffc15 	stw	zero,-16(fp)
    19a4:	00004a06 	br	1ad0 <match_file_record_to_name_ext+0x27c>
    {
        if (CHAR_TO_UPPER(file_record->extension[index]) != CHAR_TO_UPPER(extension[index]))
    19a8:	e0fffd17 	ldw	r3,-12(fp)
    19ac:	e0bffc17 	ldw	r2,-16(fp)
    19b0:	1885883a 	add	r2,r3,r2
    19b4:	10800204 	addi	r2,r2,8
    19b8:	10800003 	ldbu	r2,0(r2)
    19bc:	10803fcc 	andi	r2,r2,255
    19c0:	10801870 	cmpltui	r2,r2,97
    19c4:	1000121e 	bne	r2,zero,1a10 <match_file_record_to_name_ext+0x1bc>
    19c8:	e0fffd17 	ldw	r3,-12(fp)
    19cc:	e0bffc17 	ldw	r2,-16(fp)
    19d0:	1885883a 	add	r2,r3,r2
    19d4:	10800204 	addi	r2,r2,8
    19d8:	10800003 	ldbu	r2,0(r2)
    19dc:	10803fcc 	andi	r2,r2,255
    19e0:	10801ee8 	cmpgeui	r2,r2,123
    19e4:	10000a1e 	bne	r2,zero,1a10 <match_file_record_to_name_ext+0x1bc>
    19e8:	e0fffd17 	ldw	r3,-12(fp)
    19ec:	e0bffc17 	ldw	r2,-16(fp)
    19f0:	1885883a 	add	r2,r3,r2
    19f4:	10800204 	addi	r2,r2,8
    19f8:	10800003 	ldbu	r2,0(r2)
    19fc:	10bff804 	addi	r2,r2,-32
    1a00:	10c03fcc 	andi	r3,r2,255
    1a04:	18c0201c 	xori	r3,r3,128
    1a08:	18ffe004 	addi	r3,r3,-128
    1a0c:	00000806 	br	1a30 <match_file_record_to_name_ext+0x1dc>
    1a10:	e0fffd17 	ldw	r3,-12(fp)
    1a14:	e0bffc17 	ldw	r2,-16(fp)
    1a18:	1885883a 	add	r2,r3,r2
    1a1c:	10800204 	addi	r2,r2,8
    1a20:	10800003 	ldbu	r2,0(r2)
    1a24:	10c03fcc 	andi	r3,r2,255
    1a28:	18c0201c 	xori	r3,r3,128
    1a2c:	18ffe004 	addi	r3,r3,-128
    1a30:	e0bffc17 	ldw	r2,-16(fp)
    1a34:	e13fff17 	ldw	r4,-4(fp)
    1a38:	2085883a 	add	r2,r4,r2
    1a3c:	10800003 	ldbu	r2,0(r2)
    1a40:	10803fcc 	andi	r2,r2,255
    1a44:	1080201c 	xori	r2,r2,128
    1a48:	10bfe004 	addi	r2,r2,-128
    1a4c:	10801850 	cmplti	r2,r2,97
    1a50:	1000121e 	bne	r2,zero,1a9c <match_file_record_to_name_ext+0x248>
    1a54:	e0bffc17 	ldw	r2,-16(fp)
    1a58:	e13fff17 	ldw	r4,-4(fp)
    1a5c:	2085883a 	add	r2,r4,r2
    1a60:	10800003 	ldbu	r2,0(r2)
    1a64:	10803fcc 	andi	r2,r2,255
    1a68:	1080201c 	xori	r2,r2,128
    1a6c:	10bfe004 	addi	r2,r2,-128
    1a70:	10801ec8 	cmpgei	r2,r2,123
    1a74:	1000091e 	bne	r2,zero,1a9c <match_file_record_to_name_ext+0x248>
    1a78:	e0bffc17 	ldw	r2,-16(fp)
    1a7c:	e13fff17 	ldw	r4,-4(fp)
    1a80:	2085883a 	add	r2,r4,r2
    1a84:	10800003 	ldbu	r2,0(r2)
    1a88:	10bff804 	addi	r2,r2,-32
    1a8c:	10803fcc 	andi	r2,r2,255
    1a90:	1080201c 	xori	r2,r2,128
    1a94:	10bfe004 	addi	r2,r2,-128
    1a98:	00000706 	br	1ab8 <match_file_record_to_name_ext+0x264>
    1a9c:	e0bffc17 	ldw	r2,-16(fp)
    1aa0:	e13fff17 	ldw	r4,-4(fp)
    1aa4:	2085883a 	add	r2,r4,r2
    1aa8:	10800003 	ldbu	r2,0(r2)
    1aac:	10803fcc 	andi	r2,r2,255
    1ab0:	1080201c 	xori	r2,r2,128
    1ab4:	10bfe004 	addi	r2,r2,-128
    1ab8:	18800226 	beq	r3,r2,1ac4 <match_file_record_to_name_ext+0x270>
        {
            match = false;
    1abc:	e03ffb15 	stw	zero,-20(fp)
			break;
    1ac0:	00000606 	br	1adc <match_file_record_to_name_ext+0x288>
        {
            match = false;
			break;
        }
    }
    for (index = 0; index < 3; index++)
    1ac4:	e0bffc17 	ldw	r2,-16(fp)
    1ac8:	10800044 	addi	r2,r2,1
    1acc:	e0bffc15 	stw	r2,-16(fp)
    1ad0:	e0bffc17 	ldw	r2,-16(fp)
    1ad4:	108000d0 	cmplti	r2,r2,3
    1ad8:	103fb31e 	bne	r2,zero,19a8 <__alt_mem_onchip_memory+0xf78019a8>
        {
            match = false;
			break;
        }
    }
	return match;
    1adc:	e0bffb17 	ldw	r2,-20(fp)
}
    1ae0:	e037883a 	mov	sp,fp
    1ae4:	df000017 	ldw	fp,0(sp)
    1ae8:	dec00104 	addi	sp,sp,4
    1aec:	f800283a 	ret

00001af0 <get_home_directory_cluster_for_file>:


bool get_home_directory_cluster_for_file(char *file_name, int *home_directory_cluster, t_file_record *file_record)
// Scan the directories in given in the file name and find the root directory for the file.
{
    1af0:	deffe704 	addi	sp,sp,-100
    1af4:	dfc01815 	stw	ra,96(sp)
    1af8:	df001715 	stw	fp,92(sp)
    1afc:	df001704 	addi	fp,sp,92
    1b00:	e13ffd15 	stw	r4,-12(fp)
    1b04:	e17ffe15 	stw	r5,-8(fp)
    1b08:	e1bfff15 	stw	r6,-4(fp)
    bool result = false;
    1b0c:	e03fe915 	stw	zero,-92(fp)
    int home_dir_cluster = 0;
    1b10:	e03fea15 	stw	zero,-88(fp)
    int location, index;
    int start_location = 0;
    1b14:	e03fed15 	stw	zero,-76(fp)
    
    /* Get Next Directory. */
    location = get_dir_divider_location( file_name );
    1b18:	e13ffd17 	ldw	r4,-12(fp)
    1b1c:	000179c0 	call	179c <get_dir_divider_location>
    1b20:	e0bfeb15 	stw	r2,-84(fp)
    while (location > 0)
    1b24:	00013106 	br	1fec <get_home_directory_cluster_for_file+0x4fc>
    {
        char name[8] = { ' ', ' ', ' ', ' ', ' ', ' ', ' ', ' ' };
    1b28:	00800804 	movi	r2,32
    1b2c:	e0bff905 	stb	r2,-28(fp)
    1b30:	00800804 	movi	r2,32
    1b34:	e0bff945 	stb	r2,-27(fp)
    1b38:	00800804 	movi	r2,32
    1b3c:	e0bff985 	stb	r2,-26(fp)
    1b40:	00800804 	movi	r2,32
    1b44:	e0bff9c5 	stb	r2,-25(fp)
    1b48:	00800804 	movi	r2,32
    1b4c:	e0bffa05 	stb	r2,-24(fp)
    1b50:	00800804 	movi	r2,32
    1b54:	e0bffa45 	stb	r2,-23(fp)
    1b58:	00800804 	movi	r2,32
    1b5c:	e0bffa85 	stb	r2,-22(fp)
    1b60:	00800804 	movi	r2,32
    1b64:	e0bffac5 	stb	r2,-21(fp)
        char extension[3] = { ' ', ' ', ' ' };
    1b68:	00800804 	movi	r2,32
    1b6c:	e0bffb05 	stb	r2,-20(fp)
    1b70:	00800804 	movi	r2,32
    1b74:	e0bffb45 	stb	r2,-19(fp)
    1b78:	00800804 	movi	r2,32
    1b7c:	e0bffb85 	stb	r2,-18(fp)
        int ext_index = -1;
    1b80:	00bfffc4 	movi	r2,-1
    1b84:	e0bfee15 	stw	r2,-72(fp)
        int new_cluster = home_dir_cluster;
    1b88:	e0bfea17 	ldw	r2,-88(fp)
    1b8c:	e0bfef15 	stw	r2,-68(fp)
        
        // Get the name of the directory in name/extension format.
        for (index = 0; index < location; index++)
    1b90:	e03fec15 	stw	zero,-80(fp)
    1b94:	00002d06 	br	1c4c <get_home_directory_cluster_for_file+0x15c>
        {
            if (file_name[index+start_location] == '.')
    1b98:	e0ffec17 	ldw	r3,-80(fp)
    1b9c:	e0bfed17 	ldw	r2,-76(fp)
    1ba0:	1885883a 	add	r2,r3,r2
    1ba4:	1007883a 	mov	r3,r2
    1ba8:	e0bffd17 	ldw	r2,-12(fp)
    1bac:	10c5883a 	add	r2,r2,r3
    1bb0:	10800003 	ldbu	r2,0(r2)
    1bb4:	10803fcc 	andi	r2,r2,255
    1bb8:	1080201c 	xori	r2,r2,128
    1bbc:	10bfe004 	addi	r2,r2,-128
    1bc0:	10800b98 	cmpnei	r2,r2,46
    1bc4:	1000031e 	bne	r2,zero,1bd4 <get_home_directory_cluster_for_file+0xe4>
            {
                ext_index = index;
    1bc8:	e0bfec17 	ldw	r2,-80(fp)
    1bcc:	e0bfee15 	stw	r2,-72(fp)
    1bd0:	00001b06 	br	1c40 <get_home_directory_cluster_for_file+0x150>
            }
            else if (ext_index < 0)
    1bd4:	e0bfee17 	ldw	r2,-72(fp)
    1bd8:	10000c0e 	bge	r2,zero,1c0c <get_home_directory_cluster_for_file+0x11c>
            {
                name[index] = file_name[index+start_location];
    1bdc:	e0ffec17 	ldw	r3,-80(fp)
    1be0:	e0bfed17 	ldw	r2,-76(fp)
    1be4:	1885883a 	add	r2,r3,r2
    1be8:	1007883a 	mov	r3,r2
    1bec:	e0bffd17 	ldw	r2,-12(fp)
    1bf0:	10c5883a 	add	r2,r2,r3
    1bf4:	10c00003 	ldbu	r3,0(r2)
    1bf8:	e13ff904 	addi	r4,fp,-28
    1bfc:	e0bfec17 	ldw	r2,-80(fp)
    1c00:	2085883a 	add	r2,r4,r2
    1c04:	10c00005 	stb	r3,0(r2)
    1c08:	00000d06 	br	1c40 <get_home_directory_cluster_for_file+0x150>
            }
            else
            {
                extension[index-ext_index] = file_name[index+start_location];
    1c0c:	e0ffec17 	ldw	r3,-80(fp)
    1c10:	e0bfee17 	ldw	r2,-72(fp)
    1c14:	1885c83a 	sub	r2,r3,r2
    1c18:	e13fec17 	ldw	r4,-80(fp)
    1c1c:	e0ffed17 	ldw	r3,-76(fp)
    1c20:	20c7883a 	add	r3,r4,r3
    1c24:	1809883a 	mov	r4,r3
    1c28:	e0fffd17 	ldw	r3,-12(fp)
    1c2c:	1907883a 	add	r3,r3,r4
    1c30:	18c00003 	ldbu	r3,0(r3)
    1c34:	e13ffb04 	addi	r4,fp,-20
    1c38:	2085883a 	add	r2,r4,r2
    1c3c:	10c00005 	stb	r3,0(r2)
        char extension[3] = { ' ', ' ', ' ' };
        int ext_index = -1;
        int new_cluster = home_dir_cluster;
        
        // Get the name of the directory in name/extension format.
        for (index = 0; index < location; index++)
    1c40:	e0bfec17 	ldw	r2,-80(fp)
    1c44:	10800044 	addi	r2,r2,1
    1c48:	e0bfec15 	stw	r2,-80(fp)
    1c4c:	e0ffec17 	ldw	r3,-80(fp)
    1c50:	e0bfeb17 	ldw	r2,-84(fp)
    1c54:	18bfd016 	blt	r3,r2,1b98 <__alt_mem_onchip_memory+0xf7801b98>
            {
                extension[index-ext_index] = file_name[index+start_location];
            }
        }
        
        if (home_dir_cluster == 0)
    1c58:	e0bfea17 	ldw	r2,-88(fp)
    1c5c:	10005e1e 	bne	r2,zero,1dd8 <get_home_directory_cluster_for_file+0x2e8>
        {
            /* We are in the root directory. Scan the directory (of predefined size) and see if you can find the specified file. */
            int max_root_dir_sectors = ((32*boot_sector_data.max_number_of_dir_entires) / boot_sector_data.sector_size_in_bytes);
    1c60:	00800134 	movhi	r2,4
    1c64:	10a49f04 	addi	r2,r2,-28036
    1c68:	1080050b 	ldhu	r2,20(r2)
    1c6c:	10bfffcc 	andi	r2,r2,65535
    1c70:	1006917a 	slli	r3,r2,5
    1c74:	00800134 	movhi	r2,4
    1c78:	10a49f04 	addi	r2,r2,-28036
    1c7c:	1080030b 	ldhu	r2,12(r2)
    1c80:	10bfffcc 	andi	r2,r2,65535
    1c84:	100b883a 	mov	r5,r2
    1c88:	1809883a 	mov	r4,r3
    1c8c:	00089a80 	call	89a8 <__divsi3>
    1c90:	e0bff715 	stw	r2,-36(fp)
            int sector_index;
            
            for (sector_index = 0; sector_index < max_root_dir_sectors; sector_index++)
    1c94:	e03ff015 	stw	zero,-64(fp)
    1c98:	00003b06 	br	1d88 <get_home_directory_cluster_for_file+0x298>
            {
                if (Read_Sector_Data(sector_index+boot_sector_data.root_directory_sector_offset, fat_partition_offset_in_512_byte_sectors))
    1c9c:	00800134 	movhi	r2,4
    1ca0:	10a49f04 	addi	r2,r2,-28036
    1ca4:	10c01317 	ldw	r3,76(r2)
    1ca8:	e0bff017 	ldw	r2,-64(fp)
    1cac:	1885883a 	add	r2,r3,r2
    1cb0:	1007883a 	mov	r3,r2
    1cb4:	d0aaca17 	ldw	r2,-21720(gp)
    1cb8:	100b883a 	mov	r5,r2
    1cbc:	1809883a 	mov	r4,r3
    1cc0:	00003c80 	call	3c8 <Read_Sector_Data>
    1cc4:	10003426 	beq	r2,zero,1d98 <get_home_directory_cluster_for_file+0x2a8>
                {
                    int file_counter;
                    
                    for (file_counter = 0; file_counter < 16; file_counter++)
    1cc8:	e03ff115 	stw	zero,-60(fp)
    1ccc:	00002506 	br	1d64 <get_home_directory_cluster_for_file+0x274>
                    {
                       
                        // Read file record.
                        Read_File_Record_At_Offset(file_counter*32, file_record, 0, sector_index);
    1cd0:	e0bff117 	ldw	r2,-60(fp)
    1cd4:	1004917a 	slli	r2,r2,5
    1cd8:	e0fff017 	ldw	r3,-64(fp)
    1cdc:	180f883a 	mov	r7,r3
    1ce0:	000d883a 	mov	r6,zero
    1ce4:	e17fff17 	ldw	r5,-4(fp)
    1ce8:	1009883a 	mov	r4,r2
    1cec:	00007d80 	call	7d8 <Read_File_Record_At_Offset>
                        if ((file_record->name[0] != 0xe5) && (file_record->name[0] != 0x00))
    1cf0:	e0bfff17 	ldw	r2,-4(fp)
    1cf4:	10800003 	ldbu	r2,0(r2)
    1cf8:	10803fcc 	andi	r2,r2,255
    1cfc:	10803960 	cmpeqi	r2,r2,229
    1d00:	1000151e 	bne	r2,zero,1d58 <get_home_directory_cluster_for_file+0x268>
    1d04:	e0bfff17 	ldw	r2,-4(fp)
    1d08:	10800003 	ldbu	r2,0(r2)
    1d0c:	10803fcc 	andi	r2,r2,255
    1d10:	10001126 	beq	r2,zero,1d58 <get_home_directory_cluster_for_file+0x268>
                        {
                            bool match = match_file_record_to_name_ext(file_record, name, extension);
    1d14:	e0fffb04 	addi	r3,fp,-20
    1d18:	e0bff904 	addi	r2,fp,-28
    1d1c:	180d883a 	mov	r6,r3
    1d20:	100b883a 	mov	r5,r2
    1d24:	e13fff17 	ldw	r4,-4(fp)
    1d28:	00018540 	call	1854 <match_file_record_to_name_ext>
    1d2c:	e0bff815 	stw	r2,-32(fp)
                            if (match)
    1d30:	e0bff817 	ldw	r2,-32(fp)
    1d34:	10000826 	beq	r2,zero,1d58 <get_home_directory_cluster_for_file+0x268>
                            {
                                new_cluster = file_record->start_cluster_index;
    1d38:	e0bfff17 	ldw	r2,-4(fp)
    1d3c:	1080058b 	ldhu	r2,22(r2)
    1d40:	10bfffcc 	andi	r2,r2,65535
    1d44:	e0bfef15 	stw	r2,-68(fp)
                                file_record->file_record_cluster = 1; // Home directory is a subdirectory in the root directory.
    1d48:	e0bfff17 	ldw	r2,-4(fp)
    1d4c:	00c00044 	movi	r3,1
    1d50:	10c00a15 	stw	r3,40(r2)
                                break;
    1d54:	00000606 	br	1d70 <get_home_directory_cluster_for_file+0x280>
            {
                if (Read_Sector_Data(sector_index+boot_sector_data.root_directory_sector_offset, fat_partition_offset_in_512_byte_sectors))
                {
                    int file_counter;
                    
                    for (file_counter = 0; file_counter < 16; file_counter++)
    1d58:	e0bff117 	ldw	r2,-60(fp)
    1d5c:	10800044 	addi	r2,r2,1
    1d60:	e0bff115 	stw	r2,-60(fp)
    1d64:	e0bff117 	ldw	r2,-60(fp)
    1d68:	10800410 	cmplti	r2,r2,16
    1d6c:	103fd81e 	bne	r2,zero,1cd0 <__alt_mem_onchip_memory+0xf7801cd0>
                }
                else
                {
                    break;
                }
                if (new_cluster != home_dir_cluster)
    1d70:	e0ffef17 	ldw	r3,-68(fp)
    1d74:	e0bfea17 	ldw	r2,-88(fp)
    1d78:	1880091e 	bne	r3,r2,1da0 <get_home_directory_cluster_for_file+0x2b0>
        {
            /* We are in the root directory. Scan the directory (of predefined size) and see if you can find the specified file. */
            int max_root_dir_sectors = ((32*boot_sector_data.max_number_of_dir_entires) / boot_sector_data.sector_size_in_bytes);
            int sector_index;
            
            for (sector_index = 0; sector_index < max_root_dir_sectors; sector_index++)
    1d7c:	e0bff017 	ldw	r2,-64(fp)
    1d80:	10800044 	addi	r2,r2,1
    1d84:	e0bff015 	stw	r2,-64(fp)
    1d88:	e0fff017 	ldw	r3,-64(fp)
    1d8c:	e0bff717 	ldw	r2,-36(fp)
    1d90:	18bfc216 	blt	r3,r2,1c9c <__alt_mem_onchip_memory+0xf7801c9c>
    1d94:	00000306 	br	1da4 <get_home_directory_cluster_for_file+0x2b4>
                        }
                    }
                }
                else
                {
                    break;
    1d98:	0001883a 	nop
    1d9c:	00000106 	br	1da4 <get_home_directory_cluster_for_file+0x2b4>
                }
                if (new_cluster != home_dir_cluster)
                {
                    break;
    1da0:	0001883a 	nop
                }
            }
            if (new_cluster != home_dir_cluster)
    1da4:	e0ffef17 	ldw	r3,-68(fp)
    1da8:	e0bfea17 	ldw	r2,-88(fp)
    1dac:	18800826 	beq	r3,r2,1dd0 <get_home_directory_cluster_for_file+0x2e0>
            {
                // A valid directory is found, so go to it.
                home_dir_cluster = new_cluster;
    1db0:	e0bfef17 	ldw	r2,-68(fp)
    1db4:	e0bfea15 	stw	r2,-88(fp)
                start_location = start_location+location+1;
    1db8:	e0ffed17 	ldw	r3,-76(fp)
    1dbc:	e0bfeb17 	ldw	r2,-84(fp)
    1dc0:	1885883a 	add	r2,r3,r2
    1dc4:	10800044 	addi	r2,r2,1
    1dc8:	e0bfed15 	stw	r2,-76(fp)
    1dcc:	00007d06 	br	1fc4 <get_home_directory_cluster_for_file+0x4d4>
            }
            else
            {
                // Directory path is invalid. 
                return false;
    1dd0:	0005883a 	mov	r2,zero
    1dd4:	00009106 	br	201c <get_home_directory_cluster_for_file+0x52c>
            }
        } else {
            // This is a subdirectory that can have any number of elements. So scan through it as though it was a file
            // and see if you can find the directory of interest.
            int cluster = home_dir_cluster;
    1dd8:	e0bfea17 	ldw	r2,-88(fp)
    1ddc:	e0bff415 	stw	r2,-48(fp)
            
            do {
                int start_sector = ( cluster - 2 ) * ( boot_sector_data.sectors_per_cluster ) + boot_sector_data.data_sector_offset;
    1de0:	e0bff417 	ldw	r2,-48(fp)
    1de4:	10ffff84 	addi	r3,r2,-2
    1de8:	00800134 	movhi	r2,4
    1dec:	10a49f04 	addi	r2,r2,-28036
    1df0:	10800383 	ldbu	r2,14(r2)
    1df4:	10803fcc 	andi	r2,r2,255
    1df8:	1885383a 	mul	r2,r3,r2
    1dfc:	1007883a 	mov	r3,r2
    1e00:	00800134 	movhi	r2,4
    1e04:	10a49f04 	addi	r2,r2,-28036
    1e08:	10801417 	ldw	r2,80(r2)
    1e0c:	1885883a 	add	r2,r3,r2
    1e10:	e0bff515 	stw	r2,-44(fp)
                int sector_index;
                
                for (sector_index = 0; sector_index < boot_sector_data.sectors_per_cluster; sector_index++)
    1e14:	e03ff215 	stw	zero,-56(fp)
    1e18:	00003606 	br	1ef4 <get_home_directory_cluster_for_file+0x404>
                {
                    if (Read_Sector_Data(sector_index + start_sector, fat_partition_offset_in_512_byte_sectors))
    1e1c:	e0fff217 	ldw	r3,-56(fp)
    1e20:	e0bff517 	ldw	r2,-44(fp)
    1e24:	1885883a 	add	r2,r3,r2
    1e28:	d0eaca17 	ldw	r3,-21720(gp)
    1e2c:	180b883a 	mov	r5,r3
    1e30:	1009883a 	mov	r4,r2
    1e34:	00003c80 	call	3c8 <Read_Sector_Data>
    1e38:	10003526 	beq	r2,zero,1f10 <get_home_directory_cluster_for_file+0x420>
                    {
                        int file_counter;
                        
                        for (file_counter = 0; file_counter < 16; file_counter++)
    1e3c:	e03ff315 	stw	zero,-52(fp)
    1e40:	00002306 	br	1ed0 <get_home_directory_cluster_for_file+0x3e0>
                        {                         
                            // Read file record.
                            Read_File_Record_At_Offset(file_counter*32, file_record, cluster, sector_index);
    1e44:	e0bff317 	ldw	r2,-52(fp)
    1e48:	1004917a 	slli	r2,r2,5
    1e4c:	e0fff417 	ldw	r3,-48(fp)
    1e50:	e13ff217 	ldw	r4,-56(fp)
    1e54:	200f883a 	mov	r7,r4
    1e58:	180d883a 	mov	r6,r3
    1e5c:	e17fff17 	ldw	r5,-4(fp)
    1e60:	1009883a 	mov	r4,r2
    1e64:	00007d80 	call	7d8 <Read_File_Record_At_Offset>
                            if ((file_record->name[0] != 0xe5) && (file_record->name[0] != 0x00))
    1e68:	e0bfff17 	ldw	r2,-4(fp)
    1e6c:	10800003 	ldbu	r2,0(r2)
    1e70:	10803fcc 	andi	r2,r2,255
    1e74:	10803960 	cmpeqi	r2,r2,229
    1e78:	1000121e 	bne	r2,zero,1ec4 <get_home_directory_cluster_for_file+0x3d4>
    1e7c:	e0bfff17 	ldw	r2,-4(fp)
    1e80:	10800003 	ldbu	r2,0(r2)
    1e84:	10803fcc 	andi	r2,r2,255
    1e88:	10000e26 	beq	r2,zero,1ec4 <get_home_directory_cluster_for_file+0x3d4>
                            {
								bool match = match_file_record_to_name_ext(file_record, name, extension);
    1e8c:	e0fffb04 	addi	r3,fp,-20
    1e90:	e0bff904 	addi	r2,fp,-28
    1e94:	180d883a 	mov	r6,r3
    1e98:	100b883a 	mov	r5,r2
    1e9c:	e13fff17 	ldw	r4,-4(fp)
    1ea0:	00018540 	call	1854 <match_file_record_to_name_ext>
    1ea4:	e0bff615 	stw	r2,-40(fp)
                                if (match)
    1ea8:	e0bff617 	ldw	r2,-40(fp)
    1eac:	10000526 	beq	r2,zero,1ec4 <get_home_directory_cluster_for_file+0x3d4>
                                {
                                    new_cluster = file_record->start_cluster_index;                                   
    1eb0:	e0bfff17 	ldw	r2,-4(fp)
    1eb4:	1080058b 	ldhu	r2,22(r2)
    1eb8:	10bfffcc 	andi	r2,r2,65535
    1ebc:	e0bfef15 	stw	r2,-68(fp)
                                    break;
    1ec0:	00000606 	br	1edc <get_home_directory_cluster_for_file+0x3ec>
                {
                    if (Read_Sector_Data(sector_index + start_sector, fat_partition_offset_in_512_byte_sectors))
                    {
                        int file_counter;
                        
                        for (file_counter = 0; file_counter < 16; file_counter++)
    1ec4:	e0bff317 	ldw	r2,-52(fp)
    1ec8:	10800044 	addi	r2,r2,1
    1ecc:	e0bff315 	stw	r2,-52(fp)
    1ed0:	e0bff317 	ldw	r2,-52(fp)
    1ed4:	10800410 	cmplti	r2,r2,16
    1ed8:	103fda1e 	bne	r2,zero,1e44 <__alt_mem_onchip_memory+0xf7801e44>
                    }
                    else
                    {
                        break;
                    }
                    if (new_cluster != home_dir_cluster)
    1edc:	e0ffef17 	ldw	r3,-68(fp)
    1ee0:	e0bfea17 	ldw	r2,-88(fp)
    1ee4:	18800c1e 	bne	r3,r2,1f18 <get_home_directory_cluster_for_file+0x428>
            
            do {
                int start_sector = ( cluster - 2 ) * ( boot_sector_data.sectors_per_cluster ) + boot_sector_data.data_sector_offset;
                int sector_index;
                
                for (sector_index = 0; sector_index < boot_sector_data.sectors_per_cluster; sector_index++)
    1ee8:	e0bff217 	ldw	r2,-56(fp)
    1eec:	10800044 	addi	r2,r2,1
    1ef0:	e0bff215 	stw	r2,-56(fp)
    1ef4:	00800134 	movhi	r2,4
    1ef8:	10a49f04 	addi	r2,r2,-28036
    1efc:	10800383 	ldbu	r2,14(r2)
    1f00:	10803fcc 	andi	r2,r2,255
    1f04:	e0fff217 	ldw	r3,-56(fp)
    1f08:	18bfc416 	blt	r3,r2,1e1c <__alt_mem_onchip_memory+0xf7801e1c>
    1f0c:	00000306 	br	1f1c <get_home_directory_cluster_for_file+0x42c>
                            }
                        }
                    }
                    else
                    {
                        break;
    1f10:	0001883a 	nop
    1f14:	00000106 	br	1f1c <get_home_directory_cluster_for_file+0x42c>
                    }
                    if (new_cluster != home_dir_cluster)
                    {
                        break;
    1f18:	0001883a 	nop
                    }
                }
                // If this is the end of the cluster and the directory has not been found, then see if there is another cluster
                // that holds data for the current directory.
                if (new_cluster == home_dir_cluster)
    1f1c:	e0ffef17 	ldw	r3,-68(fp)
    1f20:	e0bfea17 	ldw	r2,-88(fp)
    1f24:	1880141e 	bne	r3,r2,1f78 <get_home_directory_cluster_for_file+0x488>
                {
					unsigned short int next_cluster;

					if (get_cluster_flag(new_cluster, &next_cluster))
    1f28:	e0bfef17 	ldw	r2,-68(fp)
    1f2c:	e0fffc04 	addi	r3,fp,-16
    1f30:	180b883a 	mov	r5,r3
    1f34:	1009883a 	mov	r4,r2
    1f38:	00004a00 	call	4a0 <get_cluster_flag>
    1f3c:	10000c26 	beq	r2,zero,1f70 <get_home_directory_cluster_for_file+0x480>
					{
						// The directory needs to be expanded to store more files.
						if ((next_cluster & 0x0000fff8) == 0x0000fff8)
    1f40:	e0bffc0b 	ldhu	r2,-16(fp)
    1f44:	10bfffcc 	andi	r2,r2,65535
    1f48:	10fffe0c 	andi	r3,r2,65528
    1f4c:	00bffe14 	movui	r2,65528
    1f50:	1880021e 	bne	r3,r2,1f5c <get_home_directory_cluster_for_file+0x46c>
						{
							return false;
    1f54:	0005883a 	mov	r2,zero
    1f58:	00003006 	br	201c <get_home_directory_cluster_for_file+0x52c>
						}
						new_cluster = (next_cluster & 0x0000fff8);
    1f5c:	e0bffc0b 	ldhu	r2,-16(fp)
    1f60:	10bfffcc 	andi	r2,r2,65535
    1f64:	10bffe0c 	andi	r2,r2,65528
    1f68:	e0bfef15 	stw	r2,-68(fp)
    1f6c:	00000206 	br	1f78 <get_home_directory_cluster_for_file+0x488>
					}
					else
					{
						// Directory path is invalid.                 
						return false;
    1f70:	0005883a 	mov	r2,zero
    1f74:	00002906 	br	201c <get_home_directory_cluster_for_file+0x52c>
					}
                }              
            } while ((cluster < 0x0000fff8) && (new_cluster == home_dir_cluster));
    1f78:	e0bff417 	ldw	r2,-48(fp)
    1f7c:	00fffdd4 	movui	r3,65527
    1f80:	18800316 	blt	r3,r2,1f90 <get_home_directory_cluster_for_file+0x4a0>
    1f84:	e0ffef17 	ldw	r3,-68(fp)
    1f88:	e0bfea17 	ldw	r2,-88(fp)
    1f8c:	18bf9426 	beq	r3,r2,1de0 <__alt_mem_onchip_memory+0xf7801de0>
            if (new_cluster != home_dir_cluster)
    1f90:	e0ffef17 	ldw	r3,-68(fp)
    1f94:	e0bfea17 	ldw	r2,-88(fp)
    1f98:	18800826 	beq	r3,r2,1fbc <get_home_directory_cluster_for_file+0x4cc>
            {
                // A valid directory is found, so go to it.
                home_dir_cluster = new_cluster;
    1f9c:	e0bfef17 	ldw	r2,-68(fp)
    1fa0:	e0bfea15 	stw	r2,-88(fp)
                start_location = start_location+location+1;
    1fa4:	e0ffed17 	ldw	r3,-76(fp)
    1fa8:	e0bfeb17 	ldw	r2,-84(fp)
    1fac:	1885883a 	add	r2,r3,r2
    1fb0:	10800044 	addi	r2,r2,1
    1fb4:	e0bfed15 	stw	r2,-76(fp)
    1fb8:	00000206 	br	1fc4 <get_home_directory_cluster_for_file+0x4d4>
            }
            else
            {
                // Directory path is invalid. 
                return false;
    1fbc:	0005883a 	mov	r2,zero
    1fc0:	00001606 	br	201c <get_home_directory_cluster_for_file+0x52c>
            }            
        }
        location = get_dir_divider_location(&(file_name[start_location]));
    1fc4:	e0bfed17 	ldw	r2,-76(fp)
    1fc8:	e0fffd17 	ldw	r3,-12(fp)
    1fcc:	1885883a 	add	r2,r3,r2
    1fd0:	1009883a 	mov	r4,r2
    1fd4:	000179c0 	call	179c <get_dir_divider_location>
    1fd8:	e0bfeb15 	stw	r2,-84(fp)
        if (location < 0)
    1fdc:	e0bfeb17 	ldw	r2,-84(fp)
    1fe0:	1000020e 	bge	r2,zero,1fec <get_home_directory_cluster_for_file+0x4fc>
        {
            // Directory has been located.
            result = true;
    1fe4:	00800044 	movi	r2,1
    1fe8:	e0bfe915 	stw	r2,-92(fp)
    int location, index;
    int start_location = 0;
    
    /* Get Next Directory. */
    location = get_dir_divider_location( file_name );
    while (location > 0)
    1fec:	e0bfeb17 	ldw	r2,-84(fp)
    1ff0:	00becd16 	blt	zero,r2,1b28 <__alt_mem_onchip_memory+0xf7801b28>
            // Directory has been located.
            result = true;
        }
    }
    
    *home_directory_cluster = home_dir_cluster;
    1ff4:	e0bffe17 	ldw	r2,-8(fp)
    1ff8:	e0ffea17 	ldw	r3,-88(fp)
    1ffc:	10c00015 	stw	r3,0(r2)
    if (home_dir_cluster == 0)
    2000:	e0bfea17 	ldw	r2,-88(fp)
    2004:	1000041e 	bne	r2,zero,2018 <get_home_directory_cluster_for_file+0x528>
    {
        file_record->file_record_cluster = 0; // Home directory is the root directory.
    2008:	e0bfff17 	ldw	r2,-4(fp)
    200c:	10000a15 	stw	zero,40(r2)
		result = true;
    2010:	00800044 	movi	r2,1
    2014:	e0bfe915 	stw	r2,-92(fp)
    }
    return result;
    2018:	e0bfe917 	ldw	r2,-92(fp)
}
    201c:	e037883a 	mov	sp,fp
    2020:	dfc00117 	ldw	ra,4(sp)
    2024:	df000017 	ldw	fp,0(sp)
    2028:	dec00204 	addi	sp,sp,8
    202c:	f800283a 	ret

00002030 <find_file_in_directory>:


bool find_file_in_directory(int directory_start_cluster, char *file_name, t_file_record *file_record)
// Given a cluster and a file name, check if the file already exists. Return the file record if the file is found.
{
    2030:	deffe804 	addi	sp,sp,-96
    2034:	dfc01715 	stw	ra,92(sp)
    2038:	df001615 	stw	fp,88(sp)
    203c:	df001604 	addi	fp,sp,88
    2040:	e13ffd15 	stw	r4,-12(fp)
    2044:	e17ffe15 	stw	r5,-8(fp)
    2048:	e1bfff15 	stw	r6,-4(fp)
    int location = get_dir_divider_location( file_name );
    204c:	e13ffe17 	ldw	r4,-8(fp)
    2050:	000179c0 	call	179c <get_dir_divider_location>
    2054:	e0bfea15 	stw	r2,-88(fp)
    int last_dir_separator = 0;
    2058:	e03feb15 	stw	zero,-84(fp)
    char name[8] = { ' ', ' ', ' ', ' ', ' ', ' ', ' ', ' ' };
    205c:	00800804 	movi	r2,32
    2060:	e0bff905 	stb	r2,-28(fp)
    2064:	00800804 	movi	r2,32
    2068:	e0bff945 	stb	r2,-27(fp)
    206c:	00800804 	movi	r2,32
    2070:	e0bff985 	stb	r2,-26(fp)
    2074:	00800804 	movi	r2,32
    2078:	e0bff9c5 	stb	r2,-25(fp)
    207c:	00800804 	movi	r2,32
    2080:	e0bffa05 	stb	r2,-24(fp)
    2084:	00800804 	movi	r2,32
    2088:	e0bffa45 	stb	r2,-23(fp)
    208c:	00800804 	movi	r2,32
    2090:	e0bffa85 	stb	r2,-22(fp)
    2094:	00800804 	movi	r2,32
    2098:	e0bffac5 	stb	r2,-21(fp)
    char extension[3] = { ' ', ' ', ' ' };
    209c:	00800804 	movi	r2,32
    20a0:	e0bffb05 	stb	r2,-20(fp)
    20a4:	00800804 	movi	r2,32
    20a8:	e0bffb45 	stb	r2,-19(fp)
    20ac:	00800804 	movi	r2,32
    20b0:	e0bffb85 	stb	r2,-18(fp)
    int ext_index = -1;
    20b4:	00bfffc4 	movi	r2,-1
    20b8:	e0bfec15 	stw	r2,-80(fp)
    int cluster = directory_start_cluster;
    20bc:	e0bffd17 	ldw	r2,-12(fp)
    20c0:	e0bfed15 	stw	r2,-76(fp)
    int index;
	int length = strlen(file_name);
    20c4:	e13ffe17 	ldw	r4,-8(fp)
    20c8:	000b4400 	call	b440 <strlen>
    20cc:	e0bff415 	stw	r2,-48(fp)
    bool result = false;
    20d0:	e03fef15 	stw	zero,-68(fp)
    
    // Skip through all directory separators.
    while (location > 0)
    20d4:	00000b06 	br	2104 <find_file_in_directory+0xd4>
    {
        last_dir_separator = last_dir_separator+location+1;
    20d8:	e0ffeb17 	ldw	r3,-84(fp)
    20dc:	e0bfea17 	ldw	r2,-88(fp)
    20e0:	1885883a 	add	r2,r3,r2
    20e4:	10800044 	addi	r2,r2,1
    20e8:	e0bfeb15 	stw	r2,-84(fp)
        location = get_dir_divider_location( &(file_name[last_dir_separator]) );
    20ec:	e0bfeb17 	ldw	r2,-84(fp)
    20f0:	e0fffe17 	ldw	r3,-8(fp)
    20f4:	1885883a 	add	r2,r3,r2
    20f8:	1009883a 	mov	r4,r2
    20fc:	000179c0 	call	179c <get_dir_divider_location>
    2100:	e0bfea15 	stw	r2,-88(fp)
    int index;
	int length = strlen(file_name);
    bool result = false;
    
    // Skip through all directory separators.
    while (location > 0)
    2104:	e0bfea17 	ldw	r2,-88(fp)
    2108:	00bff316 	blt	zero,r2,20d8 <__alt_mem_onchip_memory+0xf78020d8>
        last_dir_separator = last_dir_separator+location+1;
        location = get_dir_divider_location( &(file_name[last_dir_separator]) );
    }
        
    // Get the name of the file in name/extension format.
    for (index = last_dir_separator; index < length; index++)
    210c:	e0bfeb17 	ldw	r2,-84(fp)
    2110:	e0bfee15 	stw	r2,-72(fp)
    2114:	00002706 	br	21b4 <find_file_in_directory+0x184>
    {
        if (file_name[index] == '.')
    2118:	e0bfee17 	ldw	r2,-72(fp)
    211c:	e0fffe17 	ldw	r3,-8(fp)
    2120:	1885883a 	add	r2,r3,r2
    2124:	10800003 	ldbu	r2,0(r2)
    2128:	10803fcc 	andi	r2,r2,255
    212c:	1080201c 	xori	r2,r2,128
    2130:	10bfe004 	addi	r2,r2,-128
    2134:	10800b98 	cmpnei	r2,r2,46
    2138:	1000031e 	bne	r2,zero,2148 <find_file_in_directory+0x118>
        {
            ext_index = index;
    213c:	e0bfee17 	ldw	r2,-72(fp)
    2140:	e0bfec15 	stw	r2,-80(fp)
    2144:	00001806 	br	21a8 <find_file_in_directory+0x178>
        }
        else if (ext_index < 0)
    2148:	e0bfec17 	ldw	r2,-80(fp)
    214c:	10000b0e 	bge	r2,zero,217c <find_file_in_directory+0x14c>
        {
            name[index-last_dir_separator] = file_name[index];
    2150:	e0ffee17 	ldw	r3,-72(fp)
    2154:	e0bfeb17 	ldw	r2,-84(fp)
    2158:	1885c83a 	sub	r2,r3,r2
    215c:	e0ffee17 	ldw	r3,-72(fp)
    2160:	e13ffe17 	ldw	r4,-8(fp)
    2164:	20c7883a 	add	r3,r4,r3
    2168:	18c00003 	ldbu	r3,0(r3)
    216c:	e13ff904 	addi	r4,fp,-28
    2170:	2085883a 	add	r2,r4,r2
    2174:	10c00005 	stb	r3,0(r2)
    2178:	00000b06 	br	21a8 <find_file_in_directory+0x178>
        }
        else
        {
            extension[index-ext_index-1] = file_name[index];
    217c:	e0ffee17 	ldw	r3,-72(fp)
    2180:	e0bfec17 	ldw	r2,-80(fp)
    2184:	1885c83a 	sub	r2,r3,r2
    2188:	10bfffc4 	addi	r2,r2,-1
    218c:	e0ffee17 	ldw	r3,-72(fp)
    2190:	e13ffe17 	ldw	r4,-8(fp)
    2194:	20c7883a 	add	r3,r4,r3
    2198:	18c00003 	ldbu	r3,0(r3)
    219c:	e13ffb04 	addi	r4,fp,-20
    21a0:	2085883a 	add	r2,r4,r2
    21a4:	10c00005 	stb	r3,0(r2)
        last_dir_separator = last_dir_separator+location+1;
        location = get_dir_divider_location( &(file_name[last_dir_separator]) );
    }
        
    // Get the name of the file in name/extension format.
    for (index = last_dir_separator; index < length; index++)
    21a8:	e0bfee17 	ldw	r2,-72(fp)
    21ac:	10800044 	addi	r2,r2,1
    21b0:	e0bfee15 	stw	r2,-72(fp)
    21b4:	e0ffee17 	ldw	r3,-72(fp)
    21b8:	e0bff417 	ldw	r2,-48(fp)
    21bc:	18bfd616 	blt	r3,r2,2118 <__alt_mem_onchip_memory+0xf7802118>
            extension[index-ext_index-1] = file_name[index];
        }
    }

    // Look for the file.
    if (directory_start_cluster == 0)
    21c0:	e0bffd17 	ldw	r2,-12(fp)
    21c4:	1000481e 	bne	r2,zero,22e8 <find_file_in_directory+0x2b8>
    {
        /* We are in the root directory. Scan the directory (of predefined size) and see if you can find the specified file. */
        int max_root_dir_sectors = ((32*boot_sector_data.max_number_of_dir_entires) / boot_sector_data.sector_size_in_bytes);
    21c8:	00800134 	movhi	r2,4
    21cc:	10a49f04 	addi	r2,r2,-28036
    21d0:	1080050b 	ldhu	r2,20(r2)
    21d4:	10bfffcc 	andi	r2,r2,65535
    21d8:	1006917a 	slli	r3,r2,5
    21dc:	00800134 	movhi	r2,4
    21e0:	10a49f04 	addi	r2,r2,-28036
    21e4:	1080030b 	ldhu	r2,12(r2)
    21e8:	10bfffcc 	andi	r2,r2,65535
    21ec:	100b883a 	mov	r5,r2
    21f0:	1809883a 	mov	r4,r3
    21f4:	00089a80 	call	89a8 <__divsi3>
    21f8:	e0bff715 	stw	r2,-36(fp)
        int sector_index;
        
        for (sector_index = 0; sector_index < max_root_dir_sectors; sector_index++)
    21fc:	e03ff015 	stw	zero,-64(fp)
    2200:	00003506 	br	22d8 <find_file_in_directory+0x2a8>
        {
            if (Read_Sector_Data(   sector_index + boot_sector_data.root_directory_sector_offset,
    2204:	00800134 	movhi	r2,4
    2208:	10a49f04 	addi	r2,r2,-28036
    220c:	10c01317 	ldw	r3,76(r2)
    2210:	e0bff017 	ldw	r2,-64(fp)
    2214:	1885883a 	add	r2,r3,r2
    2218:	1007883a 	mov	r3,r2
    221c:	d0aaca17 	ldw	r2,-21720(gp)
    2220:	100b883a 	mov	r5,r2
    2224:	1809883a 	mov	r4,r3
    2228:	00003c80 	call	3c8 <Read_Sector_Data>
    222c:	10009626 	beq	r2,zero,2488 <find_file_in_directory+0x458>
                                    fat_partition_offset_in_512_byte_sectors))
            {
                int file_counter;
                
                for (file_counter = 0; file_counter < 16; file_counter++)
    2230:	e03ff115 	stw	zero,-60(fp)
    2234:	00002006 	br	22b8 <find_file_in_directory+0x288>
                {
                    // Read file record.
                    Read_File_Record_At_Offset(file_counter*32, file_record, 0, sector_index);
    2238:	e0bff117 	ldw	r2,-60(fp)
    223c:	1004917a 	slli	r2,r2,5
    2240:	e0fff017 	ldw	r3,-64(fp)
    2244:	180f883a 	mov	r7,r3
    2248:	000d883a 	mov	r6,zero
    224c:	e17fff17 	ldw	r5,-4(fp)
    2250:	1009883a 	mov	r4,r2
    2254:	00007d80 	call	7d8 <Read_File_Record_At_Offset>
                    if ((file_record->name[0] != 0xe5) && (file_record->name[0] != 0x00))
    2258:	e0bfff17 	ldw	r2,-4(fp)
    225c:	10800003 	ldbu	r2,0(r2)
    2260:	10803fcc 	andi	r2,r2,255
    2264:	10803960 	cmpeqi	r2,r2,229
    2268:	1000101e 	bne	r2,zero,22ac <find_file_in_directory+0x27c>
    226c:	e0bfff17 	ldw	r2,-4(fp)
    2270:	10800003 	ldbu	r2,0(r2)
    2274:	10803fcc 	andi	r2,r2,255
    2278:	10000c26 	beq	r2,zero,22ac <find_file_in_directory+0x27c>
                    {
                        bool match = match_file_record_to_name_ext(file_record, name, extension);
    227c:	e0fffb04 	addi	r3,fp,-20
    2280:	e0bff904 	addi	r2,fp,-28
    2284:	180d883a 	mov	r6,r3
    2288:	100b883a 	mov	r5,r2
    228c:	e13fff17 	ldw	r4,-4(fp)
    2290:	00018540 	call	1854 <match_file_record_to_name_ext>
    2294:	e0bff815 	stw	r2,-32(fp)

                        if (match)
    2298:	e0bff817 	ldw	r2,-32(fp)
    229c:	10000326 	beq	r2,zero,22ac <find_file_in_directory+0x27c>
                        {
                            result = true;
    22a0:	00800044 	movi	r2,1
    22a4:	e0bfef15 	stw	r2,-68(fp)
                            break;
    22a8:	00000606 	br	22c4 <find_file_in_directory+0x294>
            if (Read_Sector_Data(   sector_index + boot_sector_data.root_directory_sector_offset,
                                    fat_partition_offset_in_512_byte_sectors))
            {
                int file_counter;
                
                for (file_counter = 0; file_counter < 16; file_counter++)
    22ac:	e0bff117 	ldw	r2,-60(fp)
    22b0:	10800044 	addi	r2,r2,1
    22b4:	e0bff115 	stw	r2,-60(fp)
    22b8:	e0bff117 	ldw	r2,-60(fp)
    22bc:	10800410 	cmplti	r2,r2,16
    22c0:	103fdd1e 	bne	r2,zero,2238 <__alt_mem_onchip_memory+0xf7802238>
            }
            else
            {
                break;
            }
            if (result)
    22c4:	e0bfef17 	ldw	r2,-68(fp)
    22c8:	1000711e 	bne	r2,zero,2490 <find_file_in_directory+0x460>
    {
        /* We are in the root directory. Scan the directory (of predefined size) and see if you can find the specified file. */
        int max_root_dir_sectors = ((32*boot_sector_data.max_number_of_dir_entires) / boot_sector_data.sector_size_in_bytes);
        int sector_index;
        
        for (sector_index = 0; sector_index < max_root_dir_sectors; sector_index++)
    22cc:	e0bff017 	ldw	r2,-64(fp)
    22d0:	10800044 	addi	r2,r2,1
    22d4:	e0bff015 	stw	r2,-64(fp)
    22d8:	e0fff017 	ldw	r3,-64(fp)
    22dc:	e0bff717 	ldw	r2,-36(fp)
    22e0:	18bfc816 	blt	r3,r2,2204 <__alt_mem_onchip_memory+0xf7802204>
    22e4:	00006b06 	br	2494 <find_file_in_directory+0x464>
        }
    }
    else
    {          
        do {
            int start_sector = ( cluster - 2 ) * ( boot_sector_data.sectors_per_cluster ) + boot_sector_data.data_sector_offset;
    22e8:	e0bfed17 	ldw	r2,-76(fp)
    22ec:	10ffff84 	addi	r3,r2,-2
    22f0:	00800134 	movhi	r2,4
    22f4:	10a49f04 	addi	r2,r2,-28036
    22f8:	10800383 	ldbu	r2,14(r2)
    22fc:	10803fcc 	andi	r2,r2,255
    2300:	1885383a 	mul	r2,r3,r2
    2304:	1007883a 	mov	r3,r2
    2308:	00800134 	movhi	r2,4
    230c:	10a49f04 	addi	r2,r2,-28036
    2310:	10801417 	ldw	r2,80(r2)
    2314:	1885883a 	add	r2,r3,r2
    2318:	e0bff515 	stw	r2,-44(fp)
            int sector_index;
            
            for (sector_index = 0; sector_index < boot_sector_data.sectors_per_cluster; sector_index++)
    231c:	e03ff215 	stw	zero,-56(fp)
    2320:	00003306 	br	23f0 <find_file_in_directory+0x3c0>
            {
                if (Read_Sector_Data(sector_index + start_sector, fat_partition_offset_in_512_byte_sectors))
    2324:	e0fff217 	ldw	r3,-56(fp)
    2328:	e0bff517 	ldw	r2,-44(fp)
    232c:	1885883a 	add	r2,r3,r2
    2330:	d0eaca17 	ldw	r3,-21720(gp)
    2334:	180b883a 	mov	r5,r3
    2338:	1009883a 	mov	r4,r2
    233c:	00003c80 	call	3c8 <Read_Sector_Data>
    2340:	10003226 	beq	r2,zero,240c <find_file_in_directory+0x3dc>
                {
                    int file_counter;
                    
                    for (file_counter = 0; file_counter < 16; file_counter++)
    2344:	e03ff315 	stw	zero,-52(fp)
    2348:	00002106 	br	23d0 <find_file_in_directory+0x3a0>
                    {
                        // Read file record.
                        Read_File_Record_At_Offset(file_counter*32, file_record, cluster, sector_index);
    234c:	e0bff317 	ldw	r2,-52(fp)
    2350:	1004917a 	slli	r2,r2,5
    2354:	e0ffed17 	ldw	r3,-76(fp)
    2358:	e13ff217 	ldw	r4,-56(fp)
    235c:	200f883a 	mov	r7,r4
    2360:	180d883a 	mov	r6,r3
    2364:	e17fff17 	ldw	r5,-4(fp)
    2368:	1009883a 	mov	r4,r2
    236c:	00007d80 	call	7d8 <Read_File_Record_At_Offset>
                        if ((file_record->name[0] != 0xe5) && (file_record->name[0] != 0x00))
    2370:	e0bfff17 	ldw	r2,-4(fp)
    2374:	10800003 	ldbu	r2,0(r2)
    2378:	10803fcc 	andi	r2,r2,255
    237c:	10803960 	cmpeqi	r2,r2,229
    2380:	1000101e 	bne	r2,zero,23c4 <find_file_in_directory+0x394>
    2384:	e0bfff17 	ldw	r2,-4(fp)
    2388:	10800003 	ldbu	r2,0(r2)
    238c:	10803fcc 	andi	r2,r2,255
    2390:	10000c26 	beq	r2,zero,23c4 <find_file_in_directory+0x394>
                        {
                            bool match = match_file_record_to_name_ext(file_record, name, extension);
    2394:	e0fffb04 	addi	r3,fp,-20
    2398:	e0bff904 	addi	r2,fp,-28
    239c:	180d883a 	mov	r6,r3
    23a0:	100b883a 	mov	r5,r2
    23a4:	e13fff17 	ldw	r4,-4(fp)
    23a8:	00018540 	call	1854 <match_file_record_to_name_ext>
    23ac:	e0bff615 	stw	r2,-40(fp)

                            if (match)
    23b0:	e0bff617 	ldw	r2,-40(fp)
    23b4:	10000326 	beq	r2,zero,23c4 <find_file_in_directory+0x394>
                            {                               
                                result = true;
    23b8:	00800044 	movi	r2,1
    23bc:	e0bfef15 	stw	r2,-68(fp)
                                break;
    23c0:	00000606 	br	23dc <find_file_in_directory+0x3ac>
            {
                if (Read_Sector_Data(sector_index + start_sector, fat_partition_offset_in_512_byte_sectors))
                {
                    int file_counter;
                    
                    for (file_counter = 0; file_counter < 16; file_counter++)
    23c4:	e0bff317 	ldw	r2,-52(fp)
    23c8:	10800044 	addi	r2,r2,1
    23cc:	e0bff315 	stw	r2,-52(fp)
    23d0:	e0bff317 	ldw	r2,-52(fp)
    23d4:	10800410 	cmplti	r2,r2,16
    23d8:	103fdc1e 	bne	r2,zero,234c <__alt_mem_onchip_memory+0xf780234c>
                }
                else
                {
                    break;
                }
                if (result)
    23dc:	e0bfef17 	ldw	r2,-68(fp)
    23e0:	10000c1e 	bne	r2,zero,2414 <find_file_in_directory+0x3e4>
    {          
        do {
            int start_sector = ( cluster - 2 ) * ( boot_sector_data.sectors_per_cluster ) + boot_sector_data.data_sector_offset;
            int sector_index;
            
            for (sector_index = 0; sector_index < boot_sector_data.sectors_per_cluster; sector_index++)
    23e4:	e0bff217 	ldw	r2,-56(fp)
    23e8:	10800044 	addi	r2,r2,1
    23ec:	e0bff215 	stw	r2,-56(fp)
    23f0:	00800134 	movhi	r2,4
    23f4:	10a49f04 	addi	r2,r2,-28036
    23f8:	10800383 	ldbu	r2,14(r2)
    23fc:	10803fcc 	andi	r2,r2,255
    2400:	e0fff217 	ldw	r3,-56(fp)
    2404:	18bfc716 	blt	r3,r2,2324 <__alt_mem_onchip_memory+0xf7802324>
    2408:	00000306 	br	2418 <find_file_in_directory+0x3e8>
                        }
                    }
                }
                else
                {
                    break;
    240c:	0001883a 	nop
    2410:	00000106 	br	2418 <find_file_in_directory+0x3e8>
                }
                if (result)
                {
                    break;
    2414:	0001883a 	nop
                }
            }
            // If this is the end of the cluster and the file has not been found, then see if there is another cluster
            // that holds data for the current directory.
            if (result == false)
    2418:	e0bfef17 	ldw	r2,-68(fp)
    241c:	1000141e 	bne	r2,zero,2470 <find_file_in_directory+0x440>
            {
				unsigned short int new_cluster;

				if (get_cluster_flag(cluster, &new_cluster))
    2420:	e0bfed17 	ldw	r2,-76(fp)
    2424:	e0fffc04 	addi	r3,fp,-16
    2428:	180b883a 	mov	r5,r3
    242c:	1009883a 	mov	r4,r2
    2430:	00004a00 	call	4a0 <get_cluster_flag>
    2434:	10000c26 	beq	r2,zero,2468 <find_file_in_directory+0x438>
				{
					// The directory needs to be expanded to store more files.
					if ((new_cluster & 0x0000fff8) == 0x0000fff8)
    2438:	e0bffc0b 	ldhu	r2,-16(fp)
    243c:	10bfffcc 	andi	r2,r2,65535
    2440:	10fffe0c 	andi	r3,r2,65528
    2444:	00bffe14 	movui	r2,65528
    2448:	1880021e 	bne	r3,r2,2454 <find_file_in_directory+0x424>
					{
						return false;
    244c:	0005883a 	mov	r2,zero
    2450:	00001106 	br	2498 <find_file_in_directory+0x468>
					}
					cluster = (new_cluster & 0x0000fff8);
    2454:	e0bffc0b 	ldhu	r2,-16(fp)
    2458:	10bfffcc 	andi	r2,r2,65535
    245c:	10bffe0c 	andi	r2,r2,65528
    2460:	e0bfed15 	stw	r2,-76(fp)
    2464:	00000206 	br	2470 <find_file_in_directory+0x440>
				}
				else
                {
                    // Directory path is invalid.                 
                    return false;
    2468:	0005883a 	mov	r2,zero
    246c:	00000a06 	br	2498 <find_file_in_directory+0x468>
                }
            }              
        } while ((cluster < 0x0000fff8) && (result == false));
    2470:	e0bfed17 	ldw	r2,-76(fp)
    2474:	00fffdd4 	movui	r3,65527
    2478:	18800616 	blt	r3,r2,2494 <find_file_in_directory+0x464>
    247c:	e0bfef17 	ldw	r2,-68(fp)
    2480:	103f9926 	beq	r2,zero,22e8 <__alt_mem_onchip_memory+0xf78022e8>
    2484:	00000306 	br	2494 <find_file_in_directory+0x464>
                    }
                }
            }
            else
            {
                break;
    2488:	0001883a 	nop
    248c:	00000106 	br	2494 <find_file_in_directory+0x464>
            }
            if (result)
            {
                break;
    2490:	0001883a 	nop
                }
            }              
        } while ((cluster < 0x0000fff8) && (result == false));
    }
    
    return result;   
    2494:	e0bfef17 	ldw	r2,-68(fp)
}
    2498:	e037883a 	mov	sp,fp
    249c:	dfc00117 	ldw	ra,4(sp)
    24a0:	df000017 	ldw	fp,0(sp)
    24a4:	dec00204 	addi	sp,sp,8
    24a8:	f800283a 	ret

000024ac <find_first_empty_cluster>:


bool find_first_empty_cluster(unsigned int *cluster_number)
// Find the first empty cluster. It will be marked by a 0 entry in the File Allocation Table.
{
    24ac:	defff504 	addi	sp,sp,-44
    24b0:	dfc00a15 	stw	ra,40(sp)
    24b4:	df000915 	stw	fp,36(sp)
    24b8:	df000904 	addi	fp,sp,36
    24bc:	e13fff15 	stw	r4,-4(fp)
    unsigned int sector = boot_sector_data.first_fat_sector_offset;
    24c0:	00800134 	movhi	r2,4
    24c4:	10a49f04 	addi	r2,r2,-28036
    24c8:	10801117 	ldw	r2,68(r2)
    24cc:	e0bff715 	stw	r2,-36(fp)
    unsigned int cluster_index = 2;
    24d0:	00800084 	movi	r2,2
    24d4:	e0bff815 	stw	r2,-32(fp)
    short int cluster = -1;
    24d8:	00bfffc4 	movi	r2,-1
    24dc:	e0bff90d 	sth	r2,-28(fp)
    bool result = false;
    24e0:	e03ffa15 	stw	zero,-24(fp)
	unsigned max_cluster_index = 0;
    24e4:	e03ffb15 	stw	zero,-20(fp)
	unsigned int non_data_sectors = boot_sector_data.data_sector_offset;
    24e8:	00800134 	movhi	r2,4
    24ec:	10a49f04 	addi	r2,r2,-28036
    24f0:	10801417 	ldw	r2,80(r2)
    24f4:	e0bffc15 	stw	r2,-16(fp)
	unsigned int less_than_32 = boot_sector_data.number_of_sectors_in_partition;
    24f8:	00800134 	movhi	r2,4
    24fc:	10a49f04 	addi	r2,r2,-28036
    2500:	1080058b 	ldhu	r2,22(r2)
    2504:	10bfffcc 	andi	r2,r2,65535
    2508:	e0bffd15 	stw	r2,-12(fp)
	unsigned int greater_than_32 = boot_sector_data.total_sector_count_if_above_32MB;
    250c:	00800134 	movhi	r2,4
    2510:	10a49f04 	addi	r2,r2,-28036
    2514:	10800917 	ldw	r2,36(r2)
    2518:	e0bffe15 	stw	r2,-8(fp)

	if (less_than_32 > greater_than_32)
    251c:	e0bffd17 	ldw	r2,-12(fp)
    2520:	e0fffe17 	ldw	r3,-8(fp)
    2524:	18800d2e 	bgeu	r3,r2,255c <find_first_empty_cluster+0xb0>
	{
		max_cluster_index = ((less_than_32 - non_data_sectors) / boot_sector_data.sectors_per_cluster) + 1;
    2528:	e0fffd17 	ldw	r3,-12(fp)
    252c:	e0bffc17 	ldw	r2,-16(fp)
    2530:	1887c83a 	sub	r3,r3,r2
    2534:	00800134 	movhi	r2,4
    2538:	10a49f04 	addi	r2,r2,-28036
    253c:	10800383 	ldbu	r2,14(r2)
    2540:	10803fcc 	andi	r2,r2,255
    2544:	100b883a 	mov	r5,r2
    2548:	1809883a 	mov	r4,r3
    254c:	0008aa00 	call	8aa0 <__udivsi3>
    2550:	10800044 	addi	r2,r2,1
    2554:	e0bffb15 	stw	r2,-20(fp)
    2558:	00002c06 	br	260c <find_first_empty_cluster+0x160>
	}
	else
	{
		max_cluster_index = ((greater_than_32 - non_data_sectors) / boot_sector_data.sectors_per_cluster) + 1;
    255c:	e0fffe17 	ldw	r3,-8(fp)
    2560:	e0bffc17 	ldw	r2,-16(fp)
    2564:	1887c83a 	sub	r3,r3,r2
    2568:	00800134 	movhi	r2,4
    256c:	10a49f04 	addi	r2,r2,-28036
    2570:	10800383 	ldbu	r2,14(r2)
    2574:	10803fcc 	andi	r2,r2,255
    2578:	100b883a 	mov	r5,r2
    257c:	1809883a 	mov	r4,r3
    2580:	0008aa00 	call	8aa0 <__udivsi3>
    2584:	10800044 	addi	r2,r2,1
    2588:	e0bffb15 	stw	r2,-20(fp)
	}
    // Find an empty cluster for the file.
    while (sector != boot_sector_data.second_fat_sector_offset)
    258c:	00001f06 	br	260c <find_first_empty_cluster+0x160>
    {
        if (Read_Sector_Data( sector, fat_partition_offset_in_512_byte_sectors))
    2590:	e0bff717 	ldw	r2,-36(fp)
    2594:	d0eaca17 	ldw	r3,-21720(gp)
    2598:	180b883a 	mov	r5,r3
    259c:	1009883a 	mov	r4,r2
    25a0:	00003c80 	call	3c8 <Read_Sector_Data>
    25a4:	10001426 	beq	r2,zero,25f8 <find_first_empty_cluster+0x14c>
        {
            do {
                cluster = ((unsigned short int) IORD_16DIRECT(device_pointer->base, 2*(cluster_index % 256)));
    25a8:	e0bff817 	ldw	r2,-32(fp)
    25ac:	10803fcc 	andi	r2,r2,255
    25b0:	1085883a 	add	r2,r2,r2
    25b4:	1007883a 	mov	r3,r2
    25b8:	d0aacc17 	ldw	r2,-21712(gp)
    25bc:	10800a17 	ldw	r2,40(r2)
    25c0:	1885883a 	add	r2,r3,r2
    25c4:	1080002b 	ldhuio	r2,0(r2)
    25c8:	10bfffcc 	andi	r2,r2,65535
    25cc:	e0bff90d 	sth	r2,-28(fp)
                if (cluster == 0)
    25d0:	e0bff90f 	ldh	r2,-28(fp)
    25d4:	10000726 	beq	r2,zero,25f4 <find_first_empty_cluster+0x148>
                    // Free cluster found.
                    break;
                }
                else
                {
                    cluster_index++;
    25d8:	e0bff817 	ldw	r2,-32(fp)
    25dc:	10800044 	addi	r2,r2,1
    25e0:	e0bff815 	stw	r2,-32(fp)
                } 
            } while ((cluster_index % 256) != 0);
    25e4:	e0bff817 	ldw	r2,-32(fp)
    25e8:	10803fcc 	andi	r2,r2,255
    25ec:	103fee1e 	bne	r2,zero,25a8 <__alt_mem_onchip_memory+0xf78025a8>
    25f0:	00000106 	br	25f8 <find_first_empty_cluster+0x14c>
            do {
                cluster = ((unsigned short int) IORD_16DIRECT(device_pointer->base, 2*(cluster_index % 256)));
                if (cluster == 0)
                {
                    // Free cluster found.
                    break;
    25f4:	0001883a 	nop
                {
                    cluster_index++;
                } 
            } while ((cluster_index % 256) != 0);
        }
        if (cluster == 0)
    25f8:	e0bff90f 	ldh	r2,-28(fp)
    25fc:	10000926 	beq	r2,zero,2624 <find_first_empty_cluster+0x178>
        {
            break;
        }
        sector++;
    2600:	e0bff717 	ldw	r2,-36(fp)
    2604:	10800044 	addi	r2,r2,1
    2608:	e0bff715 	stw	r2,-36(fp)
	else
	{
		max_cluster_index = ((greater_than_32 - non_data_sectors) / boot_sector_data.sectors_per_cluster) + 1;
	}
    // Find an empty cluster for the file.
    while (sector != boot_sector_data.second_fat_sector_offset)
    260c:	00800134 	movhi	r2,4
    2610:	10a49f04 	addi	r2,r2,-28036
    2614:	10c01217 	ldw	r3,72(r2)
    2618:	e0bff717 	ldw	r2,-36(fp)
    261c:	18bfdc1e 	bne	r3,r2,2590 <__alt_mem_onchip_memory+0xf7802590>
    2620:	00000106 	br	2628 <find_first_empty_cluster+0x17c>
                } 
            } while ((cluster_index % 256) != 0);
        }
        if (cluster == 0)
        {
            break;
    2624:	0001883a 	nop
        }
        sector++;
    }
    if ((cluster == 0) && (cluster <= max_cluster_index))
    2628:	e0bff90f 	ldh	r2,-28(fp)
    262c:	1000081e 	bne	r2,zero,2650 <find_first_empty_cluster+0x1a4>
    2630:	e0bff90f 	ldh	r2,-28(fp)
    2634:	e0fffb17 	ldw	r3,-20(fp)
    2638:	18800536 	bltu	r3,r2,2650 <find_first_empty_cluster+0x1a4>
    {
        *cluster_number = cluster_index;
    263c:	e0bfff17 	ldw	r2,-4(fp)
    2640:	e0fff817 	ldw	r3,-32(fp)
    2644:	10c00015 	stw	r3,0(r2)
		result = true;
    2648:	00800044 	movi	r2,1
    264c:	e0bffa15 	stw	r2,-24(fp)
    }
    return result;
    2650:	e0bffa17 	ldw	r2,-24(fp)
}
    2654:	e037883a 	mov	sp,fp
    2658:	dfc00117 	ldw	ra,4(sp)
    265c:	df000017 	ldw	fp,0(sp)
    2660:	dec00204 	addi	sp,sp,8
    2664:	f800283a 	ret

00002668 <find_first_empty_record_in_a_subdirectory>:


int find_first_empty_record_in_a_subdirectory(int start_cluster_index)
// Search for a free spot in a subdirectory. Return an encoded location for the file record.
{
    2668:	defff604 	addi	sp,sp,-40
    266c:	dfc00915 	stw	ra,36(sp)
    2670:	df000815 	stw	fp,32(sp)
    2674:	df000804 	addi	fp,sp,32
    2678:	e13fff15 	stw	r4,-4(fp)
    int result = -1;
    267c:	00bfffc4 	movi	r2,-1
    2680:	e0bff815 	stw	r2,-32(fp)
    int cluster = start_cluster_index;
    2684:	e0bfff17 	ldw	r2,-4(fp)
    2688:	e0bff915 	stw	r2,-28(fp)
    do {
        int start_sector = ( cluster - 2 ) * ( boot_sector_data.sectors_per_cluster ) + boot_sector_data.data_sector_offset;
    268c:	e0bff917 	ldw	r2,-28(fp)
    2690:	10ffff84 	addi	r3,r2,-2
    2694:	00800134 	movhi	r2,4
    2698:	10a49f04 	addi	r2,r2,-28036
    269c:	10800383 	ldbu	r2,14(r2)
    26a0:	10803fcc 	andi	r2,r2,255
    26a4:	1885383a 	mul	r2,r3,r2
    26a8:	1007883a 	mov	r3,r2
    26ac:	00800134 	movhi	r2,4
    26b0:	10a49f04 	addi	r2,r2,-28036
    26b4:	10801417 	ldw	r2,80(r2)
    26b8:	1885883a 	add	r2,r3,r2
    26bc:	e0bffc15 	stw	r2,-16(fp)
        int sector_index;
        
        for (sector_index = 0; sector_index < boot_sector_data.sectors_per_cluster; sector_index++)
    26c0:	e03ffa15 	stw	zero,-24(fp)
    26c4:	00002c06 	br	2778 <find_first_empty_record_in_a_subdirectory+0x110>
        {
            if (Read_Sector_Data(sector_index + start_sector, fat_partition_offset_in_512_byte_sectors))
    26c8:	e0fffa17 	ldw	r3,-24(fp)
    26cc:	e0bffc17 	ldw	r2,-16(fp)
    26d0:	1885883a 	add	r2,r3,r2
    26d4:	d0eaca17 	ldw	r3,-21720(gp)
    26d8:	180b883a 	mov	r5,r3
    26dc:	1009883a 	mov	r4,r2
    26e0:	00003c80 	call	3c8 <Read_Sector_Data>
    26e4:	10002b26 	beq	r2,zero,2794 <find_first_empty_record_in_a_subdirectory+0x12c>
            {
                int file_counter;
                
                for (file_counter = 0; file_counter < 16; file_counter++)
    26e8:	e03ffb15 	stw	zero,-20(fp)
    26ec:	00001c06 	br	2760 <find_first_empty_record_in_a_subdirectory+0xf8>
                {
                    unsigned short int leading_char;
                    
                    // Read file record.
                    leading_char = ((unsigned char) IORD_8DIRECT(device_pointer->base, file_counter*32));
    26f0:	e0bffb17 	ldw	r2,-20(fp)
    26f4:	1004917a 	slli	r2,r2,5
    26f8:	1007883a 	mov	r3,r2
    26fc:	d0aacc17 	ldw	r2,-21712(gp)
    2700:	10800a17 	ldw	r2,40(r2)
    2704:	1885883a 	add	r2,r3,r2
    2708:	10800023 	ldbuio	r2,0(r2)
    270c:	10803fcc 	andi	r2,r2,255
    2710:	10803fcc 	andi	r2,r2,255
    2714:	e0bffd0d 	sth	r2,-12(fp)
                    if ((leading_char == 0x00e5) || (leading_char == 0))
    2718:	e0bffd0b 	ldhu	r2,-12(fp)
    271c:	10803960 	cmpeqi	r2,r2,229
    2720:	1000021e 	bne	r2,zero,272c <find_first_empty_record_in_a_subdirectory+0xc4>
    2724:	e0bffd0b 	ldhu	r2,-12(fp)
    2728:	10000a1e 	bne	r2,zero,2754 <find_first_empty_record_in_a_subdirectory+0xec>
                    {
                        result = (cluster) | ((sector_index*16 + file_counter) << 16);
    272c:	e0bffa17 	ldw	r2,-24(fp)
    2730:	1006913a 	slli	r3,r2,4
    2734:	e0bffb17 	ldw	r2,-20(fp)
    2738:	1885883a 	add	r2,r3,r2
    273c:	1006943a 	slli	r3,r2,16
    2740:	e0bff917 	ldw	r2,-28(fp)
    2744:	1884b03a 	or	r2,r3,r2
    2748:	e0bff815 	stw	r2,-32(fp)
                        return result;
    274c:	e0bff817 	ldw	r2,-32(fp)
    2750:	00005306 	br	28a0 <find_first_empty_record_in_a_subdirectory+0x238>
        {
            if (Read_Sector_Data(sector_index + start_sector, fat_partition_offset_in_512_byte_sectors))
            {
                int file_counter;
                
                for (file_counter = 0; file_counter < 16; file_counter++)
    2754:	e0bffb17 	ldw	r2,-20(fp)
    2758:	10800044 	addi	r2,r2,1
    275c:	e0bffb15 	stw	r2,-20(fp)
    2760:	e0bffb17 	ldw	r2,-20(fp)
    2764:	10800410 	cmplti	r2,r2,16
    2768:	103fe11e 	bne	r2,zero,26f0 <__alt_mem_onchip_memory+0xf78026f0>
    int cluster = start_cluster_index;
    do {
        int start_sector = ( cluster - 2 ) * ( boot_sector_data.sectors_per_cluster ) + boot_sector_data.data_sector_offset;
        int sector_index;
        
        for (sector_index = 0; sector_index < boot_sector_data.sectors_per_cluster; sector_index++)
    276c:	e0bffa17 	ldw	r2,-24(fp)
    2770:	10800044 	addi	r2,r2,1
    2774:	e0bffa15 	stw	r2,-24(fp)
    2778:	00800134 	movhi	r2,4
    277c:	10a49f04 	addi	r2,r2,-28036
    2780:	10800383 	ldbu	r2,14(r2)
    2784:	10803fcc 	andi	r2,r2,255
    2788:	e0fffa17 	ldw	r3,-24(fp)
    278c:	18bfce16 	blt	r3,r2,26c8 <__alt_mem_onchip_memory+0xf78026c8>
    2790:	00000106 	br	2798 <find_first_empty_record_in_a_subdirectory+0x130>
                    }
                }
            }
            else
            {
                break;
    2794:	0001883a 	nop
            }
        }
        // If this is the end of the cluster and the file has not been found, then see if there is another cluster
        // that holds data for the current directory.
        if (result < 0)
    2798:	e0bff817 	ldw	r2,-32(fp)
    279c:	1000390e 	bge	r2,zero,2884 <find_first_empty_record_in_a_subdirectory+0x21c>
        {
			unsigned short int new_cluster;
			if (get_cluster_flag(cluster, &new_cluster))
    27a0:	e0bff917 	ldw	r2,-28(fp)
    27a4:	e0fffd84 	addi	r3,fp,-10
    27a8:	180b883a 	mov	r5,r3
    27ac:	1009883a 	mov	r4,r2
    27b0:	00004a00 	call	4a0 <get_cluster_flag>
    27b4:	10003126 	beq	r2,zero,287c <find_first_empty_record_in_a_subdirectory+0x214>
			{
                // The directory needs to be expanded to store more files.
				if ((new_cluster & 0x0000fff8) == 0x0000fff8)
    27b8:	e0bffd8b 	ldhu	r2,-10(fp)
    27bc:	10bfffcc 	andi	r2,r2,65535
    27c0:	10fffe0c 	andi	r3,r2,65528
    27c4:	00bffe14 	movui	r2,65528
    27c8:	18802e1e 	bne	r3,r2,2884 <find_first_empty_record_in_a_subdirectory+0x21c>
				{
					int new_dir_cluster; 
					if (find_first_empty_cluster(&new_dir_cluster))
    27cc:	e0bffe04 	addi	r2,fp,-8
    27d0:	1009883a 	mov	r4,r2
    27d4:	00024ac0 	call	24ac <find_first_empty_cluster>
    27d8:	10002326 	beq	r2,zero,2868 <find_first_empty_record_in_a_subdirectory+0x200>
					{
						// Add the new cluster to the linked list of the given directory.
						if (mark_cluster(cluster, ((short int) (new_dir_cluster)), true) &&
    27dc:	e0bff917 	ldw	r2,-28(fp)
    27e0:	e0fffe17 	ldw	r3,-8(fp)
    27e4:	18ffffcc 	andi	r3,r3,65535
    27e8:	18e0001c 	xori	r3,r3,32768
    27ec:	18e00004 	addi	r3,r3,-32768
    27f0:	01800044 	movi	r6,1
    27f4:	180b883a 	mov	r5,r3
    27f8:	1009883a 	mov	r4,r2
    27fc:	00005540 	call	554 <mark_cluster>
    2800:	10001926 	beq	r2,zero,2868 <find_first_empty_record_in_a_subdirectory+0x200>
							mark_cluster(new_dir_cluster, ((short int) (0xffff)), true) &&
    2804:	e0bffe17 	ldw	r2,-8(fp)
    2808:	01800044 	movi	r6,1
    280c:	017fffc4 	movi	r5,-1
    2810:	1009883a 	mov	r4,r2
    2814:	00005540 	call	554 <mark_cluster>
				{
					int new_dir_cluster; 
					if (find_first_empty_cluster(&new_dir_cluster))
					{
						// Add the new cluster to the linked list of the given directory.
						if (mark_cluster(cluster, ((short int) (new_dir_cluster)), true) &&
    2818:	10001326 	beq	r2,zero,2868 <find_first_empty_record_in_a_subdirectory+0x200>
							mark_cluster(new_dir_cluster, ((short int) (0xffff)), true) &&
							mark_cluster(cluster, ((short int) (new_dir_cluster)), false) &&
    281c:	e0bff917 	ldw	r2,-28(fp)
    2820:	e0fffe17 	ldw	r3,-8(fp)
    2824:	18ffffcc 	andi	r3,r3,65535
    2828:	18e0001c 	xori	r3,r3,32768
    282c:	18e00004 	addi	r3,r3,-32768
    2830:	000d883a 	mov	r6,zero
    2834:	180b883a 	mov	r5,r3
    2838:	1009883a 	mov	r4,r2
    283c:	00005540 	call	554 <mark_cluster>
					int new_dir_cluster; 
					if (find_first_empty_cluster(&new_dir_cluster))
					{
						// Add the new cluster to the linked list of the given directory.
						if (mark_cluster(cluster, ((short int) (new_dir_cluster)), true) &&
							mark_cluster(new_dir_cluster, ((short int) (0xffff)), true) &&
    2840:	10000926 	beq	r2,zero,2868 <find_first_empty_record_in_a_subdirectory+0x200>
							mark_cluster(cluster, ((short int) (new_dir_cluster)), false) &&
							mark_cluster(new_dir_cluster, ((short int) (0xffff)), false))
    2844:	e0bffe17 	ldw	r2,-8(fp)
    2848:	000d883a 	mov	r6,zero
    284c:	017fffc4 	movi	r5,-1
    2850:	1009883a 	mov	r4,r2
    2854:	00005540 	call	554 <mark_cluster>
					if (find_first_empty_cluster(&new_dir_cluster))
					{
						// Add the new cluster to the linked list of the given directory.
						if (mark_cluster(cluster, ((short int) (new_dir_cluster)), true) &&
							mark_cluster(new_dir_cluster, ((short int) (0xffff)), true) &&
							mark_cluster(cluster, ((short int) (new_dir_cluster)), false) &&
    2858:	10000326 	beq	r2,zero,2868 <find_first_empty_record_in_a_subdirectory+0x200>
							mark_cluster(new_dir_cluster, ((short int) (0xffff)), false))
						{
							Save_Modified_Sector();
    285c:	000037c0 	call	37c <Save_Modified_Sector>
							// The new file will begin at the first entry of the directory.
							result = new_dir_cluster;                           
    2860:	e0bffe17 	ldw	r2,-8(fp)
    2864:	e0bff815 	stw	r2,-32(fp)
						}
					}
					cluster = (new_cluster & 0x0000fff8);
    2868:	e0bffd8b 	ldhu	r2,-10(fp)
    286c:	10bfffcc 	andi	r2,r2,65535
    2870:	10bffe0c 	andi	r2,r2,65528
    2874:	e0bff915 	stw	r2,-28(fp)
    2878:	00000206 	br	2884 <find_first_empty_record_in_a_subdirectory+0x21c>
				}
			}
			else
			{
				// Error encountered.                 
				result = -1;
    287c:	00bfffc4 	movi	r2,-1
    2880:	e0bff815 	stw	r2,-32(fp)
			}
        }              
    } while ((cluster < 0x0000fff8) && (result == -1)); 
    2884:	e0bff917 	ldw	r2,-28(fp)
    2888:	00fffdd4 	movui	r3,65527
    288c:	18800316 	blt	r3,r2,289c <find_first_empty_record_in_a_subdirectory+0x234>
    2890:	e0bff817 	ldw	r2,-32(fp)
    2894:	10bfffe0 	cmpeqi	r2,r2,-1
    2898:	103f7c1e 	bne	r2,zero,268c <__alt_mem_onchip_memory+0xf780268c>
    return result; 
    289c:	e0bff817 	ldw	r2,-32(fp)
}
    28a0:	e037883a 	mov	sp,fp
    28a4:	dfc00117 	ldw	ra,4(sp)
    28a8:	df000017 	ldw	fp,0(sp)
    28ac:	dec00204 	addi	sp,sp,8
    28b0:	f800283a 	ret

000028b4 <find_first_empty_record_in_root_directory>:


int find_first_empty_record_in_root_directory()
// Find a first unused record location to use. Return -1 if none is found.
{
    28b4:	defff904 	addi	sp,sp,-28
    28b8:	dfc00615 	stw	ra,24(sp)
    28bc:	df000515 	stw	fp,20(sp)
    28c0:	df000504 	addi	fp,sp,20
    int max_root_dir_sectors = ((32*boot_sector_data.max_number_of_dir_entires) / boot_sector_data.sector_size_in_bytes);
    28c4:	00800134 	movhi	r2,4
    28c8:	10a49f04 	addi	r2,r2,-28036
    28cc:	1080050b 	ldhu	r2,20(r2)
    28d0:	10bfffcc 	andi	r2,r2,65535
    28d4:	1006917a 	slli	r3,r2,5
    28d8:	00800134 	movhi	r2,4
    28dc:	10a49f04 	addi	r2,r2,-28036
    28e0:	1080030b 	ldhu	r2,12(r2)
    28e4:	10bfffcc 	andi	r2,r2,65535
    28e8:	100b883a 	mov	r5,r2
    28ec:	1809883a 	mov	r4,r3
    28f0:	00089a80 	call	89a8 <__divsi3>
    28f4:	e0bffd15 	stw	r2,-12(fp)
    int sector_index;
    int result = -1;
    28f8:	00bfffc4 	movi	r2,-1
    28fc:	e0bffe15 	stw	r2,-8(fp)
    
    for (sector_index = 0; sector_index < max_root_dir_sectors; sector_index++)
    2900:	e03ffb15 	stw	zero,-20(fp)
    2904:	00002d06 	br	29bc <find_first_empty_record_in_root_directory+0x108>
    {
        if (Read_Sector_Data(   sector_index + boot_sector_data.root_directory_sector_offset,
    2908:	00800134 	movhi	r2,4
    290c:	10a49f04 	addi	r2,r2,-28036
    2910:	10c01317 	ldw	r3,76(r2)
    2914:	e0bffb17 	ldw	r2,-20(fp)
    2918:	1885883a 	add	r2,r3,r2
    291c:	1007883a 	mov	r3,r2
    2920:	d0aaca17 	ldw	r2,-21720(gp)
    2924:	100b883a 	mov	r5,r2
    2928:	1809883a 	mov	r4,r3
    292c:	00003c80 	call	3c8 <Read_Sector_Data>
    2930:	10002626 	beq	r2,zero,29cc <find_first_empty_record_in_root_directory+0x118>
                                fat_partition_offset_in_512_byte_sectors))
        {
            int file_counter;
            
            for (file_counter = 0; file_counter < 16; file_counter++)
    2934:	e03ffc15 	stw	zero,-16(fp)
    2938:	00001a06 	br	29a4 <find_first_empty_record_in_root_directory+0xf0>
            {
                unsigned short int leading_char;
                
                // Read first character of the file record.
                leading_char = ((unsigned char) IORD_8DIRECT(device_pointer->base, file_counter*32));
    293c:	e0bffc17 	ldw	r2,-16(fp)
    2940:	1004917a 	slli	r2,r2,5
    2944:	1007883a 	mov	r3,r2
    2948:	d0aacc17 	ldw	r2,-21712(gp)
    294c:	10800a17 	ldw	r2,40(r2)
    2950:	1885883a 	add	r2,r3,r2
    2954:	10800023 	ldbuio	r2,0(r2)
    2958:	10803fcc 	andi	r2,r2,255
    295c:	10803fcc 	andi	r2,r2,255
    2960:	e0bfff0d 	sth	r2,-4(fp)
                if ((leading_char == 0x00e5) || (leading_char == 0))
    2964:	e0bfff0b 	ldhu	r2,-4(fp)
    2968:	10803960 	cmpeqi	r2,r2,229
    296c:	1000021e 	bne	r2,zero,2978 <find_first_empty_record_in_root_directory+0xc4>
    2970:	e0bfff0b 	ldhu	r2,-4(fp)
    2974:	1000081e 	bne	r2,zero,2998 <find_first_empty_record_in_root_directory+0xe4>
                {
                    result = (sector_index*16 + file_counter) << 16;
    2978:	e0bffb17 	ldw	r2,-20(fp)
    297c:	1006913a 	slli	r3,r2,4
    2980:	e0bffc17 	ldw	r2,-16(fp)
    2984:	1885883a 	add	r2,r3,r2
    2988:	1004943a 	slli	r2,r2,16
    298c:	e0bffe15 	stw	r2,-8(fp)
                    return result;
    2990:	e0bffe17 	ldw	r2,-8(fp)
    2994:	00000f06 	br	29d4 <find_first_empty_record_in_root_directory+0x120>
        if (Read_Sector_Data(   sector_index + boot_sector_data.root_directory_sector_offset,
                                fat_partition_offset_in_512_byte_sectors))
        {
            int file_counter;
            
            for (file_counter = 0; file_counter < 16; file_counter++)
    2998:	e0bffc17 	ldw	r2,-16(fp)
    299c:	10800044 	addi	r2,r2,1
    29a0:	e0bffc15 	stw	r2,-16(fp)
    29a4:	e0bffc17 	ldw	r2,-16(fp)
    29a8:	10800410 	cmplti	r2,r2,16
    29ac:	103fe31e 	bne	r2,zero,293c <__alt_mem_onchip_memory+0xf780293c>
{
    int max_root_dir_sectors = ((32*boot_sector_data.max_number_of_dir_entires) / boot_sector_data.sector_size_in_bytes);
    int sector_index;
    int result = -1;
    
    for (sector_index = 0; sector_index < max_root_dir_sectors; sector_index++)
    29b0:	e0bffb17 	ldw	r2,-20(fp)
    29b4:	10800044 	addi	r2,r2,1
    29b8:	e0bffb15 	stw	r2,-20(fp)
    29bc:	e0fffb17 	ldw	r3,-20(fp)
    29c0:	e0bffd17 	ldw	r2,-12(fp)
    29c4:	18bfd016 	blt	r3,r2,2908 <__alt_mem_onchip_memory+0xf7802908>
    29c8:	00000106 	br	29d0 <find_first_empty_record_in_root_directory+0x11c>
                }
            }
        }
        else
        {
            break;
    29cc:	0001883a 	nop
        }
    }
    return result;
    29d0:	e0bffe17 	ldw	r2,-8(fp)
}
    29d4:	e037883a 	mov	sp,fp
    29d8:	dfc00117 	ldw	ra,4(sp)
    29dc:	df000017 	ldw	fp,0(sp)
    29e0:	dec00204 	addi	sp,sp,8
    29e4:	f800283a 	ret

000029e8 <convert_filename_to_name_extension>:

void convert_filename_to_name_extension(char *filename, char *name, char *extension)
// This function converts the file name into a name . extension format.
{
    29e8:	defffa04 	addi	sp,sp,-24
    29ec:	df000515 	stw	fp,20(sp)
    29f0:	df000504 	addi	fp,sp,20
    29f4:	e13ffd15 	stw	r4,-12(fp)
    29f8:	e17ffe15 	stw	r5,-8(fp)
    29fc:	e1bfff15 	stw	r6,-4(fp)
    int counter;
    int local = 0;
    2a00:	e03ffc15 	stw	zero,-16(fp)
    
    for(counter = 0; counter < 8; counter++)
    2a04:	e03ffb15 	stw	zero,-20(fp)
    2a08:	00002506 	br	2aa0 <convert_filename_to_name_extension+0xb8>
    {
        if (filename[local] != '.')
    2a0c:	e0bffc17 	ldw	r2,-16(fp)
    2a10:	e0fffd17 	ldw	r3,-12(fp)
    2a14:	1885883a 	add	r2,r3,r2
    2a18:	10800003 	ldbu	r2,0(r2)
    2a1c:	10803fcc 	andi	r2,r2,255
    2a20:	1080201c 	xori	r2,r2,128
    2a24:	10bfe004 	addi	r2,r2,-128
    2a28:	10800ba0 	cmpeqi	r2,r2,46
    2a2c:	1000141e 	bne	r2,zero,2a80 <convert_filename_to_name_extension+0x98>
        {
            name[counter] = filename[local];
    2a30:	e0bffb17 	ldw	r2,-20(fp)
    2a34:	e0fffe17 	ldw	r3,-8(fp)
    2a38:	1885883a 	add	r2,r3,r2
    2a3c:	e0fffc17 	ldw	r3,-16(fp)
    2a40:	e13ffd17 	ldw	r4,-12(fp)
    2a44:	20c7883a 	add	r3,r4,r3
    2a48:	18c00003 	ldbu	r3,0(r3)
    2a4c:	10c00005 	stb	r3,0(r2)
            if (filename[local] != 0) local++;
    2a50:	e0bffc17 	ldw	r2,-16(fp)
    2a54:	e0fffd17 	ldw	r3,-12(fp)
    2a58:	1885883a 	add	r2,r3,r2
    2a5c:	10800003 	ldbu	r2,0(r2)
    2a60:	10803fcc 	andi	r2,r2,255
    2a64:	1080201c 	xori	r2,r2,128
    2a68:	10bfe004 	addi	r2,r2,-128
    2a6c:	10000926 	beq	r2,zero,2a94 <convert_filename_to_name_extension+0xac>
    2a70:	e0bffc17 	ldw	r2,-16(fp)
    2a74:	10800044 	addi	r2,r2,1
    2a78:	e0bffc15 	stw	r2,-16(fp)
    2a7c:	00000506 	br	2a94 <convert_filename_to_name_extension+0xac>
        }
        else
        {
            name[counter] = ' ';
    2a80:	e0bffb17 	ldw	r2,-20(fp)
    2a84:	e0fffe17 	ldw	r3,-8(fp)
    2a88:	1885883a 	add	r2,r3,r2
    2a8c:	00c00804 	movi	r3,32
    2a90:	10c00005 	stb	r3,0(r2)
// This function converts the file name into a name . extension format.
{
    int counter;
    int local = 0;
    
    for(counter = 0; counter < 8; counter++)
    2a94:	e0bffb17 	ldw	r2,-20(fp)
    2a98:	10800044 	addi	r2,r2,1
    2a9c:	e0bffb15 	stw	r2,-20(fp)
    2aa0:	e0bffb17 	ldw	r2,-20(fp)
    2aa4:	10800210 	cmplti	r2,r2,8
    2aa8:	103fd81e 	bne	r2,zero,2a0c <__alt_mem_onchip_memory+0xf7802a0c>
        else
        {
            name[counter] = ' ';
        }
    }
    if (filename[local] == '.') local++;
    2aac:	e0bffc17 	ldw	r2,-16(fp)
    2ab0:	e0fffd17 	ldw	r3,-12(fp)
    2ab4:	1885883a 	add	r2,r3,r2
    2ab8:	10800003 	ldbu	r2,0(r2)
    2abc:	10803fcc 	andi	r2,r2,255
    2ac0:	1080201c 	xori	r2,r2,128
    2ac4:	10bfe004 	addi	r2,r2,-128
    2ac8:	10800b98 	cmpnei	r2,r2,46
    2acc:	1000031e 	bne	r2,zero,2adc <convert_filename_to_name_extension+0xf4>
    2ad0:	e0bffc17 	ldw	r2,-16(fp)
    2ad4:	10800044 	addi	r2,r2,1
    2ad8:	e0bffc15 	stw	r2,-16(fp)
    for(counter = 0; counter < 3; counter++)
    2adc:	e03ffb15 	stw	zero,-20(fp)
    2ae0:	00001c06 	br	2b54 <convert_filename_to_name_extension+0x16c>
    {
        if (filename[local] != 0)
    2ae4:	e0bffc17 	ldw	r2,-16(fp)
    2ae8:	e0fffd17 	ldw	r3,-12(fp)
    2aec:	1885883a 	add	r2,r3,r2
    2af0:	10800003 	ldbu	r2,0(r2)
    2af4:	10803fcc 	andi	r2,r2,255
    2af8:	1080201c 	xori	r2,r2,128
    2afc:	10bfe004 	addi	r2,r2,-128
    2b00:	10000c26 	beq	r2,zero,2b34 <convert_filename_to_name_extension+0x14c>
        {
            extension[counter] = filename[local];
    2b04:	e0bffb17 	ldw	r2,-20(fp)
    2b08:	e0ffff17 	ldw	r3,-4(fp)
    2b0c:	1885883a 	add	r2,r3,r2
    2b10:	e0fffc17 	ldw	r3,-16(fp)
    2b14:	e13ffd17 	ldw	r4,-12(fp)
    2b18:	20c7883a 	add	r3,r4,r3
    2b1c:	18c00003 	ldbu	r3,0(r3)
    2b20:	10c00005 	stb	r3,0(r2)
            local++;
    2b24:	e0bffc17 	ldw	r2,-16(fp)
    2b28:	10800044 	addi	r2,r2,1
    2b2c:	e0bffc15 	stw	r2,-16(fp)
    2b30:	00000506 	br	2b48 <convert_filename_to_name_extension+0x160>
        }
        else
        {
            extension[counter] = ' ';
    2b34:	e0bffb17 	ldw	r2,-20(fp)
    2b38:	e0ffff17 	ldw	r3,-4(fp)
    2b3c:	1885883a 	add	r2,r3,r2
    2b40:	00c00804 	movi	r3,32
    2b44:	10c00005 	stb	r3,0(r2)
        {
            name[counter] = ' ';
        }
    }
    if (filename[local] == '.') local++;
    for(counter = 0; counter < 3; counter++)
    2b48:	e0bffb17 	ldw	r2,-20(fp)
    2b4c:	10800044 	addi	r2,r2,1
    2b50:	e0bffb15 	stw	r2,-20(fp)
    2b54:	e0bffb17 	ldw	r2,-20(fp)
    2b58:	108000d0 	cmplti	r2,r2,3
    2b5c:	103fe11e 	bne	r2,zero,2ae4 <__alt_mem_onchip_memory+0xf7802ae4>
        {
            extension[counter] = ' ';
        }
    }

}
    2b60:	0001883a 	nop
    2b64:	e037883a 	mov	sp,fp
    2b68:	df000017 	ldw	fp,0(sp)
    2b6c:	dec00104 	addi	sp,sp,4
    2b70:	f800283a 	ret

00002b74 <create_file>:

bool create_file(char *name, t_file_record *file_record, t_file_record *home_dir)
// Create a file in a given directory. Expand the directory if needed.
{
    2b74:	defff504 	addi	sp,sp,-44
    2b78:	dfc00a15 	stw	ra,40(sp)
    2b7c:	df000915 	stw	fp,36(sp)
    2b80:	df000904 	addi	fp,sp,36
    2b84:	e13ffd15 	stw	r4,-12(fp)
    2b88:	e17ffe15 	stw	r5,-8(fp)
    2b8c:	e1bfff15 	stw	r6,-4(fp)
    unsigned int cluster_number;
    bool result = false;
    2b90:	e03ff715 	stw	zero,-36(fp)
    
    if (find_first_empty_cluster(&cluster_number))
    2b94:	e0bffc04 	addi	r2,fp,-16
    2b98:	1009883a 	mov	r4,r2
    2b9c:	00024ac0 	call	24ac <find_first_empty_cluster>
    2ba0:	1000a426 	beq	r2,zero,2e34 <create_file+0x2c0>
    {
        int record_index;
        
        if (home_dir->file_record_cluster == 0)
    2ba4:	e0bfff17 	ldw	r2,-4(fp)
    2ba8:	10800a17 	ldw	r2,40(r2)
    2bac:	1000031e 	bne	r2,zero,2bbc <create_file+0x48>
        {
            // Put a file in the root directory.
            record_index = find_first_empty_record_in_root_directory();
    2bb0:	00028b40 	call	28b4 <find_first_empty_record_in_root_directory>
    2bb4:	e0bff815 	stw	r2,-32(fp)
    2bb8:	00000606 	br	2bd4 <create_file+0x60>
        }
        else
        {
            // Put a file in a subdirectory.
            record_index = find_first_empty_record_in_a_subdirectory(home_dir->start_cluster_index);           
    2bbc:	e0bfff17 	ldw	r2,-4(fp)
    2bc0:	1080058b 	ldhu	r2,22(r2)
    2bc4:	10bfffcc 	andi	r2,r2,65535
    2bc8:	1009883a 	mov	r4,r2
    2bcc:	00026680 	call	2668 <find_first_empty_record_in_a_subdirectory>
    2bd0:	e0bff815 	stw	r2,-32(fp)
        }
        if (record_index >= 0)
    2bd4:	e0bff817 	ldw	r2,-32(fp)
    2bd8:	10009616 	blt	r2,zero,2e34 <create_file+0x2c0>
        {   
            unsigned int file_record_sector;
            int location = get_dir_divider_location( name );
    2bdc:	e13ffd17 	ldw	r4,-12(fp)
    2be0:	000179c0 	call	179c <get_dir_divider_location>
    2be4:	e0bff915 	stw	r2,-28(fp)
            int last_dir_separator = 0;
    2be8:	e03ffa15 	stw	zero,-24(fp)

            // Skip through all directory separators.
            while (location > 0)
    2bec:	00000b06 	br	2c1c <create_file+0xa8>
            {
                last_dir_separator = last_dir_separator+location+1;
    2bf0:	e0fffa17 	ldw	r3,-24(fp)
    2bf4:	e0bff917 	ldw	r2,-28(fp)
    2bf8:	1885883a 	add	r2,r3,r2
    2bfc:	10800044 	addi	r2,r2,1
    2c00:	e0bffa15 	stw	r2,-24(fp)
                location = get_dir_divider_location( &(name[last_dir_separator]) );
    2c04:	e0bffa17 	ldw	r2,-24(fp)
    2c08:	e0fffd17 	ldw	r3,-12(fp)
    2c0c:	1885883a 	add	r2,r3,r2
    2c10:	1009883a 	mov	r4,r2
    2c14:	000179c0 	call	179c <get_dir_divider_location>
    2c18:	e0bff915 	stw	r2,-28(fp)
            unsigned int file_record_sector;
            int location = get_dir_divider_location( name );
            int last_dir_separator = 0;

            // Skip through all directory separators.
            while (location > 0)
    2c1c:	e0bff917 	ldw	r2,-28(fp)
    2c20:	00bff316 	blt	zero,r2,2bf0 <__alt_mem_onchip_memory+0xf7802bf0>
            {
                last_dir_separator = last_dir_separator+location+1;
                location = get_dir_divider_location( &(name[last_dir_separator]) );
            }
            
            convert_filename_to_name_extension(&(name[last_dir_separator]), file_record->name, file_record->extension);
    2c24:	e0bffa17 	ldw	r2,-24(fp)
    2c28:	e0fffd17 	ldw	r3,-12(fp)
    2c2c:	1887883a 	add	r3,r3,r2
    2c30:	e13ffe17 	ldw	r4,-8(fp)
    2c34:	e0bffe17 	ldw	r2,-8(fp)
    2c38:	10800204 	addi	r2,r2,8
    2c3c:	100d883a 	mov	r6,r2
    2c40:	200b883a 	mov	r5,r4
    2c44:	1809883a 	mov	r4,r3
    2c48:	00029e80 	call	29e8 <convert_filename_to_name_extension>
                         
            file_record->attributes = 0x20; //Modificacin Ricardo valor anterior 0
    2c4c:	e0bffe17 	ldw	r2,-8(fp)
    2c50:	00c00804 	movi	r3,32
    2c54:	10c002c5 	stb	r3,11(r2)
            file_record->create_time = 0;
    2c58:	e0bffe17 	ldw	r2,-8(fp)
    2c5c:	1000030d 	sth	zero,12(r2)
            file_record->create_date = (30 << 9) + (1 << 5) + 1; //Modificacin Ricardo valor anterior 0
    2c60:	e0bffe17 	ldw	r2,-8(fp)
    2c64:	00cf0844 	movi	r3,15393
    2c68:	10c0038d 	sth	r3,14(r2)
            file_record->last_access_date = (30 << 9) + (1 << 5) + 1; //Modificacin Ricardo valor anterior 0
    2c6c:	e0bffe17 	ldw	r2,-8(fp)
    2c70:	00cf0844 	movi	r3,15393
    2c74:	10c0040d 	sth	r3,16(r2)
            file_record->last_modified_time = 0;
    2c78:	e0bffe17 	ldw	r2,-8(fp)
    2c7c:	1000048d 	sth	zero,18(r2)
            file_record->last_modified_date = (30 << 9) + (1 << 5) + 1; //Modificacin Ricardo valor anterior 0
    2c80:	e0bffe17 	ldw	r2,-8(fp)
    2c84:	00cf0844 	movi	r3,15393
    2c88:	10c0050d 	sth	r3,20(r2)
            file_record->start_cluster_index = cluster_number;
    2c8c:	e0bffc17 	ldw	r2,-16(fp)
    2c90:	1007883a 	mov	r3,r2
    2c94:	e0bffe17 	ldw	r2,-8(fp)
    2c98:	10c0058d 	sth	r3,22(r2)
            file_record->file_size_in_bytes = 0;
    2c9c:	e0bffe17 	ldw	r2,-8(fp)
    2ca0:	10000615 	stw	zero,24(r2)
            file_record->current_cluster_index = cluster_number;
    2ca4:	e0fffc17 	ldw	r3,-16(fp)
    2ca8:	e0bffe17 	ldw	r2,-8(fp)
    2cac:	10c00715 	stw	r3,28(r2)
            file_record->current_sector_in_cluster = 0;
    2cb0:	e0bffe17 	ldw	r2,-8(fp)
    2cb4:	10000815 	stw	zero,32(r2)
            file_record->current_byte_position = 0;
    2cb8:	e0bffe17 	ldw	r2,-8(fp)
    2cbc:	10000915 	stw	zero,36(r2)
            file_record->file_record_cluster = record_index & 0x0000ffff;
    2cc0:	e0bff817 	ldw	r2,-32(fp)
    2cc4:	10ffffcc 	andi	r3,r2,65535
    2cc8:	e0bffe17 	ldw	r2,-8(fp)
    2ccc:	10c00a15 	stw	r3,40(r2)
            file_record->file_record_sector_in_cluster = ((record_index >> 16) & 0x0000ffff) / 16;
    2cd0:	e0bff817 	ldw	r2,-32(fp)
    2cd4:	1004d43a 	srli	r2,r2,16
    2cd8:	1000010e 	bge	r2,zero,2ce0 <create_file+0x16c>
    2cdc:	108003c4 	addi	r2,r2,15
    2ce0:	1005d13a 	srai	r2,r2,4
    2ce4:	1007883a 	mov	r3,r2
    2ce8:	e0bffe17 	ldw	r2,-8(fp)
    2cec:	10c00b15 	stw	r3,44(r2)
            file_record->file_record_offset = (((record_index >> 16) & 0x0000ffff) % 16)*32;   
    2cf0:	e0bff817 	ldw	r2,-32(fp)
    2cf4:	1004d43a 	srli	r2,r2,16
    2cf8:	1007883a 	mov	r3,r2
    2cfc:	00a00034 	movhi	r2,32768
    2d00:	108003c4 	addi	r2,r2,15
    2d04:	1884703a 	and	r2,r3,r2
    2d08:	1000040e 	bge	r2,zero,2d1c <create_file+0x1a8>
    2d0c:	10bfffc4 	addi	r2,r2,-1
    2d10:	00fffc04 	movi	r3,-16
    2d14:	10c4b03a 	or	r2,r2,r3
    2d18:	10800044 	addi	r2,r2,1
    2d1c:	1004917a 	slli	r2,r2,5
    2d20:	1007883a 	mov	r3,r2
    2d24:	e0bffe17 	ldw	r2,-8(fp)
    2d28:	10c00c0d 	sth	r3,48(r2)
            file_record->home_directory_cluster = home_dir->start_cluster_index;
    2d2c:	e0bfff17 	ldw	r2,-4(fp)
    2d30:	1080058b 	ldhu	r2,22(r2)
    2d34:	10ffffcc 	andi	r3,r2,65535
    2d38:	e0bffe17 	ldw	r2,-8(fp)
    2d3c:	10c00d15 	stw	r3,52(r2)
            file_record->in_use = true;
    2d40:	e0bffe17 	ldw	r2,-8(fp)
    2d44:	00c00044 	movi	r3,1
    2d48:	10c00f15 	stw	r3,60(r2)
            file_record->modified = true;
    2d4c:	e0bffe17 	ldw	r2,-8(fp)
    2d50:	00c00044 	movi	r3,1
    2d54:	10c00e15 	stw	r3,56(r2)
            // Now write the record at the specified location.
            file_record_sector = (file_record->file_record_cluster == 0) ? 
    2d58:	e0bffe17 	ldw	r2,-8(fp)
    2d5c:	10800a17 	ldw	r2,40(r2)
                                    (boot_sector_data.root_directory_sector_offset + file_record->file_record_sector_in_cluster):  
    2d60:	1000071e 	bne	r2,zero,2d80 <create_file+0x20c>
    2d64:	00800134 	movhi	r2,4
    2d68:	10a49f04 	addi	r2,r2,-28036
    2d6c:	10c01317 	ldw	r3,76(r2)
    2d70:	e0bffe17 	ldw	r2,-8(fp)
    2d74:	10800b17 	ldw	r2,44(r2)
    2d78:	1885883a 	add	r2,r3,r2
    2d7c:	00000f06 	br	2dbc <create_file+0x248>
                                    (boot_sector_data.data_sector_offset + (file_record->file_record_cluster-2)*boot_sector_data.sectors_per_cluster +
    2d80:	00800134 	movhi	r2,4
    2d84:	10a49f04 	addi	r2,r2,-28036
    2d88:	10c01417 	ldw	r3,80(r2)
    2d8c:	e0bffe17 	ldw	r2,-8(fp)
    2d90:	10800a17 	ldw	r2,40(r2)
    2d94:	113fff84 	addi	r4,r2,-2
    2d98:	00800134 	movhi	r2,4
    2d9c:	10a49f04 	addi	r2,r2,-28036
    2da0:	10800383 	ldbu	r2,14(r2)
    2da4:	10803fcc 	andi	r2,r2,255
    2da8:	2085383a 	mul	r2,r4,r2
    2dac:	1887883a 	add	r3,r3,r2
                                     file_record->file_record_sector_in_cluster);
    2db0:	e0bffe17 	ldw	r2,-8(fp)
    2db4:	10800b17 	ldw	r2,44(r2)
            file_record->home_directory_cluster = home_dir->start_cluster_index;
            file_record->in_use = true;
            file_record->modified = true;
            // Now write the record at the specified location.
            file_record_sector = (file_record->file_record_cluster == 0) ? 
                                    (boot_sector_data.root_directory_sector_offset + file_record->file_record_sector_in_cluster):  
    2db8:	1885883a 	add	r2,r3,r2
            file_record->file_record_offset = (((record_index >> 16) & 0x0000ffff) % 16)*32;   
            file_record->home_directory_cluster = home_dir->start_cluster_index;
            file_record->in_use = true;
            file_record->modified = true;
            // Now write the record at the specified location.
            file_record_sector = (file_record->file_record_cluster == 0) ? 
    2dbc:	e0bffb15 	stw	r2,-20(fp)
                                    (boot_sector_data.root_directory_sector_offset + file_record->file_record_sector_in_cluster):  
                                    (boot_sector_data.data_sector_offset + (file_record->file_record_cluster-2)*boot_sector_data.sectors_per_cluster +
                                     file_record->file_record_sector_in_cluster);

			if (Read_Sector_Data(file_record_sector, fat_partition_offset_in_512_byte_sectors))
    2dc0:	e0bffb17 	ldw	r2,-20(fp)
    2dc4:	d0eaca17 	ldw	r3,-21720(gp)
    2dc8:	180b883a 	mov	r5,r3
    2dcc:	1009883a 	mov	r4,r2
    2dd0:	00003c80 	call	3c8 <Read_Sector_Data>
    2dd4:	10001726 	beq	r2,zero,2e34 <create_file+0x2c0>
            {
                if (Write_File_Record_At_Offset(file_record->file_record_offset, file_record))
    2dd8:	e0bffe17 	ldw	r2,-8(fp)
    2ddc:	10800c0b 	ldhu	r2,48(r2)
    2de0:	10bfffcc 	andi	r2,r2,65535
    2de4:	10a0001c 	xori	r2,r2,32768
    2de8:	10a00004 	addi	r2,r2,-32768
    2dec:	e17ffe17 	ldw	r5,-8(fp)
    2df0:	1009883a 	mov	r4,r2
    2df4:	0000a540 	call	a54 <Write_File_Record_At_Offset>
    2df8:	10000e26 	beq	r2,zero,2e34 <create_file+0x2c0>
                {
                    Save_Modified_Sector();
    2dfc:	000037c0 	call	37c <Save_Modified_Sector>
                    // Mark the first cluster of the file as the last cluster at first.
                    mark_cluster(cluster_number, ((short int) (0xffff)), true);
    2e00:	e0bffc17 	ldw	r2,-16(fp)
    2e04:	01800044 	movi	r6,1
    2e08:	017fffc4 	movi	r5,-1
    2e0c:	1009883a 	mov	r4,r2
    2e10:	00005540 	call	554 <mark_cluster>
                    if (mark_cluster(cluster_number, ((short int) (0xffff)), false))
    2e14:	e0bffc17 	ldw	r2,-16(fp)
    2e18:	000d883a 	mov	r6,zero
    2e1c:	017fffc4 	movi	r5,-1
    2e20:	1009883a 	mov	r4,r2
    2e24:	00005540 	call	554 <mark_cluster>
    2e28:	10000226 	beq	r2,zero,2e34 <create_file+0x2c0>
                    {
                        result = true;
    2e2c:	00800044 	movi	r2,1
    2e30:	e0bff715 	stw	r2,-36(fp)
                }
            }
        }

    }
    return result;           
    2e34:	e0bff717 	ldw	r2,-36(fp)
}
    2e38:	e037883a 	mov	sp,fp
    2e3c:	dfc00117 	ldw	ra,4(sp)
    2e40:	df000017 	ldw	fp,0(sp)
    2e44:	dec00204 	addi	sp,sp,8
    2e48:	f800283a 	ret

00002e4c <copy_file_record_name_to_string>:


void copy_file_record_name_to_string(t_file_record *file_record, char *file_name)
/* Copy a file name from the file record to a given string */
{
    2e4c:	defffb04 	addi	sp,sp,-20
    2e50:	df000415 	stw	fp,16(sp)
    2e54:	df000404 	addi	fp,sp,16
    2e58:	e13ffe15 	stw	r4,-8(fp)
    2e5c:	e17fff15 	stw	r5,-4(fp)
	int index;
	int flength = 0;
    2e60:	e03ffd15 	stw	zero,-12(fp)

	/* Copy file name.*/
	for (index = 0; index < 8; index++)
    2e64:	e03ffc15 	stw	zero,-16(fp)
    2e68:	00001506 	br	2ec0 <copy_file_record_name_to_string+0x74>
	{
		if (file_record->name[index] != ' ')
    2e6c:	e0fffe17 	ldw	r3,-8(fp)
    2e70:	e0bffc17 	ldw	r2,-16(fp)
    2e74:	1885883a 	add	r2,r3,r2
    2e78:	10800003 	ldbu	r2,0(r2)
    2e7c:	10803fcc 	andi	r2,r2,255
    2e80:	10800820 	cmpeqi	r2,r2,32
    2e84:	10000b1e 	bne	r2,zero,2eb4 <copy_file_record_name_to_string+0x68>
		{
			file_name[flength] = file_record->name[index];
    2e88:	e0bffd17 	ldw	r2,-12(fp)
    2e8c:	e0ffff17 	ldw	r3,-4(fp)
    2e90:	1885883a 	add	r2,r3,r2
    2e94:	e13ffe17 	ldw	r4,-8(fp)
    2e98:	e0fffc17 	ldw	r3,-16(fp)
    2e9c:	20c7883a 	add	r3,r4,r3
    2ea0:	18c00003 	ldbu	r3,0(r3)
    2ea4:	10c00005 	stb	r3,0(r2)
			flength = flength + 1;
    2ea8:	e0bffd17 	ldw	r2,-12(fp)
    2eac:	10800044 	addi	r2,r2,1
    2eb0:	e0bffd15 	stw	r2,-12(fp)
{
	int index;
	int flength = 0;

	/* Copy file name.*/
	for (index = 0; index < 8; index++)
    2eb4:	e0bffc17 	ldw	r2,-16(fp)
    2eb8:	10800044 	addi	r2,r2,1
    2ebc:	e0bffc15 	stw	r2,-16(fp)
    2ec0:	e0bffc17 	ldw	r2,-16(fp)
    2ec4:	10800210 	cmplti	r2,r2,8
    2ec8:	103fe81e 	bne	r2,zero,2e6c <__alt_mem_onchip_memory+0xf7802e6c>
		{
			file_name[flength] = file_record->name[index];
			flength = flength + 1;
		}
	}
	if (file_record->extension[0] != ' ')
    2ecc:	e0bffe17 	ldw	r2,-8(fp)
    2ed0:	10800203 	ldbu	r2,8(r2)
    2ed4:	10803fcc 	andi	r2,r2,255
    2ed8:	10800820 	cmpeqi	r2,r2,32
    2edc:	1000241e 	bne	r2,zero,2f70 <copy_file_record_name_to_string+0x124>
	{
		file_name[flength] = '.';
    2ee0:	e0bffd17 	ldw	r2,-12(fp)
    2ee4:	e0ffff17 	ldw	r3,-4(fp)
    2ee8:	1885883a 	add	r2,r3,r2
    2eec:	00c00b84 	movi	r3,46
    2ef0:	10c00005 	stb	r3,0(r2)
		flength = flength + 1;
    2ef4:	e0bffd17 	ldw	r2,-12(fp)
    2ef8:	10800044 	addi	r2,r2,1
    2efc:	e0bffd15 	stw	r2,-12(fp)
		for (index = 0; index < 3; index++)
    2f00:	e03ffc15 	stw	zero,-16(fp)
    2f04:	00001706 	br	2f64 <copy_file_record_name_to_string+0x118>
		{
			if (file_record->extension[index] != ' ')
    2f08:	e0fffe17 	ldw	r3,-8(fp)
    2f0c:	e0bffc17 	ldw	r2,-16(fp)
    2f10:	1885883a 	add	r2,r3,r2
    2f14:	10800204 	addi	r2,r2,8
    2f18:	10800003 	ldbu	r2,0(r2)
    2f1c:	10803fcc 	andi	r2,r2,255
    2f20:	10800820 	cmpeqi	r2,r2,32
    2f24:	10000c1e 	bne	r2,zero,2f58 <copy_file_record_name_to_string+0x10c>
			{
				file_name[flength] = file_record->extension[index];
    2f28:	e0bffd17 	ldw	r2,-12(fp)
    2f2c:	e0ffff17 	ldw	r3,-4(fp)
    2f30:	1885883a 	add	r2,r3,r2
    2f34:	e13ffe17 	ldw	r4,-8(fp)
    2f38:	e0fffc17 	ldw	r3,-16(fp)
    2f3c:	20c7883a 	add	r3,r4,r3
    2f40:	18c00204 	addi	r3,r3,8
    2f44:	18c00003 	ldbu	r3,0(r3)
    2f48:	10c00005 	stb	r3,0(r2)
				flength = flength + 1;
    2f4c:	e0bffd17 	ldw	r2,-12(fp)
    2f50:	10800044 	addi	r2,r2,1
    2f54:	e0bffd15 	stw	r2,-12(fp)
	}
	if (file_record->extension[0] != ' ')
	{
		file_name[flength] = '.';
		flength = flength + 1;
		for (index = 0; index < 3; index++)
    2f58:	e0bffc17 	ldw	r2,-16(fp)
    2f5c:	10800044 	addi	r2,r2,1
    2f60:	e0bffc15 	stw	r2,-16(fp)
    2f64:	e0bffc17 	ldw	r2,-16(fp)
    2f68:	108000d0 	cmplti	r2,r2,3
    2f6c:	103fe61e 	bne	r2,zero,2f08 <__alt_mem_onchip_memory+0xf7802f08>
				file_name[flength] = file_record->extension[index];
				flength = flength + 1;
			}
		}
	}
	file_name[flength] = 0;
    2f70:	e0bffd17 	ldw	r2,-12(fp)
    2f74:	e0ffff17 	ldw	r3,-4(fp)
    2f78:	1885883a 	add	r2,r3,r2
    2f7c:	10000005 	stb	zero,0(r2)
}
    2f80:	0001883a 	nop
    2f84:	e037883a 	mov	sp,fp
    2f88:	df000017 	ldw	fp,0(sp)
    2f8c:	dec00104 	addi	sp,sp,4
    2f90:	f800283a 	ret

00002f94 <alt_up_sd_card_open_dev>:
// Direct functions
///////////////////////////////////////////////////////////////////////////


alt_up_sd_card_dev* alt_up_sd_card_open_dev(const char* name)
{
    2f94:	defffc04 	addi	sp,sp,-16
    2f98:	dfc00315 	stw	ra,12(sp)
    2f9c:	df000215 	stw	fp,8(sp)
    2fa0:	df000204 	addi	fp,sp,8
    2fa4:	e13fff15 	stw	r4,-4(fp)
	// find the device from the device list 
	// (see altera_hal/HAL/inc/priv/alt_file.h 
	// and altera_hal/HAL/src/alt_find_dev.c 
	// for details)
	alt_up_sd_card_dev *dev = (alt_up_sd_card_dev *) alt_find_dev(name, &alt_dev_list);
    2fa8:	d1601604 	addi	r5,gp,-32680
    2fac:	e13fff17 	ldw	r4,-4(fp)
    2fb0:	00198b40 	call	198b4 <alt_find_dev>
    2fb4:	e0bffe15 	stw	r2,-8(fp)

	if (dev != NULL)
    2fb8:	e0bffe17 	ldw	r2,-8(fp)
    2fbc:	10001e26 	beq	r2,zero,3038 <alt_up_sd_card_open_dev+0xa4>
	{
		aux_status_register = ((short int *) SD_CARD_AUX_STATUS(dev->base));
    2fc0:	e0bffe17 	ldw	r2,-8(fp)
    2fc4:	10800a17 	ldw	r2,40(r2)
    2fc8:	10808d04 	addi	r2,r2,564
    2fcc:	d0aac415 	stw	r2,-21744(gp)
		status_register = ((int *) SD_CARD_STATUS(dev->base));
    2fd0:	e0bffe17 	ldw	r2,-8(fp)
    2fd4:	10800a17 	ldw	r2,40(r2)
    2fd8:	10808904 	addi	r2,r2,548
    2fdc:	d0aac515 	stw	r2,-21740(gp)
		CSD_register_w0 = ((short int *) SD_CARD_CSD(dev->base, 0));
    2fe0:	e0bffe17 	ldw	r2,-8(fp)
    2fe4:	10800a17 	ldw	r2,40(r2)
    2fe8:	10808404 	addi	r2,r2,528
    2fec:	d0aac615 	stw	r2,-21736(gp)
		command_register = ((short int *) SD_CARD_COMMAND(dev->base));
    2ff0:	e0bffe17 	ldw	r2,-8(fp)
    2ff4:	10800a17 	ldw	r2,40(r2)
    2ff8:	10808c04 	addi	r2,r2,560
    2ffc:	d0aac715 	stw	r2,-21732(gp)
		command_argument_register = ((int *) SD_CARD_ARGUMENT(dev->base));
    3000:	e0bffe17 	ldw	r2,-8(fp)
    3004:	10800a17 	ldw	r2,40(r2)
    3008:	10808b04 	addi	r2,r2,556
    300c:	d0aac815 	stw	r2,-21728(gp)
		buffer_memory = (char *) SD_CARD_BUFFER(dev->base, 0);
    3010:	e0bffe17 	ldw	r2,-8(fp)
    3014:	10800a17 	ldw	r2,40(r2)
    3018:	d0aac915 	stw	r2,-21724(gp)
		device_pointer = dev;
    301c:	e0bffe17 	ldw	r2,-8(fp)
    3020:	d0aacc15 	stw	r2,-21712(gp)
		initialized = false;
    3024:	d02ac215 	stw	zero,-21752(gp)
		is_sd_card_formated_as_FAT16 = false;
    3028:	d02ac315 	stw	zero,-21748(gp)
		search_data.valid = false;
    302c:	00800134 	movhi	r2,4
    3030:	10a49a04 	addi	r2,r2,-28056
    3034:	10000415 	stw	zero,16(r2)
	}
	return dev;
    3038:	e0bffe17 	ldw	r2,-8(fp)
}
    303c:	e037883a 	mov	sp,fp
    3040:	dfc00117 	ldw	ra,4(sp)
    3044:	df000017 	ldw	fp,0(sp)
    3048:	dec00204 	addi	sp,sp,8
    304c:	f800283a 	ret

00003050 <alt_up_sd_card_is_Present>:


bool alt_up_sd_card_is_Present(void)
// Check if there is an SD Card insterted into the SD Card socket.
{
    3050:	defffd04 	addi	sp,sp,-12
    3054:	df000215 	stw	fp,8(sp)
    3058:	df000204 	addi	fp,sp,8
    bool result = false;
    305c:	e03ffe15 	stw	zero,-8(fp)

    if ((device_pointer != NULL) && ((IORD_16DIRECT(aux_status_register,0) & 0x02) != 0))
    3060:	d0aacc17 	ldw	r2,-21712(gp)
    3064:	10000826 	beq	r2,zero,3088 <alt_up_sd_card_is_Present+0x38>
    3068:	d0aac417 	ldw	r2,-21744(gp)
    306c:	1080002b 	ldhuio	r2,0(r2)
    3070:	10bfffcc 	andi	r2,r2,65535
    3074:	1080008c 	andi	r2,r2,2
    3078:	10000326 	beq	r2,zero,3088 <alt_up_sd_card_is_Present+0x38>
    {
        result = true;
    307c:	00800044 	movi	r2,1
    3080:	e0bffe15 	stw	r2,-8(fp)
    3084:	00001e06 	br	3100 <alt_up_sd_card_is_Present+0xb0>
    }
	else if (initialized == true)
    3088:	d0aac217 	ldw	r2,-21752(gp)
    308c:	10800058 	cmpnei	r2,r2,1
    3090:	10001b1e 	bne	r2,zero,3100 <alt_up_sd_card_is_Present+0xb0>
	{
		int index;

		initialized = false;
    3094:	d02ac215 	stw	zero,-21752(gp)
		search_data.valid = false;
    3098:	00800134 	movhi	r2,4
    309c:	10a49a04 	addi	r2,r2,-28056
    30a0:	10000415 	stw	zero,16(r2)
		is_sd_card_formated_as_FAT16 = false;
    30a4:	d02ac315 	stw	zero,-21748(gp)

		for(index = 0; index < MAX_FILES_OPENED; index++)
    30a8:	e03fff15 	stw	zero,-4(fp)
    30ac:	00001106 	br	30f4 <alt_up_sd_card_is_Present+0xa4>
		{
			active_files[index].in_use = false;
    30b0:	00800134 	movhi	r2,4
    30b4:	10a4b404 	addi	r2,r2,-27952
    30b8:	e0ffff17 	ldw	r3,-4(fp)
    30bc:	180691ba 	slli	r3,r3,6
    30c0:	10c5883a 	add	r2,r2,r3
    30c4:	10800f04 	addi	r2,r2,60
    30c8:	10000015 	stw	zero,0(r2)
			active_files[index].modified = false;
    30cc:	00800134 	movhi	r2,4
    30d0:	10a4b404 	addi	r2,r2,-27952
    30d4:	e0ffff17 	ldw	r3,-4(fp)
    30d8:	180691ba 	slli	r3,r3,6
    30dc:	10c5883a 	add	r2,r2,r3
    30e0:	10800e04 	addi	r2,r2,56
    30e4:	10000015 	stw	zero,0(r2)

		initialized = false;
		search_data.valid = false;
		is_sd_card_formated_as_FAT16 = false;

		for(index = 0; index < MAX_FILES_OPENED; index++)
    30e8:	e0bfff17 	ldw	r2,-4(fp)
    30ec:	10800044 	addi	r2,r2,1
    30f0:	e0bfff15 	stw	r2,-4(fp)
    30f4:	e0bfff17 	ldw	r2,-4(fp)
    30f8:	10800510 	cmplti	r2,r2,20
    30fc:	103fec1e 	bne	r2,zero,30b0 <__alt_mem_onchip_memory+0xf78030b0>
		{
			active_files[index].in_use = false;
			active_files[index].modified = false;
		}
	}
    return result;
    3100:	e0bffe17 	ldw	r2,-8(fp)
}
    3104:	e037883a 	mov	sp,fp
    3108:	df000017 	ldw	fp,0(sp)
    310c:	dec00104 	addi	sp,sp,4
    3110:	f800283a 	ret

00003114 <alt_up_sd_card_is_FAT16>:
/* This function reads the SD card data in an effort to determine if the card is formated as a FAT16
 * volume. Please note that FAT12 has a similar format, but will not be supported by this driver.
 * If the card contains a FAT16 volume, the local data structures will be initialized to allow reading and writing
 * to the SD card as though it was a hard drive.
 */
{
    3114:	defffd04 	addi	sp,sp,-12
    3118:	dfc00215 	stw	ra,8(sp)
    311c:	df000115 	stw	fp,4(sp)
    3120:	df000104 	addi	fp,sp,4
	bool result = false;
    3124:	e03fff15 	stw	zero,-4(fp)

	if (alt_up_sd_card_is_Present())
    3128:	00030500 	call	3050 <alt_up_sd_card_is_Present>
    312c:	10000c26 	beq	r2,zero,3160 <alt_up_sd_card_is_FAT16+0x4c>
	{
		// Check if an SD Card is in the SD Card slot.
		if (initialized == false)
    3130:	d0aac217 	ldw	r2,-21752(gp)
    3134:	1000071e 	bne	r2,zero,3154 <alt_up_sd_card_is_FAT16+0x40>
		{
			// Now determine if the card is formatted as FAT 16.
			is_sd_card_formated_as_FAT16 = Look_for_FAT16();
    3138:	00013800 	call	1380 <Look_for_FAT16>
    313c:	d0aac315 	stw	r2,-21748(gp)
			initialized = is_sd_card_formated_as_FAT16;
    3140:	d0aac317 	ldw	r2,-21748(gp)
    3144:	d0aac215 	stw	r2,-21752(gp)
			search_data.valid = false;
    3148:	00800134 	movhi	r2,4
    314c:	10a49a04 	addi	r2,r2,-28056
    3150:	10000415 	stw	zero,16(r2)
		}
		result = is_sd_card_formated_as_FAT16;
    3154:	d0aac317 	ldw	r2,-21748(gp)
    3158:	e0bfff15 	stw	r2,-4(fp)
    315c:	00000206 	br	3168 <alt_up_sd_card_is_FAT16+0x54>
	}
	else
	{
		// If not then you may as well not open the device.
		initialized = false;
    3160:	d02ac215 	stw	zero,-21752(gp)
		is_sd_card_formated_as_FAT16 = false;
    3164:	d02ac315 	stw	zero,-21748(gp)
	}

	return result;
    3168:	e0bfff17 	ldw	r2,-4(fp)
}
    316c:	e037883a 	mov	sp,fp
    3170:	dfc00117 	ldw	ra,4(sp)
    3174:	df000017 	ldw	fp,0(sp)
    3178:	dec00204 	addi	sp,sp,8
    317c:	f800283a 	ret

00003180 <alt_up_sd_card_find_first>:
 * "first/sub/." - look through a directory named "sub", that is located within the subdirectory named "first". "first" is located in the root directory.
 * Invalid examples include:
 * "/.", "/////." - this is not the root directory.
 * "/first/." - the first character may not be a '/'.
 */
{
    3180:	deffea04 	addi	sp,sp,-88
    3184:	dfc01515 	stw	ra,84(sp)
    3188:	df001415 	stw	fp,80(sp)
    318c:	df001404 	addi	fp,sp,80
    3190:	e13ffe15 	stw	r4,-8(fp)
    3194:	e17fff15 	stw	r5,-4(fp)
	short int result = 2;
    3198:	00800084 	movi	r2,2
    319c:	e0bfec0d 	sth	r2,-80(fp)
	if ((alt_up_sd_card_is_Present()) && (is_sd_card_formated_as_FAT16))
    31a0:	00030500 	call	3050 <alt_up_sd_card_is_Present>
    31a4:	10002426 	beq	r2,zero,3238 <alt_up_sd_card_find_first+0xb8>
    31a8:	d0aac317 	ldw	r2,-21748(gp)
    31ac:	10002226 	beq	r2,zero,3238 <alt_up_sd_card_find_first+0xb8>
	{
		int home_directory_cluster;
		t_file_record file_record;

		if (get_home_directory_cluster_for_file(directory_to_search_through, &home_directory_cluster, &file_record))
    31b0:	e0ffee04 	addi	r3,fp,-72
    31b4:	e0bfed04 	addi	r2,fp,-76
    31b8:	180d883a 	mov	r6,r3
    31bc:	100b883a 	mov	r5,r2
    31c0:	e13ffe17 	ldw	r4,-8(fp)
    31c4:	0001af00 	call	1af0 <get_home_directory_cluster_for_file>
    31c8:	10001926 	beq	r2,zero,3230 <alt_up_sd_card_find_first+0xb0>
		{
			search_data.directory_root_cluster = home_directory_cluster;
    31cc:	e0bfed17 	ldw	r2,-76(fp)
    31d0:	1007883a 	mov	r3,r2
    31d4:	00800134 	movhi	r2,4
    31d8:	10a49a04 	addi	r2,r2,-28056
    31dc:	10c00015 	stw	r3,0(r2)
			search_data.current_cluster_index = home_directory_cluster;
    31e0:	e0bfed17 	ldw	r2,-76(fp)
    31e4:	1007883a 	mov	r3,r2
    31e8:	00800134 	movhi	r2,4
    31ec:	10a49a04 	addi	r2,r2,-28056
    31f0:	10c00115 	stw	r3,4(r2)
			search_data.current_sector_in_cluster = 0;
    31f4:	00800134 	movhi	r2,4
    31f8:	10a49a04 	addi	r2,r2,-28056
    31fc:	10000215 	stw	zero,8(r2)
			search_data.file_index_in_sector = -1;
    3200:	00800134 	movhi	r2,4
    3204:	10a49a04 	addi	r2,r2,-28056
    3208:	00ffffc4 	movi	r3,-1
    320c:	10c0030d 	sth	r3,12(r2)
			search_data.valid = true;
    3210:	00800134 	movhi	r2,4
    3214:	10a49a04 	addi	r2,r2,-28056
    3218:	00c00044 	movi	r3,1
    321c:	10c00415 	stw	r3,16(r2)
			result = alt_up_sd_card_find_next(file_name);
    3220:	e13fff17 	ldw	r4,-4(fp)
    3224:	00032500 	call	3250 <alt_up_sd_card_find_next>
    3228:	e0bfec0d 	sth	r2,-80(fp)
    322c:	00000206 	br	3238 <alt_up_sd_card_find_first+0xb8>
		}
		else
		{
			result = 1;
    3230:	00800044 	movi	r2,1
    3234:	e0bfec0d 	sth	r2,-80(fp)
		}
	}
	return result;
    3238:	e0bfec0b 	ldhu	r2,-80(fp)
}
    323c:	e037883a 	mov	sp,fp
    3240:	dfc00117 	ldw	ra,4(sp)
    3244:	df000017 	ldw	fp,0(sp)
    3248:	dec00204 	addi	sp,sp,8
    324c:	f800283a 	ret

00003250 <alt_up_sd_card_find_next>:
 *		-1 - end of directory.
 *		0 - success
 *		2 - No card or incorrect card format.
 *		3 - find_first has not been called successfully.
 */
{
    3250:	deffe404 	addi	sp,sp,-112
    3254:	dfc01b15 	stw	ra,108(sp)
    3258:	df001a15 	stw	fp,104(sp)
    325c:	df001a04 	addi	fp,sp,104
    3260:	e13fff15 	stw	r4,-4(fp)
	short int result = 2;
    3264:	00800084 	movi	r2,2
    3268:	e0bfe60d 	sth	r2,-104(fp)
	if ((alt_up_sd_card_is_Present()) && (is_sd_card_formated_as_FAT16))
    326c:	00030500 	call	3050 <alt_up_sd_card_is_Present>
    3270:	1000e526 	beq	r2,zero,3608 <alt_up_sd_card_find_next+0x3b8>
    3274:	d0aac317 	ldw	r2,-21748(gp)
    3278:	1000e326 	beq	r2,zero,3608 <alt_up_sd_card_find_next+0x3b8>
	{
		if (search_data.valid)
    327c:	00800134 	movhi	r2,4
    3280:	10a49a04 	addi	r2,r2,-28056
    3284:	10800417 	ldw	r2,16(r2)
    3288:	1000dd26 	beq	r2,zero,3600 <alt_up_sd_card_find_next+0x3b0>
		{
			t_file_record file_record;
			int cluster = search_data.current_cluster_index;
    328c:	00800134 	movhi	r2,4
    3290:	10a49a04 	addi	r2,r2,-28056
    3294:	10800117 	ldw	r2,4(r2)
    3298:	e0bfe715 	stw	r2,-100(fp)

			if (cluster == 0)
    329c:	e0bfe717 	ldw	r2,-100(fp)
    32a0:	1000581e 	bne	r2,zero,3404 <alt_up_sd_card_find_next+0x1b4>
			{
				// Searching through the root directory
				int max_root_dir_sectors = ((32*boot_sector_data.max_number_of_dir_entires) / boot_sector_data.sector_size_in_bytes);
    32a4:	00800134 	movhi	r2,4
    32a8:	10a49f04 	addi	r2,r2,-28036
    32ac:	1080050b 	ldhu	r2,20(r2)
    32b0:	10bfffcc 	andi	r2,r2,65535
    32b4:	1006917a 	slli	r3,r2,5
    32b8:	00800134 	movhi	r2,4
    32bc:	10a49f04 	addi	r2,r2,-28036
    32c0:	1080030b 	ldhu	r2,12(r2)
    32c4:	10bfffcc 	andi	r2,r2,65535
    32c8:	100b883a 	mov	r5,r2
    32cc:	1809883a 	mov	r4,r3
    32d0:	00089a80 	call	89a8 <__divsi3>
    32d4:	e0bfec15 	stw	r2,-80(fp)
				int sector_index = search_data.current_sector_in_cluster;
    32d8:	00800134 	movhi	r2,4
    32dc:	10a49a04 	addi	r2,r2,-28056
    32e0:	10800217 	ldw	r2,8(r2)
    32e4:	e0bfe815 	stw	r2,-96(fp)
				int file_counter = search_data.file_index_in_sector+1;
    32e8:	00800134 	movhi	r2,4
    32ec:	10a49a04 	addi	r2,r2,-28056
    32f0:	1080030b 	ldhu	r2,12(r2)
    32f4:	10bfffcc 	andi	r2,r2,65535
    32f8:	10a0001c 	xori	r2,r2,32768
    32fc:	10a00004 	addi	r2,r2,-32768
    3300:	10800044 	addi	r2,r2,1
    3304:	e0bfe915 	stw	r2,-92(fp)
    
				for (; sector_index < max_root_dir_sectors; sector_index++)
    3308:	00003606 	br	33e4 <alt_up_sd_card_find_next+0x194>
				{
					if (Read_Sector_Data(   sector_index + boot_sector_data.root_directory_sector_offset,
    330c:	00800134 	movhi	r2,4
    3310:	10a49f04 	addi	r2,r2,-28036
    3314:	10c01317 	ldw	r3,76(r2)
    3318:	e0bfe817 	ldw	r2,-96(fp)
    331c:	1885883a 	add	r2,r3,r2
    3320:	1007883a 	mov	r3,r2
    3324:	d0aaca17 	ldw	r2,-21720(gp)
    3328:	100b883a 	mov	r5,r2
    332c:	1809883a 	mov	r4,r3
    3330:	00003c80 	call	3c8 <Read_Sector_Data>
    3334:	10002f26 	beq	r2,zero,33f4 <alt_up_sd_card_find_next+0x1a4>
											fat_partition_offset_in_512_byte_sectors))
					{
						for (; file_counter < 16; file_counter++)
    3338:	00002306 	br	33c8 <alt_up_sd_card_find_next+0x178>
						{
							if (Read_File_Record_At_Offset(file_counter*32, &file_record, 0, sector_index))
    333c:	e0bfe917 	ldw	r2,-92(fp)
    3340:	1004917a 	slli	r2,r2,5
    3344:	e13fe817 	ldw	r4,-96(fp)
    3348:	e0ffef04 	addi	r3,fp,-68
    334c:	200f883a 	mov	r7,r4
    3350:	000d883a 	mov	r6,zero
    3354:	180b883a 	mov	r5,r3
    3358:	1009883a 	mov	r4,r2
    335c:	00007d80 	call	7d8 <Read_File_Record_At_Offset>
    3360:	10001626 	beq	r2,zero,33bc <alt_up_sd_card_find_next+0x16c>
							{
								if ((file_record.name[0] != 0) && (file_record.name[0] != 0xe5))
    3364:	e0bfef03 	ldbu	r2,-68(fp)
    3368:	10803fcc 	andi	r2,r2,255
    336c:	10001326 	beq	r2,zero,33bc <alt_up_sd_card_find_next+0x16c>
    3370:	e0bfef03 	ldbu	r2,-68(fp)
    3374:	10803fcc 	andi	r2,r2,255
    3378:	10803960 	cmpeqi	r2,r2,229
    337c:	10000f1e 	bne	r2,zero,33bc <alt_up_sd_card_find_next+0x16c>
								{
									/* Update search structure. */
									search_data.file_index_in_sector = file_counter;
    3380:	e0bfe917 	ldw	r2,-92(fp)
    3384:	1007883a 	mov	r3,r2
    3388:	00800134 	movhi	r2,4
    338c:	10a49a04 	addi	r2,r2,-28056
    3390:	10c0030d 	sth	r3,12(r2)
									search_data.current_sector_in_cluster = sector_index;
    3394:	e0ffe817 	ldw	r3,-96(fp)
    3398:	00800134 	movhi	r2,4
    339c:	10a49a04 	addi	r2,r2,-28056
    33a0:	10c00215 	stw	r3,8(r2)

									/* Copy file name.*/
									copy_file_record_name_to_string(&file_record, file_name);
    33a4:	e0bfef04 	addi	r2,fp,-68
    33a8:	e17fff17 	ldw	r5,-4(fp)
    33ac:	1009883a 	mov	r4,r2
    33b0:	0002e4c0 	call	2e4c <copy_file_record_name_to_string>
									return 0;
    33b4:	0005883a 	mov	r2,zero
    33b8:	00009406 	br	360c <alt_up_sd_card_find_next+0x3bc>
				for (; sector_index < max_root_dir_sectors; sector_index++)
				{
					if (Read_Sector_Data(   sector_index + boot_sector_data.root_directory_sector_offset,
											fat_partition_offset_in_512_byte_sectors))
					{
						for (; file_counter < 16; file_counter++)
    33bc:	e0bfe917 	ldw	r2,-92(fp)
    33c0:	10800044 	addi	r2,r2,1
    33c4:	e0bfe915 	stw	r2,-92(fp)
    33c8:	e0bfe917 	ldw	r2,-92(fp)
    33cc:	10800410 	cmplti	r2,r2,16
    33d0:	103fda1e 	bne	r2,zero,333c <__alt_mem_onchip_memory+0xf780333c>
									copy_file_record_name_to_string(&file_record, file_name);
									return 0;
								}
							}
						}
						file_counter = 0;
    33d4:	e03fe915 	stw	zero,-92(fp)
				// Searching through the root directory
				int max_root_dir_sectors = ((32*boot_sector_data.max_number_of_dir_entires) / boot_sector_data.sector_size_in_bytes);
				int sector_index = search_data.current_sector_in_cluster;
				int file_counter = search_data.file_index_in_sector+1;
    
				for (; sector_index < max_root_dir_sectors; sector_index++)
    33d8:	e0bfe817 	ldw	r2,-96(fp)
    33dc:	10800044 	addi	r2,r2,1
    33e0:	e0bfe815 	stw	r2,-96(fp)
    33e4:	e0ffe817 	ldw	r3,-96(fp)
    33e8:	e0bfec17 	ldw	r2,-80(fp)
    33ec:	18bfc716 	blt	r3,r2,330c <__alt_mem_onchip_memory+0xf780330c>
    33f0:	00000106 	br	33f8 <alt_up_sd_card_find_next+0x1a8>
						}
						file_counter = 0;
					}
					else
					{
						break;
    33f4:	0001883a 	nop
					}
				}
				result = -1;
    33f8:	00bfffc4 	movi	r2,-1
    33fc:	e0bfe60d 	sth	r2,-104(fp)
    3400:	00008106 	br	3608 <alt_up_sd_card_find_next+0x3b8>
			}
			else
			{
				int file_counter = search_data.file_index_in_sector+1;
    3404:	00800134 	movhi	r2,4
    3408:	10a49a04 	addi	r2,r2,-28056
    340c:	1080030b 	ldhu	r2,12(r2)
    3410:	10bfffcc 	andi	r2,r2,65535
    3414:	10a0001c 	xori	r2,r2,32768
    3418:	10a00004 	addi	r2,r2,-32768
    341c:	10800044 	addi	r2,r2,1
    3420:	e0bfea15 	stw	r2,-88(fp)
				do 
				{
					int start_sector = ( cluster - 2 ) * ( boot_sector_data.sectors_per_cluster ) + boot_sector_data.data_sector_offset;
    3424:	e0bfe717 	ldw	r2,-100(fp)
    3428:	10ffff84 	addi	r3,r2,-2
    342c:	00800134 	movhi	r2,4
    3430:	10a49f04 	addi	r2,r2,-28036
    3434:	10800383 	ldbu	r2,14(r2)
    3438:	10803fcc 	andi	r2,r2,255
    343c:	1885383a 	mul	r2,r3,r2
    3440:	1007883a 	mov	r3,r2
    3444:	00800134 	movhi	r2,4
    3448:	10a49f04 	addi	r2,r2,-28036
    344c:	10801417 	ldw	r2,80(r2)
    3450:	1885883a 	add	r2,r3,r2
    3454:	e0bfed15 	stw	r2,-76(fp)
					int sector_index = search_data.current_sector_in_cluster;
    3458:	00800134 	movhi	r2,4
    345c:	10a49a04 	addi	r2,r2,-28056
    3460:	10800217 	ldw	r2,8(r2)
    3464:	e0bfeb15 	stw	r2,-84(fp)
			        
					for (; sector_index < boot_sector_data.sectors_per_cluster; sector_index++)
    3468:	00003806 	br	354c <alt_up_sd_card_find_next+0x2fc>
					{
						if (Read_Sector_Data(sector_index + start_sector, fat_partition_offset_in_512_byte_sectors))
    346c:	e0ffeb17 	ldw	r3,-84(fp)
    3470:	e0bfed17 	ldw	r2,-76(fp)
    3474:	1885883a 	add	r2,r3,r2
    3478:	d0eaca17 	ldw	r3,-21720(gp)
    347c:	180b883a 	mov	r5,r3
    3480:	1009883a 	mov	r4,r2
    3484:	00003c80 	call	3c8 <Read_Sector_Data>
    3488:	10003726 	beq	r2,zero,3568 <alt_up_sd_card_find_next+0x318>
						{        
							for (; file_counter < 16; file_counter++)
    348c:	00002806 	br	3530 <alt_up_sd_card_find_next+0x2e0>
							{
								if (Read_File_Record_At_Offset(file_counter*32, &file_record, cluster, sector_index))
    3490:	e0bfea17 	ldw	r2,-88(fp)
    3494:	1004917a 	slli	r2,r2,5
    3498:	e13fe717 	ldw	r4,-100(fp)
    349c:	e17feb17 	ldw	r5,-84(fp)
    34a0:	e0ffef04 	addi	r3,fp,-68
    34a4:	280f883a 	mov	r7,r5
    34a8:	200d883a 	mov	r6,r4
    34ac:	180b883a 	mov	r5,r3
    34b0:	1009883a 	mov	r4,r2
    34b4:	00007d80 	call	7d8 <Read_File_Record_At_Offset>
    34b8:	10001a26 	beq	r2,zero,3524 <alt_up_sd_card_find_next+0x2d4>
								{
									if ((file_record.name[0] != 0) && (file_record.name[0] != 0xe5))
    34bc:	e0bfef03 	ldbu	r2,-68(fp)
    34c0:	10803fcc 	andi	r2,r2,255
    34c4:	10001726 	beq	r2,zero,3524 <alt_up_sd_card_find_next+0x2d4>
    34c8:	e0bfef03 	ldbu	r2,-68(fp)
    34cc:	10803fcc 	andi	r2,r2,255
    34d0:	10803960 	cmpeqi	r2,r2,229
    34d4:	1000131e 	bne	r2,zero,3524 <alt_up_sd_card_find_next+0x2d4>
									{
										/* Update search structure. */
										search_data.current_cluster_index = cluster;
    34d8:	e0ffe717 	ldw	r3,-100(fp)
    34dc:	00800134 	movhi	r2,4
    34e0:	10a49a04 	addi	r2,r2,-28056
    34e4:	10c00115 	stw	r3,4(r2)
										search_data.file_index_in_sector = file_counter;
    34e8:	e0bfea17 	ldw	r2,-88(fp)
    34ec:	1007883a 	mov	r3,r2
    34f0:	00800134 	movhi	r2,4
    34f4:	10a49a04 	addi	r2,r2,-28056
    34f8:	10c0030d 	sth	r3,12(r2)
										search_data.current_sector_in_cluster = sector_index;
    34fc:	e0ffeb17 	ldw	r3,-84(fp)
    3500:	00800134 	movhi	r2,4
    3504:	10a49a04 	addi	r2,r2,-28056
    3508:	10c00215 	stw	r3,8(r2)

										/* Copy file name.*/
										copy_file_record_name_to_string(&file_record, file_name);
    350c:	e0bfef04 	addi	r2,fp,-68
    3510:	e17fff17 	ldw	r5,-4(fp)
    3514:	1009883a 	mov	r4,r2
    3518:	0002e4c0 	call	2e4c <copy_file_record_name_to_string>
										return 0;
    351c:	0005883a 	mov	r2,zero
    3520:	00003a06 	br	360c <alt_up_sd_card_find_next+0x3bc>
			        
					for (; sector_index < boot_sector_data.sectors_per_cluster; sector_index++)
					{
						if (Read_Sector_Data(sector_index + start_sector, fat_partition_offset_in_512_byte_sectors))
						{        
							for (; file_counter < 16; file_counter++)
    3524:	e0bfea17 	ldw	r2,-88(fp)
    3528:	10800044 	addi	r2,r2,1
    352c:	e0bfea15 	stw	r2,-88(fp)
    3530:	e0bfea17 	ldw	r2,-88(fp)
    3534:	10800410 	cmplti	r2,r2,16
    3538:	103fd51e 	bne	r2,zero,3490 <__alt_mem_onchip_memory+0xf7803490>
										copy_file_record_name_to_string(&file_record, file_name);
										return 0;
									}
								}
							}
							file_counter = 0;
    353c:	e03fea15 	stw	zero,-88(fp)
				do 
				{
					int start_sector = ( cluster - 2 ) * ( boot_sector_data.sectors_per_cluster ) + boot_sector_data.data_sector_offset;
					int sector_index = search_data.current_sector_in_cluster;
			        
					for (; sector_index < boot_sector_data.sectors_per_cluster; sector_index++)
    3540:	e0bfeb17 	ldw	r2,-84(fp)
    3544:	10800044 	addi	r2,r2,1
    3548:	e0bfeb15 	stw	r2,-84(fp)
    354c:	00800134 	movhi	r2,4
    3550:	10a49f04 	addi	r2,r2,-28036
    3554:	10800383 	ldbu	r2,14(r2)
    3558:	10803fcc 	andi	r2,r2,255
    355c:	e0ffeb17 	ldw	r3,-84(fp)
    3560:	18bfc216 	blt	r3,r2,346c <__alt_mem_onchip_memory+0xf780346c>
    3564:	00000106 	br	356c <alt_up_sd_card_find_next+0x31c>
							}
							file_counter = 0;
						}
						else
						{
							break;
    3568:	0001883a 	nop
						}
					}
					// If this is the end of the cluster and the file has not been found, then see if there is another cluster
					// that holds data for the current directory.
					if (sector_index >= boot_sector_data.sectors_per_cluster)
    356c:	00800134 	movhi	r2,4
    3570:	10a49f04 	addi	r2,r2,-28036
    3574:	10800383 	ldbu	r2,14(r2)
    3578:	10803fcc 	andi	r2,r2,255
    357c:	e0ffeb17 	ldw	r3,-84(fp)
    3580:	18801b16 	blt	r3,r2,35f0 <alt_up_sd_card_find_next+0x3a0>
					{
						short int new_cluster;

						if (get_cluster_flag(cluster, &new_cluster))
    3584:	e0bfe717 	ldw	r2,-100(fp)
    3588:	e0ffee04 	addi	r3,fp,-72
    358c:	180b883a 	mov	r5,r3
    3590:	1009883a 	mov	r4,r2
    3594:	00004a00 	call	4a0 <get_cluster_flag>
    3598:	10001326 	beq	r2,zero,35e8 <alt_up_sd_card_find_next+0x398>
						{
							if ((new_cluster & 0x0000fff8) == 0x0000fff8)
    359c:	e0bfee0b 	ldhu	r2,-72(fp)
