Archive member included to satisfy reference by file (symbol)

c:/intelfpga/17.1/nios2eds/bin/gnu/h-x86_64-mingw32/bin/../lib/gcc/nios2-elf/5.3.0/../../../../../H-x86_64-mingw32/nios2-elf/lib\libc.a(lib_a-memcpy.o)
                              obj/default/media_graphics_HAL.o (memcpy)
../media_computer_HAL_bsp/\libhal_bsp.a(alt_load.o)
                              ../media_computer_HAL_bsp//obj/HAL/src/crt0.o (alt_load)
../media_computer_HAL_bsp/\libhal_bsp.a(alt_main.o)
                              ../media_computer_HAL_bsp//obj/HAL/src/crt0.o (alt_main)
../media_computer_HAL_bsp/\libhal_bsp.a(alt_printf.o)
                              obj/default/media_graphics_HAL.o (alt_printf)
../media_computer_HAL_bsp/\libhal_bsp.a(alt_putchar.o)
                              ../media_computer_HAL_bsp/\libhal_bsp.a(alt_printf.o) (alt_putchar)
../media_computer_HAL_bsp/\libhal_bsp.a(alt_sys_init.o)
                              ../media_computer_HAL_bsp/\libhal_bsp.a(alt_main.o) (alt_irq_init)
../media_computer_HAL_bsp/\libhal_bsp.a(altera_avalon_cfi_flash.o)
                              ../media_computer_HAL_bsp/\libhal_bsp.a(alt_sys_init.o) (alt_flash_cfi_init)
../media_computer_HAL_bsp/\libhal_bsp.a(altera_avalon_cfi_flash_table.o)
                              ../media_computer_HAL_bsp/\libhal_bsp.a(altera_avalon_cfi_flash.o) (alt_set_flash_width_func)
../media_computer_HAL_bsp/\libhal_bsp.a(altera_avalon_jtag_uart_fd.o)
                              ../media_computer_HAL_bsp/\libhal_bsp.a(alt_sys_init.o) (altera_avalon_jtag_uart_read_fd)
../media_computer_HAL_bsp/\libhal_bsp.a(altera_avalon_jtag_uart_init.o)
                              ../media_computer_HAL_bsp/\libhal_bsp.a(alt_sys_init.o) (altera_avalon_jtag_uart_init)
../media_computer_HAL_bsp/\libhal_bsp.a(altera_avalon_jtag_uart_ioctl.o)
                              ../media_computer_HAL_bsp/\libhal_bsp.a(altera_avalon_jtag_uart_fd.o) (altera_avalon_jtag_uart_ioctl)
../media_computer_HAL_bsp/\libhal_bsp.a(altera_avalon_jtag_uart_read.o)
                              ../media_computer_HAL_bsp/\libhal_bsp.a(altera_avalon_jtag_uart_fd.o) (altera_avalon_jtag_uart_read)
../media_computer_HAL_bsp/\libhal_bsp.a(altera_avalon_jtag_uart_write.o)
                              ../media_computer_HAL_bsp/\libhal_bsp.a(altera_avalon_jtag_uart_fd.o) (altera_avalon_jtag_uart_write)
../media_computer_HAL_bsp/\libhal_bsp.a(altera_avalon_timer_sc.o)
                              ../media_computer_HAL_bsp/\libhal_bsp.a(alt_sys_init.o) (alt_avalon_timer_sc_init)
../media_computer_HAL_bsp/\libhal_bsp.a(altera_up_avalon_character_lcd.o)
                              ../media_computer_HAL_bsp/\libhal_bsp.a(alt_sys_init.o) (alt_up_character_lcd_init)
../media_computer_HAL_bsp/\libhal_bsp.a(altera_up_avalon_ps2.o)
                              ../media_computer_HAL_bsp/\libhal_bsp.a(alt_sys_init.o) (alt_up_ps2_init)
../media_computer_HAL_bsp/\libhal_bsp.a(altera_up_avalon_rs232.o)
                              ../media_computer_HAL_bsp/\libhal_bsp.a(alt_sys_init.o) (alt_up_rs232_read_fd)
../media_computer_HAL_bsp/\libhal_bsp.a(altera_up_avalon_video_character_buffer_with_dma.o)
                              ../media_computer_HAL_bsp/\libhal_bsp.a(alt_sys_init.o) (alt_up_char_buffer_init)
../media_computer_HAL_bsp/\libhal_bsp.a(altera_up_avalon_video_pixel_buffer_dma.o)
                              obj/default/media_graphics_HAL.o (alt_up_pixel_buffer_dma_open_dev)
../media_computer_HAL_bsp/\libhal_bsp.a(alt_alarm_start.o)
                              ../media_computer_HAL_bsp/\libhal_bsp.a(altera_avalon_jtag_uart_init.o) (alt_alarm_start)
../media_computer_HAL_bsp/\libhal_bsp.a(alt_close.o)
                              ../media_computer_HAL_bsp/\libhal_bsp.a(alt_main.o) (close)
../media_computer_HAL_bsp/\libhal_bsp.a(alt_dcache_flush.o)
                              ../media_computer_HAL_bsp/\libhal_bsp.a(altera_avalon_cfi_flash.o) (alt_dcache_flush)
../media_computer_HAL_bsp/\libhal_bsp.a(alt_dcache_flush_all.o)
                              ../media_computer_HAL_bsp/\libhal_bsp.a(alt_load.o) (alt_dcache_flush_all)
../media_computer_HAL_bsp/\libhal_bsp.a(alt_dev.o)
                              ../media_computer_HAL_bsp/\libhal_bsp.a(alt_sys_init.o) (alt_dev_list)
../media_computer_HAL_bsp/\libhal_bsp.a(alt_dev_llist_insert.o)
                              ../media_computer_HAL_bsp/\libhal_bsp.a(alt_sys_init.o) (alt_dev_llist_insert)
../media_computer_HAL_bsp/\libhal_bsp.a(alt_do_ctors.o)
                              ../media_computer_HAL_bsp/\libhal_bsp.a(alt_main.o) (_do_ctors)
../media_computer_HAL_bsp/\libhal_bsp.a(alt_do_dtors.o)
                              ../media_computer_HAL_bsp/\libhal_bsp.a(alt_main.o) (_do_dtors)
../media_computer_HAL_bsp/\libhal_bsp.a(alt_errno.o)
                              ../media_computer_HAL_bsp/\libhal_bsp.a(alt_close.o) (alt_errno)
../media_computer_HAL_bsp/\libhal_bsp.a(alt_find_dev.o)
                              ../media_computer_HAL_bsp/\libhal_bsp.a(altera_up_avalon_character_lcd.o) (alt_find_dev)
../media_computer_HAL_bsp/\libhal_bsp.a(alt_flash_dev.o)
                              ../media_computer_HAL_bsp/\libhal_bsp.a(altera_avalon_cfi_flash.o) (alt_flash_dev_list)
../media_computer_HAL_bsp/\libhal_bsp.a(alt_icache_flush_all.o)
                              ../media_computer_HAL_bsp/\libhal_bsp.a(alt_load.o) (alt_icache_flush_all)
../media_computer_HAL_bsp/\libhal_bsp.a(alt_io_redirect.o)
                              ../media_computer_HAL_bsp/\libhal_bsp.a(alt_main.o) (alt_io_redirect)
../media_computer_HAL_bsp/\libhal_bsp.a(alt_irq_register.o)
                              ../media_computer_HAL_bsp/\libhal_bsp.a(altera_avalon_jtag_uart_init.o) (alt_irq_register)
../media_computer_HAL_bsp/\libhal_bsp.a(alt_irq_vars.o)
                              ../media_computer_HAL_bsp/\libhal_bsp.a(alt_irq_register.o) (alt_irq_active)
../media_computer_HAL_bsp/\libhal_bsp.a(alt_open.o)
                              ../media_computer_HAL_bsp/\libhal_bsp.a(alt_io_redirect.o) (open)
../media_computer_HAL_bsp/\libhal_bsp.a(alt_release_fd.o)
                              ../media_computer_HAL_bsp/\libhal_bsp.a(alt_close.o) (alt_release_fd)
../media_computer_HAL_bsp/\libhal_bsp.a(alt_tick.o)
                              ../media_computer_HAL_bsp/\libhal_bsp.a(altera_avalon_jtag_uart_init.o) (_alt_tick_rate)
../media_computer_HAL_bsp/\libhal_bsp.a(altera_nios2_gen2_irq.o)
                              ../media_computer_HAL_bsp/\libhal_bsp.a(alt_sys_init.o) (altera_nios2_gen2_irq_init)
../media_computer_HAL_bsp/\libhal_bsp.a(altera_avalon_cfi_flash_amd.o)
                              ../media_computer_HAL_bsp/\libhal_bsp.a(altera_avalon_cfi_flash_table.o) (alt_program_amd)
../media_computer_HAL_bsp/\libhal_bsp.a(altera_avalon_cfi_flash_intel.o)
                              ../media_computer_HAL_bsp/\libhal_bsp.a(altera_avalon_cfi_flash_table.o) (alt_program_intel)
../media_computer_HAL_bsp/\libhal_bsp.a(alt_find_file.o)
                              ../media_computer_HAL_bsp/\libhal_bsp.a(alt_open.o) (alt_find_file)
../media_computer_HAL_bsp/\libhal_bsp.a(alt_get_fd.o)
                              ../media_computer_HAL_bsp/\libhal_bsp.a(alt_open.o) (alt_get_fd)
../media_computer_HAL_bsp/\libhal_bsp.a(alt_icache_flush.o)
                              ../media_computer_HAL_bsp/\libhal_bsp.a(alt_icache_flush_all.o) (alt_icache_flush)
../media_computer_HAL_bsp/\libhal_bsp.a(alt_irq_entry.o)
                              ../media_computer_HAL_bsp/\libhal_bsp.a(alt_irq_register.o) (alt_irq_entry)
../media_computer_HAL_bsp/\libhal_bsp.a(alt_irq_handler.o)
                              ../media_computer_HAL_bsp/\libhal_bsp.a(alt_irq_register.o) (alt_irq)
../media_computer_HAL_bsp/\libhal_bsp.a(alt_usleep.o)
                              ../media_computer_HAL_bsp/\libhal_bsp.a(altera_avalon_cfi_flash_amd.o) (usleep)
../media_computer_HAL_bsp/\libhal_bsp.a(alt_busy_sleep.o)
                              ../media_computer_HAL_bsp/\libhal_bsp.a(alt_usleep.o) (alt_busy_sleep)
../media_computer_HAL_bsp/\libhal_bsp.a(alt_exception_entry.o)
                              ../media_computer_HAL_bsp/\libhal_bsp.a(alt_irq_entry.o) (alt_exception)
../media_computer_HAL_bsp/\libhal_bsp.a(alt_instruction_exception_entry.o)
                              ../media_computer_HAL_bsp/\libhal_bsp.a(alt_exception_entry.o) (alt_instruction_exception_entry)
c:/intelfpga/17.1/nios2eds/bin/gnu/h-x86_64-mingw32/bin/../lib/gcc/nios2-elf/5.3.0/../../../../../H-x86_64-mingw32/nios2-elf/lib\libc.a(lib_a-atexit.o)
                              ../media_computer_HAL_bsp/\libhal_bsp.a(alt_main.o) (atexit)
c:/intelfpga/17.1/nios2eds/bin/gnu/h-x86_64-mingw32/bin/../lib/gcc/nios2-elf/5.3.0/../../../../../H-x86_64-mingw32/nios2-elf/lib\libc.a(lib_a-exit.o)
                              ../media_computer_HAL_bsp/\libhal_bsp.a(alt_main.o) (exit)
c:/intelfpga/17.1/nios2eds/bin/gnu/h-x86_64-mingw32/bin/../lib/gcc/nios2-elf/5.3.0/../../../../../H-x86_64-mingw32/nios2-elf/lib\libc.a(lib_a-impure.o)
                              c:/intelfpga/17.1/nios2eds/bin/gnu/h-x86_64-mingw32/bin/../lib/gcc/nios2-elf/5.3.0/../../../../../H-x86_64-mingw32/nios2-elf/lib\libc.a(lib_a-exit.o) (_global_impure_ptr)
c:/intelfpga/17.1/nios2eds/bin/gnu/h-x86_64-mingw32/bin/../lib/gcc/nios2-elf/5.3.0/../../../../../H-x86_64-mingw32/nios2-elf/lib\libc.a(lib_a-int_errno.o)
                              ../media_computer_HAL_bsp/\libhal_bsp.a(alt_close.o) (errno)
c:/intelfpga/17.1/nios2eds/bin/gnu/h-x86_64-mingw32/bin/../lib/gcc/nios2-elf/5.3.0/../../../../../H-x86_64-mingw32/nios2-elf/lib\libc.a(lib_a-memcmp.o)
                              ../media_computer_HAL_bsp/\libhal_bsp.a(altera_avalon_cfi_flash.o) (memcmp)
c:/intelfpga/17.1/nios2eds/bin/gnu/h-x86_64-mingw32/bin/../lib/gcc/nios2-elf/5.3.0/../../../../../H-x86_64-mingw32/nios2-elf/lib\libc.a(lib_a-putc.o)
                              ../media_computer_HAL_bsp/\libhal_bsp.a(alt_putchar.o) (putc)
c:/intelfpga/17.1/nios2eds/bin/gnu/h-x86_64-mingw32/bin/../lib/gcc/nios2-elf/5.3.0/../../../../../H-x86_64-mingw32/nios2-elf/lib\libc.a(lib_a-strcmp.o)
                              ../media_computer_HAL_bsp/\libhal_bsp.a(altera_up_avalon_video_character_buffer_with_dma.o) (strcmp)
c:/intelfpga/17.1/nios2eds/bin/gnu/h-x86_64-mingw32/bin/../lib/gcc/nios2-elf/5.3.0/../../../../../H-x86_64-mingw32/nios2-elf/lib\libc.a(lib_a-strlen.o)
                              ../media_computer_HAL_bsp/\libhal_bsp.a(alt_find_dev.o) (strlen)
c:/intelfpga/17.1/nios2eds/bin/gnu/h-x86_64-mingw32/bin/../lib/gcc/nios2-elf/5.3.0/../../../../../H-x86_64-mingw32/nios2-elf/lib\libc.a(lib_a-wbuf.o)
                              c:/intelfpga/17.1/nios2eds/bin/gnu/h-x86_64-mingw32/bin/../lib/gcc/nios2-elf/5.3.0/../../../../../H-x86_64-mingw32/nios2-elf/lib\libc.a(lib_a-putc.o) (__swbuf_r)
c:/intelfpga/17.1/nios2eds/bin/gnu/h-x86_64-mingw32/bin/../lib/gcc/nios2-elf/5.3.0/../../../../../H-x86_64-mingw32/nios2-elf/lib\libc.a(lib_a-wsetup.o)
                              c:/intelfpga/17.1/nios2eds/bin/gnu/h-x86_64-mingw32/bin/../lib/gcc/nios2-elf/5.3.0/../../../../../H-x86_64-mingw32/nios2-elf/lib\libc.a(lib_a-wbuf.o) (__swsetup_r)
c:/intelfpga/17.1/nios2eds/bin/gnu/h-x86_64-mingw32/bin/../lib/gcc/nios2-elf/5.3.0/../../../../../H-x86_64-mingw32/nios2-elf/lib\libc.a(lib_a-__atexit.o)
                              c:/intelfpga/17.1/nios2eds/bin/gnu/h-x86_64-mingw32/bin/../lib/gcc/nios2-elf/5.3.0/../../../../../H-x86_64-mingw32/nios2-elf/lib\libc.a(lib_a-atexit.o) (__register_exitproc)
c:/intelfpga/17.1/nios2eds/bin/gnu/h-x86_64-mingw32/bin/../lib/gcc/nios2-elf/5.3.0/../../../../../H-x86_64-mingw32/nios2-elf/lib\libc.a(lib_a-__call_atexit.o)
                              c:/intelfpga/17.1/nios2eds/bin/gnu/h-x86_64-mingw32/bin/../lib/gcc/nios2-elf/5.3.0/../../../../../H-x86_64-mingw32/nios2-elf/lib\libc.a(lib_a-exit.o) (__call_exitprocs)
c:/intelfpga/17.1/nios2eds/bin/gnu/h-x86_64-mingw32/bin/../lib/gcc/nios2-elf/5.3.0/../../../../../H-x86_64-mingw32/nios2-elf/lib\libc.a(lib_a-fflush.o)
                              c:/intelfpga/17.1/nios2eds/bin/gnu/h-x86_64-mingw32/bin/../lib/gcc/nios2-elf/5.3.0/../../../../../H-x86_64-mingw32/nios2-elf/lib\libc.a(lib_a-wbuf.o) (_fflush_r)
c:/intelfpga/17.1/nios2eds/bin/gnu/h-x86_64-mingw32/bin/../lib/gcc/nios2-elf/5.3.0/../../../../../H-x86_64-mingw32/nios2-elf/lib\libc.a(lib_a-findfp.o)
                              c:/intelfpga/17.1/nios2eds/bin/gnu/h-x86_64-mingw32/bin/../lib/gcc/nios2-elf/5.3.0/../../../../../H-x86_64-mingw32/nios2-elf/lib\libc.a(lib_a-putc.o) (__sinit)
c:/intelfpga/17.1/nios2eds/bin/gnu/h-x86_64-mingw32/bin/../lib/gcc/nios2-elf/5.3.0/../../../../../H-x86_64-mingw32/nios2-elf/lib\libc.a(lib_a-freer.o)
                              c:/intelfpga/17.1/nios2eds/bin/gnu/h-x86_64-mingw32/bin/../lib/gcc/nios2-elf/5.3.0/../../../../../H-x86_64-mingw32/nios2-elf/lib\libc.a(lib_a-wsetup.o) (_free_r)
c:/intelfpga/17.1/nios2eds/bin/gnu/h-x86_64-mingw32/bin/../lib/gcc/nios2-elf/5.3.0/../../../../../H-x86_64-mingw32/nios2-elf/lib\libc.a(lib_a-fwalk.o)
                              c:/intelfpga/17.1/nios2eds/bin/gnu/h-x86_64-mingw32/bin/../lib/gcc/nios2-elf/5.3.0/../../../../../H-x86_64-mingw32/nios2-elf/lib\libc.a(lib_a-findfp.o) (_fwalk)
c:/intelfpga/17.1/nios2eds/bin/gnu/h-x86_64-mingw32/bin/../lib/gcc/nios2-elf/5.3.0/../../../../../H-x86_64-mingw32/nios2-elf/lib\libc.a(lib_a-makebuf.o)
                              c:/intelfpga/17.1/nios2eds/bin/gnu/h-x86_64-mingw32/bin/../lib/gcc/nios2-elf/5.3.0/../../../../../H-x86_64-mingw32/nios2-elf/lib\libc.a(lib_a-wsetup.o) (__smakebuf_r)
c:/intelfpga/17.1/nios2eds/bin/gnu/h-x86_64-mingw32/bin/../lib/gcc/nios2-elf/5.3.0/../../../../../H-x86_64-mingw32/nios2-elf/lib\libc.a(lib_a-mallocr.o)
                              c:/intelfpga/17.1/nios2eds/bin/gnu/h-x86_64-mingw32/bin/../lib/gcc/nios2-elf/5.3.0/../../../../../H-x86_64-mingw32/nios2-elf/lib\libc.a(lib_a-findfp.o) (_malloc_r)
c:/intelfpga/17.1/nios2eds/bin/gnu/h-x86_64-mingw32/bin/../lib/gcc/nios2-elf/5.3.0/../../../../../H-x86_64-mingw32/nios2-elf/lib\libc.a(lib_a-memset.o)
                              c:/intelfpga/17.1/nios2eds/bin/gnu/h-x86_64-mingw32/bin/../lib/gcc/nios2-elf/5.3.0/../../../../../H-x86_64-mingw32/nios2-elf/lib\libc.a(lib_a-findfp.o) (memset)
c:/intelfpga/17.1/nios2eds/bin/gnu/h-x86_64-mingw32/bin/../lib/gcc/nios2-elf/5.3.0/../../../../../H-x86_64-mingw32/nios2-elf/lib\libc.a(lib_a-sbrkr.o)
                              c:/intelfpga/17.1/nios2eds/bin/gnu/h-x86_64-mingw32/bin/../lib/gcc/nios2-elf/5.3.0/../../../../../H-x86_64-mingw32/nios2-elf/lib\libc.a(lib_a-freer.o) (_sbrk_r)
c:/intelfpga/17.1/nios2eds/bin/gnu/h-x86_64-mingw32/bin/../lib/gcc/nios2-elf/5.3.0/../../../../../H-x86_64-mingw32/nios2-elf/lib\libc.a(lib_a-stdio.o)
                              c:/intelfpga/17.1/nios2eds/bin/gnu/h-x86_64-mingw32/bin/../lib/gcc/nios2-elf/5.3.0/../../../../../H-x86_64-mingw32/nios2-elf/lib\libc.a(lib_a-findfp.o) (__sread)
c:/intelfpga/17.1/nios2eds/bin/gnu/h-x86_64-mingw32/bin/../lib/gcc/nios2-elf/5.3.0/../../../../../H-x86_64-mingw32/nios2-elf/lib\libc.a(lib_a-writer.o)
                              c:/intelfpga/17.1/nios2eds/bin/gnu/h-x86_64-mingw32/bin/../lib/gcc/nios2-elf/5.3.0/../../../../../H-x86_64-mingw32/nios2-elf/lib\libc.a(lib_a-stdio.o) (_write_r)
c:/intelfpga/17.1/nios2eds/bin/gnu/h-x86_64-mingw32/bin/../lib/gcc/nios2-elf/5.3.0/../../../../../H-x86_64-mingw32/nios2-elf/lib\libc.a(closer.o)
                              c:/intelfpga/17.1/nios2eds/bin/gnu/h-x86_64-mingw32/bin/../lib/gcc/nios2-elf/5.3.0/../../../../../H-x86_64-mingw32/nios2-elf/lib\libc.a(lib_a-stdio.o) (_close_r)
c:/intelfpga/17.1/nios2eds/bin/gnu/h-x86_64-mingw32/bin/../lib/gcc/nios2-elf/5.3.0/../../../../../H-x86_64-mingw32/nios2-elf/lib\libc.a(lib_a-fclose.o)
                              c:/intelfpga/17.1/nios2eds/bin/gnu/h-x86_64-mingw32/bin/../lib/gcc/nios2-elf/5.3.0/../../../../../H-x86_64-mingw32/nios2-elf/lib\libc.a(lib_a-findfp.o) (_fclose_r)
c:/intelfpga/17.1/nios2eds/bin/gnu/h-x86_64-mingw32/bin/../lib/gcc/nios2-elf/5.3.0/../../../../../H-x86_64-mingw32/nios2-elf/lib\libc.a(lib_a-fstatr.o)
                              c:/intelfpga/17.1/nios2eds/bin/gnu/h-x86_64-mingw32/bin/../lib/gcc/nios2-elf/5.3.0/../../../../../H-x86_64-mingw32/nios2-elf/lib\libc.a(lib_a-makebuf.o) (_fstat_r)
c:/intelfpga/17.1/nios2eds/bin/gnu/h-x86_64-mingw32/bin/../lib/gcc/nios2-elf/5.3.0/../../../../../H-x86_64-mingw32/nios2-elf/lib\libc.a(lib_a-isattyr.o)
                              c:/intelfpga/17.1/nios2eds/bin/gnu/h-x86_64-mingw32/bin/../lib/gcc/nios2-elf/5.3.0/../../../../../H-x86_64-mingw32/nios2-elf/lib\libc.a(lib_a-makebuf.o) (_isatty_r)
c:/intelfpga/17.1/nios2eds/bin/gnu/h-x86_64-mingw32/bin/../lib/gcc/nios2-elf/5.3.0/../../../../../H-x86_64-mingw32/nios2-elf/lib\libc.a(lib_a-lseekr.o)
                              c:/intelfpga/17.1/nios2eds/bin/gnu/h-x86_64-mingw32/bin/../lib/gcc/nios2-elf/5.3.0/../../../../../H-x86_64-mingw32/nios2-elf/lib\libc.a(lib_a-stdio.o) (_lseek_r)
c:/intelfpga/17.1/nios2eds/bin/gnu/h-x86_64-mingw32/bin/../lib/gcc/nios2-elf/5.3.0/../../../../../H-x86_64-mingw32/nios2-elf/lib\libc.a(lib_a-readr.o)
                              c:/intelfpga/17.1/nios2eds/bin/gnu/h-x86_64-mingw32/bin/../lib/gcc/nios2-elf/5.3.0/../../../../../H-x86_64-mingw32/nios2-elf/lib\libc.a(lib_a-stdio.o) (_read_r)
c:/intelfpga/17.1/nios2eds/bin/gnu/h-x86_64-mingw32/bin/../lib/gcc/nios2-elf/5.3.0\libgcc.a(lib2-divmod.o)
                              ../media_computer_HAL_bsp/\libhal_bsp.a(altera_avalon_cfi_flash.o) (__modsi3)
../media_computer_HAL_bsp/\libhal_bsp.a(alt_exit.o)
                              c:/intelfpga/17.1/nios2eds/bin/gnu/h-x86_64-mingw32/bin/../lib/gcc/nios2-elf/5.3.0/../../../../../H-x86_64-mingw32/nios2-elf/lib\libc.a(lib_a-exit.o) (_exit)
../media_computer_HAL_bsp/\libhal_bsp.a(alt_fstat.o)
                              c:/intelfpga/17.1/nios2eds/bin/gnu/h-x86_64-mingw32/bin/../lib/gcc/nios2-elf/5.3.0/../../../../../H-x86_64-mingw32/nios2-elf/lib\libc.a(lib_a-fstatr.o) (fstat)
../media_computer_HAL_bsp/\libhal_bsp.a(alt_isatty.o)
                              c:/intelfpga/17.1/nios2eds/bin/gnu/h-x86_64-mingw32/bin/../lib/gcc/nios2-elf/5.3.0/../../../../../H-x86_64-mingw32/nios2-elf/lib\libc.a(lib_a-isattyr.o) (isatty)
../media_computer_HAL_bsp/\libhal_bsp.a(alt_lseek.o)
                              c:/intelfpga/17.1/nios2eds/bin/gnu/h-x86_64-mingw32/bin/../lib/gcc/nios2-elf/5.3.0/../../../../../H-x86_64-mingw32/nios2-elf/lib\libc.a(lib_a-lseekr.o) (lseek)
../media_computer_HAL_bsp/\libhal_bsp.a(alt_malloc_lock.o)
                              c:/intelfpga/17.1/nios2eds/bin/gnu/h-x86_64-mingw32/bin/../lib/gcc/nios2-elf/5.3.0/../../../../../H-x86_64-mingw32/nios2-elf/lib\libc.a(lib_a-freer.o) (__malloc_lock)
../media_computer_HAL_bsp/\libhal_bsp.a(alt_read.o)
                              c:/intelfpga/17.1/nios2eds/bin/gnu/h-x86_64-mingw32/bin/../lib/gcc/nios2-elf/5.3.0/../../../../../H-x86_64-mingw32/nios2-elf/lib\libc.a(lib_a-readr.o) (read)
../media_computer_HAL_bsp/\libhal_bsp.a(alt_sbrk.o)
                              c:/intelfpga/17.1/nios2eds/bin/gnu/h-x86_64-mingw32/bin/../lib/gcc/nios2-elf/5.3.0/../../../../../H-x86_64-mingw32/nios2-elf/lib\libc.a(lib_a-sbrkr.o) (sbrk)
../media_computer_HAL_bsp/\libhal_bsp.a(alt_write.o)
                              c:/intelfpga/17.1/nios2eds/bin/gnu/h-x86_64-mingw32/bin/../lib/gcc/nios2-elf/5.3.0/../../../../../H-x86_64-mingw32/nios2-elf/lib\libc.a(lib_a-writer.o) (write)

Allocating common symbols
Common symbol       size              file

alt_irq             0x100             ../media_computer_HAL_bsp/\libhal_bsp.a(alt_irq_handler.o)
errno               0x4               c:/intelfpga/17.1/nios2eds/bin/gnu/h-x86_64-mingw32/bin/../lib/gcc/nios2-elf/5.3.0/../../../../../H-x86_64-mingw32/nios2-elf/lib\libc.a(lib_a-int_errno.o)

Memory Configuration

Name             Origin             Length             Attributes
reset            0x0000000000000000 0x0000000000000020
sdram            0x0000000000000020 0x0000000007ffffe0
flash_controller 0x0000000008000000 0x0000000000800000
onchip_memory    0x0000000008800000 0x0000000000008000
*default*        0x0000000000000000 0xffffffffffffffff

Linker script and memory map

LOAD ../media_computer_HAL_bsp//obj/HAL/src/crt0.o
LOAD obj/default/media_graphics_HAL.o
LOAD c:/intelfpga/17.1/nios2eds/bin/gnu/h-x86_64-mingw32/bin/../lib/gcc/nios2-elf/5.3.0/../../../../../H-x86_64-mingw32/nios2-elf/lib\libstdc++.a
LOAD c:/intelfpga/17.1/nios2eds/bin/gnu/h-x86_64-mingw32/bin/../lib/gcc/nios2-elf/5.3.0/../../../../../H-x86_64-mingw32/nios2-elf/lib\libm.a
LOAD c:/intelfpga/17.1/nios2eds/bin/gnu/h-x86_64-mingw32/bin/../lib/gcc/nios2-elf/5.3.0\libgcc.a
START GROUP
LOAD c:/intelfpga/17.1/nios2eds/bin/gnu/h-x86_64-mingw32/bin/../lib/gcc/nios2-elf/5.3.0/../../../../../H-x86_64-mingw32/nios2-elf/lib\libc.a
LOAD c:/intelfpga/17.1/nios2eds/bin/gnu/h-x86_64-mingw32/bin/../lib/gcc/nios2-elf/5.3.0\libgcc.a
LOAD ../media_computer_HAL_bsp/\libhal_bsp.a
LOAD c:/intelfpga/17.1/nios2eds/bin/gnu/h-x86_64-mingw32/bin/../lib/gcc/nios2-elf/5.3.0/../../../../../H-x86_64-mingw32/nios2-elf/lib\libm.a
END GROUP
LOAD c:/intelfpga/17.1/nios2eds/bin/gnu/h-x86_64-mingw32/bin/../lib/gcc/nios2-elf/5.3.0\libgcc.a
                0x0000000000000000                __alt_mem_sdram = 0x0
                0x0000000008000000                __alt_mem_flash_controller = 0x8000000
                0x0000000008800000                __alt_mem_onchip_memory = 0x8800000

.entry          0x0000000000000000       0x20
 *(.entry)
 .entry         0x0000000000000000       0x20 ../media_computer_HAL_bsp//obj/HAL/src/crt0.o
                0x0000000000000000                __reset

.exceptions     0x0000000000000020      0x228
                0x0000000000000020                PROVIDE (__ram_exceptions_start, ABSOLUTE (.))
                0x0000000000000020                . = ALIGN (0x20)
 *(.irq)
 *(.exceptions.entry.label)
 .exceptions.entry.label
                0x0000000000000020        0x0 ../media_computer_HAL_bsp/\libhal_bsp.a(alt_irq_entry.o)
                0x0000000000000020                alt_irq_entry
 .exceptions.entry.label
                0x0000000000000020        0x0 ../media_computer_HAL_bsp/\libhal_bsp.a(alt_exception_entry.o)
                0x0000000000000020                alt_exception
 *(.exceptions.entry.user)
 *(.exceptions.entry.ecc_fatal)
 *(.exceptions.entry)
 .exceptions.entry
                0x0000000000000020       0x54 ../media_computer_HAL_bsp/\libhal_bsp.a(alt_exception_entry.o)
 *(.exceptions.irqtest.user)
 *(.exceptions.irqtest)
 .exceptions.irqtest
                0x0000000000000074       0x10 ../media_computer_HAL_bsp/\libhal_bsp.a(alt_irq_entry.o)
 *(.exceptions.irqhandler.user)
 *(.exceptions.irqhandler)
 .exceptions.irqhandler
                0x0000000000000084        0x4 ../media_computer_HAL_bsp/\libhal_bsp.a(alt_irq_entry.o)
 *(.exceptions.irqreturn.user)
 *(.exceptions.irqreturn)
 .exceptions.irqreturn
                0x0000000000000088        0x4 ../media_computer_HAL_bsp/\libhal_bsp.a(alt_irq_entry.o)
 *(.exceptions.notirq.label)
 .exceptions.notirq.label
                0x000000000000008c        0x0 ../media_computer_HAL_bsp/\libhal_bsp.a(alt_irq_entry.o)
 *(.exceptions.notirq.user)
 *(.exceptions.notirq)
 .exceptions.notirq
                0x000000000000008c        0x8 ../media_computer_HAL_bsp/\libhal_bsp.a(alt_exception_entry.o)
 *(.exceptions.soft.user)
 *(.exceptions.soft)
 *(.exceptions.unknown.user)
 *(.exceptions.unknown)
 .exceptions.unknown
                0x0000000000000094       0x14 ../media_computer_HAL_bsp/\libhal_bsp.a(alt_exception_entry.o)
 *(.exceptions.exit.label)
 .exceptions.exit.label
                0x00000000000000a8        0x0 ../media_computer_HAL_bsp/\libhal_bsp.a(alt_irq_entry.o)
 .exceptions.exit.label
                0x00000000000000a8        0x0 ../media_computer_HAL_bsp/\libhal_bsp.a(alt_exception_entry.o)
 *(.exceptions.exit.user)
 *(.exceptions.exit)
 .exceptions.exit
                0x00000000000000a8       0x54 ../media_computer_HAL_bsp/\libhal_bsp.a(alt_exception_entry.o)
 *(.exceptions)
 .exceptions    0x00000000000000fc       0xd8 ../media_computer_HAL_bsp/\libhal_bsp.a(alt_irq_handler.o)
                0x00000000000000fc                alt_irq_handler
 .exceptions    0x00000000000001d4       0x74 ../media_computer_HAL_bsp/\libhal_bsp.a(alt_instruction_exception_entry.o)
                0x00000000000001d4                alt_instruction_exception_entry
                0x0000000000000248                PROVIDE (__ram_exceptions_end, ABSOLUTE (.))
                0x0000000000000020                PROVIDE (__flash_exceptions_start, LOADADDR (.exceptions))

.text           0x0000000000000248     0xa440
                [!provide]                        PROVIDE (stext, ABSOLUTE (.))
 *(.interp)
 *(.hash)
 *(.dynsym)
 *(.dynstr)
 *(.gnu.version)
 *(.gnu.version_d)
 *(.gnu.version_r)
 *(.rel.init)
 *(.rela.init)
 *(.rel.text .rel.text.* .rel.gnu.linkonce.t.*)
 *(.rela.text .rela.text.* .rela.gnu.linkonce.t.*)
 *(.rel.fini)
 *(.rela.fini)
 *(.rel.rodata .rel.rodata.* .rel.gnu.linkonce.r.*)
 *(.rela.rodata .rela.rodata.* .rela.gnu.linkonce.r.*)
 *(.rel.data .rel.data.* .rel.gnu.linkonce.d.*)
 *(.rela.data .rela.data.* .rela.gnu.linkonce.d.*)
 *(.rel.tdata .rel.tdata.* .rel.gnu.linkonce.td.*)
 *(.rela.tdata .rela.tdata.* .rela.gnu.linkonce.td.*)
 *(.rel.tbss .rel.tbss.* .rel.gnu.linkonce.tb.*)
 *(.rela.tbss .rela.tbss.* .rela.gnu.linkonce.tb.*)
 *(.rel.ctors)
 *(.rela.ctors)
 *(.rel.dtors)
 *(.rela.dtors)
 *(.rel.got)
 *(.rela.got)
 *(.rel.sdata .rel.sdata.* .rel.gnu.linkonce.s.*)
 *(.rela.sdata .rela.sdata.* .rela.gnu.linkonce.s.*)
 *(.rel.sbss .rel.sbss.* .rel.gnu.linkonce.sb.*)
 *(.rela.sbss .rela.sbss.* .rela.gnu.linkonce.sb.*)
 *(.rel.sdata2 .rel.sdata2.* .rel.gnu.linkonce.s2.*)
 *(.rela.sdata2 .rela.sdata2.* .rela.gnu.linkonce.s2.*)
 *(.rel.sbss2 .rel.sbss2.* .rel.gnu.linkonce.sb2.*)
 *(.rela.sbss2 .rela.sbss2.* .rela.gnu.linkonce.sb2.*)
 *(.rel.bss .rel.bss.* .rel.gnu.linkonce.b.*)
 *(.rela.bss .rela.bss.* .rela.gnu.linkonce.b.*)
 *(.rel.plt)
 *(.rela.plt)
 *(.rel.dyn)
 *(.init)
 *(.plt)
 *(.text .stub .text.* .gnu.linkonce.t.*)
 .text          0x0000000000000248       0x4c ../media_computer_HAL_bsp//obj/HAL/src/crt0.o
                0x0000000000000248                _start
 .text          0x0000000000000294      0xa48 obj/default/media_graphics_HAL.o
                0x0000000000000294                main
                0x0000000000000884                draw_big_A
                0x0000000000000a68                LCD_cursor
                0x0000000000000ad4                LCD_text
                0x0000000000000b40                LCD_cursor_off
                0x0000000000000b78                HEX_PS2
 .text          0x0000000000000cdc        0x0 c:/intelfpga/17.1/nios2eds/bin/gnu/h-x86_64-mingw32/bin/../lib/gcc/nios2-elf/5.3.0/../../../../../H-x86_64-mingw32/nios2-elf/lib\libc.a(lib_a-memcpy.o)
 .text.memcpy   0x0000000000000cdc      0x148 c:/intelfpga/17.1/nios2eds/bin/gnu/h-x86_64-mingw32/bin/../lib/gcc/nios2-elf/5.3.0/../../../../../H-x86_64-mingw32/nios2-elf/lib\libc.a(lib_a-memcpy.o)
                0x0000000000000cdc                memcpy
 .text          0x0000000000000e24       0xec ../media_computer_HAL_bsp/\libhal_bsp.a(alt_load.o)
                0x0000000000000e8c                alt_load
 .text          0x0000000000000f10       0x7c ../media_computer_HAL_bsp/\libhal_bsp.a(alt_main.o)
                0x0000000000000f10                alt_main
 .text          0x0000000000000f8c      0x22c ../media_computer_HAL_bsp/\libhal_bsp.a(alt_printf.o)
                0x0000000000000f8c                alt_printf
 .text          0x00000000000011b8       0x3c ../media_computer_HAL_bsp/\libhal_bsp.a(alt_putchar.o)
                0x00000000000011b8                alt_putchar
 .text          0x00000000000011f4      0x440 ../media_computer_HAL_bsp/\libhal_bsp.a(alt_sys_init.o)
                0x0000000000001228                alt_irq_init
                0x0000000000001260                alt_sys_init
 .text          0x0000000000001634      0x898 ../media_computer_HAL_bsp/\libhal_bsp.a(altera_avalon_cfi_flash.o)
                0x0000000000001668                alt_flash_cfi_init
                0x00000000000016f8                alt_flash_cfi_write
                0x00000000000019a0                alt_flash_cfi_get_info
                0x0000000000001a2c                alt_flash_cfi_read
                0x0000000000001a90                alt_write_value_to_flash
                0x0000000000001bec                alt_flash_program_block
 .text          0x0000000000001ecc     0x1448 ../media_computer_HAL_bsp/\libhal_bsp.a(altera_avalon_cfi_flash_table.o)
                0x0000000000001ecc                alt_read_query_entry_8bit
                0x0000000000001f08                alt_read_query_entry_16bit
                0x0000000000001f48                alt_read_query_entry_32bit
                0x0000000000001f88                alt_write_flash_command_8bit_device_8bit_mode
                0x0000000000001fcc                alt_write_flash_command_16bit_device_8bit_mode
                0x0000000000002044                alt_write_flash_command_32bit_device_8bit_mode
                0x0000000000002094                alt_write_flash_command_16bit_device_16bit_mode
                0x00000000000020e0                alt_write_flash_command_32bit_device_16bit_mode
                0x0000000000002130                alt_write_flash_command_32bit_device_32bit_mode
                0x0000000000002180                alt_write_native_8bit
                0x00000000000021b8                alt_write_native_16bit
                0x00000000000021f0                alt_write_native_32bit
                0x0000000000002224                alt_set_flash_width_func
                0x00000000000023e8                alt_set_flash_algorithm_func
                0x0000000000002504                alt_read_cfi_table
                0x0000000000002acc                alt_read_cfi_width
                0x000000000000323c                alt_check_primary_table
 .text          0x0000000000003314      0x164 ../media_computer_HAL_bsp/\libhal_bsp.a(altera_avalon_jtag_uart_fd.o)
                0x0000000000003314                altera_avalon_jtag_uart_read_fd
                0x0000000000003374                altera_avalon_jtag_uart_write_fd
                0x00000000000033d4                altera_avalon_jtag_uart_close_fd
                0x0000000000003424                altera_avalon_jtag_uart_ioctl_fd
 .text          0x0000000000003478      0x3cc ../media_computer_HAL_bsp/\libhal_bsp.a(altera_avalon_jtag_uart_init.o)
                0x0000000000003478                altera_avalon_jtag_uart_init
                0x00000000000037dc                altera_avalon_jtag_uart_close
 .text          0x0000000000003844       0xf0 ../media_computer_HAL_bsp/\libhal_bsp.a(altera_avalon_jtag_uart_ioctl.o)
                0x0000000000003844                altera_avalon_jtag_uart_ioctl
 .text          0x0000000000003934      0x21c ../media_computer_HAL_bsp/\libhal_bsp.a(altera_avalon_jtag_uart_read.o)
                0x0000000000003934                altera_avalon_jtag_uart_read
 .text          0x0000000000003b50      0x224 ../media_computer_HAL_bsp/\libhal_bsp.a(altera_avalon_jtag_uart_write.o)
                0x0000000000003b50                altera_avalon_jtag_uart_write
 .text          0x0000000000003d74       0xf0 ../media_computer_HAL_bsp/\libhal_bsp.a(altera_avalon_timer_sc.o)
                0x0000000000003df0                alt_avalon_timer_sc_init
 .text          0x0000000000003e64      0x4f4 ../media_computer_HAL_bsp/\libhal_bsp.a(altera_up_avalon_character_lcd.o)
                0x0000000000003e64                get_DDRAM_addr
                0x0000000000003ed8                alt_up_character_lcd_send_cmd
                0x0000000000003f18                alt_up_character_lcd_init
                0x0000000000003f50                alt_up_character_lcd_open_dev
                0x0000000000003f8c                alt_up_character_lcd_write
                0x0000000000004008                alt_up_character_lcd_string
                0x0000000000004080                alt_up_character_lcd_write_fd
                0x00000000000040d0                alt_up_character_lcd_set_cursor_pos
                0x0000000000004144                alt_up_character_lcd_shift_cursor
                0x00000000000041d0                alt_up_character_lcd_shift_display
                0x000000000000425c                alt_up_character_lcd_erase_pos
                0x00000000000042e8                alt_up_character_lcd_cursor_off
                0x0000000000004320                alt_up_character_lcd_cursor_blink_on
 .text          0x0000000000004358      0x6b0 ../media_computer_HAL_bsp/\libhal_bsp.a(altera_up_avalon_ps2.o)
                0x0000000000004358                read_RI_bit
                0x000000000000438c                read_RE_bit
                0x00000000000043bc                read_CE_bit
                0x00000000000043f0                read_num_bytes_available
                0x0000000000004420                read_data_valid
                0x0000000000004454                read_data_byte
                0x0000000000004480                alt_up_ps2_init
                0x0000000000004548                alt_up_ps2_enable_read_interrupt
                0x00000000000045a4                alt_up_ps2_disable_read_interrupt
                0x0000000000004604                alt_up_ps2_write_data_byte
                0x0000000000004678                alt_up_ps2_wait_for_ack
                0x00000000000046e0                alt_up_ps2_write_data_byte_with_ack
                0x0000000000004744                alt_up_ps2_read_data_byte_timeout
                0x00000000000047e0                alt_up_ps2_read_data_byte
                0x0000000000004850                alt_up_ps2_clear_fifo
                0x00000000000048a8                alt_up_ps2_read_fd
                0x0000000000004934                alt_up_ps2_write_fd
                0x00000000000049cc                alt_up_ps2_open_dev
 .text          0x0000000000004a08      0x390 ../media_computer_HAL_bsp/\libhal_bsp.a(altera_up_avalon_rs232.o)
                0x0000000000004a08                alt_up_rs232_enable_read_interrupt
                0x0000000000004a64                alt_up_rs232_disable_read_interrupt
                0x0000000000004ac4                alt_up_rs232_get_used_space_in_read_FIFO
                0x0000000000004b04                alt_up_rs232_get_available_space_in_write_FIFO
                0x0000000000004b40                alt_up_rs232_check_parity
                0x0000000000004b84                alt_up_rs232_write_data
                0x0000000000004bc4                alt_up_rs232_read_data
                0x0000000000004c38                alt_up_rs232_read_fd
                0x0000000000004cc8                alt_up_rs232_write_fd
                0x0000000000004d5c                alt_up_rs232_open_dev
 .text          0x0000000000004d98      0x2e0 ../media_computer_HAL_bsp/\libhal_bsp.a(altera_up_avalon_video_character_buffer_with_dma.o)
                0x0000000000004d98                alt_up_char_buffer_init
                0x0000000000004e18                alt_up_char_buffer_open_dev
                0x0000000000004e54                alt_up_char_buffer_draw
                0x0000000000004f20                alt_up_char_buffer_string
                0x000000000000501c                alt_up_char_buffer_clear
 .text          0x0000000000005078      0xeb4 ../media_computer_HAL_bsp/\libhal_bsp.a(altera_up_avalon_video_pixel_buffer_dma.o)
                0x0000000000005078                alt_up_pixel_buffer_dma_open_dev
                0x00000000000050b4                alt_up_pixel_buffer_dma_draw
                0x0000000000005248                alt_up_pixel_buffer_dma_change_back_buffer_address
                0x00000000000052a4                alt_up_pixel_buffer_dma_swap_buffers
                0x0000000000005304                alt_up_pixel_buffer_dma_check_swap_buffers_status
                0x0000000000005338                alt_up_pixel_buffer_dma_clear_screen
                0x0000000000005460                alt_up_pixel_buffer_dma_draw_box
                0x000000000000573c                alt_up_pixel_buffer_dma_draw_hline
                0x000000000000594c                alt_up_pixel_buffer_dma_draw_vline
                0x0000000000005b98                alt_up_pixel_buffer_dma_draw_rectangle
                0x0000000000005c60                helper_plot_pixel
                0x0000000000005ce4                alt_up_pixel_buffer_dma_draw_line
 .text          0x0000000000005f2c      0x12c ../media_computer_HAL_bsp/\libhal_bsp.a(alt_alarm_start.o)
                0x0000000000005f2c                alt_alarm_start
 .text          0x0000000000006058      0x10c ../media_computer_HAL_bsp/\libhal_bsp.a(alt_close.o)
                0x0000000000006094                close
 .text          0x0000000000006164       0x78 ../media_computer_HAL_bsp/\libhal_bsp.a(alt_dcache_flush.o)
                0x0000000000006164                alt_dcache_flush
 .text          0x00000000000061dc       0x48 ../media_computer_HAL_bsp/\libhal_bsp.a(alt_dcache_flush_all.o)
                0x00000000000061dc                alt_dcache_flush_all
 .text          0x0000000000006224       0x2c ../media_computer_HAL_bsp/\libhal_bsp.a(alt_dev.o)
 .text          0x0000000000006250       0xe0 ../media_computer_HAL_bsp/\libhal_bsp.a(alt_dev_llist_insert.o)
                0x000000000000628c                alt_dev_llist_insert
 .text          0x0000000000006330       0x60 ../media_computer_HAL_bsp/\libhal_bsp.a(alt_do_ctors.o)
                0x0000000000006330                _do_ctors
 .text          0x0000000000006390       0x60 ../media_computer_HAL_bsp/\libhal_bsp.a(alt_do_dtors.o)
                0x0000000000006390                _do_dtors
 .text          0x00000000000063f0        0x0 ../media_computer_HAL_bsp/\libhal_bsp.a(alt_errno.o)
 .text          0x00000000000063f0       0x90 ../media_computer_HAL_bsp/\libhal_bsp.a(alt_find_dev.o)
                0x00000000000063f0                alt_find_dev
 .text          0x0000000000006480       0xbc ../media_computer_HAL_bsp/\libhal_bsp.a(alt_flash_dev.o)
                0x0000000000006480                alt_flash_open_dev
                0x00000000000064e8                alt_flash_close_dev
 .text          0x000000000000653c       0x34 ../media_computer_HAL_bsp/\libhal_bsp.a(alt_icache_flush_all.o)
                0x000000000000653c                alt_icache_flush_all
 .text          0x0000000000006570      0x140 ../media_computer_HAL_bsp/\libhal_bsp.a(alt_io_redirect.o)
                0x0000000000006634                alt_io_redirect
 .text          0x00000000000066b0      0x180 ../media_computer_HAL_bsp/\libhal_bsp.a(alt_irq_register.o)
                0x00000000000066b0                alt_irq_register
 .text          0x0000000000006830        0x0 ../media_computer_HAL_bsp/\libhal_bsp.a(alt_irq_vars.o)
 .text          0x0000000000006830      0x254 ../media_computer_HAL_bsp/\libhal_bsp.a(alt_open.o)
                0x0000000000006930                open
 .text          0x0000000000006a84       0x64 ../media_computer_HAL_bsp/\libhal_bsp.a(alt_release_fd.o)
                0x0000000000006a84                alt_release_fd
 .text          0x0000000000006ae8      0x1a4 ../media_computer_HAL_bsp/\libhal_bsp.a(alt_tick.o)
                0x0000000000006ae8                alt_alarm_stop
                0x0000000000006b84                alt_tick
 .text          0x0000000000006c8c       0x24 ../media_computer_HAL_bsp/\libhal_bsp.a(altera_nios2_gen2_irq.o)
                0x0000000000006c8c                altera_nios2_gen2_irq_init
 .text          0x0000000000006cb0      0x460 ../media_computer_HAL_bsp/\libhal_bsp.a(altera_avalon_cfi_flash_amd.o)
                0x0000000000006cb0                alt_program_amd
                0x0000000000006d18                alt_erase_block_amd
 .text          0x0000000000007110      0x45c ../media_computer_HAL_bsp/\libhal_bsp.a(altera_avalon_cfi_flash_intel.o)
                0x0000000000007110                alt_program_intel
                0x0000000000007190                alt_erase_block_intel
 .text          0x000000000000756c      0x108 ../media_computer_HAL_bsp/\libhal_bsp.a(alt_find_file.o)
                0x000000000000756c                alt_find_file
 .text          0x0000000000007674       0xa4 ../media_computer_HAL_bsp/\libhal_bsp.a(alt_get_fd.o)
                0x0000000000007674                alt_get_fd
 .text          0x0000000000007718       0x90 ../media_computer_HAL_bsp/\libhal_bsp.a(alt_icache_flush.o)
                0x0000000000007718                alt_icache_flush
 .text          0x00000000000077a8        0x0 ../media_computer_HAL_bsp/\libhal_bsp.a(alt_irq_entry.o)
 .text          0x00000000000077a8        0x0 ../media_computer_HAL_bsp/\libhal_bsp.a(alt_irq_handler.o)
 .text          0x00000000000077a8       0x30 ../media_computer_HAL_bsp/\libhal_bsp.a(alt_usleep.o)
                0x00000000000077a8                usleep
 .text          0x00000000000077d8      0x158 ../media_computer_HAL_bsp/\libhal_bsp.a(alt_busy_sleep.o)
                0x00000000000077d8                alt_busy_sleep
 .text          0x0000000000007930        0x0 ../media_computer_HAL_bsp/\libhal_bsp.a(alt_exception_entry.o)
 .text          0x0000000000007930       0x9c ../media_computer_HAL_bsp/\libhal_bsp.a(alt_instruction_exception_entry.o)
                0x0000000000007930                alt_exception_cause_generated_bad_addr
 .text          0x00000000000079cc        0x0 c:/intelfpga/17.1/nios2eds/bin/gnu/h-x86_64-mingw32/bin/../lib/gcc/nios2-elf/5.3.0/../../../../../H-x86_64-mingw32/nios2-elf/lib\libc.a(lib_a-atexit.o)
 .text.atexit   0x00000000000079cc       0x14 c:/intelfpga/17.1/nios2eds/bin/gnu/h-x86_64-mingw32/bin/../lib/gcc/nios2-elf/5.3.0/../../../../../H-x86_64-mingw32/nios2-elf/lib\libc.a(lib_a-atexit.o)
                0x00000000000079cc                atexit
 .text          0x00000000000079e0        0x0 c:/intelfpga/17.1/nios2eds/bin/gnu/h-x86_64-mingw32/bin/../lib/gcc/nios2-elf/5.3.0/../../../../../H-x86_64-mingw32/nios2-elf/lib\libc.a(lib_a-exit.o)
 .text.exit     0x00000000000079e0       0x38 c:/intelfpga/17.1/nios2eds/bin/gnu/h-x86_64-mingw32/bin/../lib/gcc/nios2-elf/5.3.0/../../../../../H-x86_64-mingw32/nios2-elf/lib\libc.a(lib_a-exit.o)
                0x00000000000079e0                exit
 .text          0x0000000000007a18        0x0 c:/intelfpga/17.1/nios2eds/bin/gnu/h-x86_64-mingw32/bin/../lib/gcc/nios2-elf/5.3.0/../../../../../H-x86_64-mingw32/nios2-elf/lib\libc.a(lib_a-impure.o)
 .text          0x0000000000007a18        0x0 c:/intelfpga/17.1/nios2eds/bin/gnu/h-x86_64-mingw32/bin/../lib/gcc/nios2-elf/5.3.0/../../../../../H-x86_64-mingw32/nios2-elf/lib\libc.a(lib_a-int_errno.o)
 .text          0x0000000000007a18        0x0 c:/intelfpga/17.1/nios2eds/bin/gnu/h-x86_64-mingw32/bin/../lib/gcc/nios2-elf/5.3.0/../../../../../H-x86_64-mingw32/nios2-elf/lib\libc.a(lib_a-memcmp.o)
 .text.memcmp   0x0000000000007a18       0x7c c:/intelfpga/17.1/nios2eds/bin/gnu/h-x86_64-mingw32/bin/../lib/gcc/nios2-elf/5.3.0/../../../../../H-x86_64-mingw32/nios2-elf/lib\libc.a(lib_a-memcmp.o)
                0x0000000000007a18                memcmp
 .text          0x0000000000007a94        0x0 c:/intelfpga/17.1/nios2eds/bin/gnu/h-x86_64-mingw32/bin/../lib/gcc/nios2-elf/5.3.0/../../../../../H-x86_64-mingw32/nios2-elf/lib\libc.a(lib_a-putc.o)
 .text._putc_r  0x0000000000007a94       0xa0 c:/intelfpga/17.1/nios2eds/bin/gnu/h-x86_64-mingw32/bin/../lib/gcc/nios2-elf/5.3.0/../../../../../H-x86_64-mingw32/nios2-elf/lib\libc.a(lib_a-putc.o)
                0x0000000000007a94                _putc_r
 .text.putc     0x0000000000007b34       0xc8 c:/intelfpga/17.1/nios2eds/bin/gnu/h-x86_64-mingw32/bin/../lib/gcc/nios2-elf/5.3.0/../../../../../H-x86_64-mingw32/nios2-elf/lib\libc.a(lib_a-putc.o)
                0x0000000000007b34                putc
 .text          0x0000000000007bfc        0x0 c:/intelfpga/17.1/nios2eds/bin/gnu/h-x86_64-mingw32/bin/../lib/gcc/nios2-elf/5.3.0/../../../../../H-x86_64-mingw32/nios2-elf/lib\libc.a(lib_a-strcmp.o)
 .text.strcmp   0x0000000000007bfc       0xdc c:/intelfpga/17.1/nios2eds/bin/gnu/h-x86_64-mingw32/bin/../lib/gcc/nios2-elf/5.3.0/../../../../../H-x86_64-mingw32/nios2-elf/lib\libc.a(lib_a-strcmp.o)
                0x0000000000007bfc                strcmp
 .text          0x0000000000007cd8        0x0 c:/intelfpga/17.1/nios2eds/bin/gnu/h-x86_64-mingw32/bin/../lib/gcc/nios2-elf/5.3.0/../../../../../H-x86_64-mingw32/nios2-elf/lib\libc.a(lib_a-strlen.o)
 .text.strlen   0x0000000000007cd8       0x98 c:/intelfpga/17.1/nios2eds/bin/gnu/h-x86_64-mingw32/bin/../lib/gcc/nios2-elf/5.3.0/../../../../../H-x86_64-mingw32/nios2-elf/lib\libc.a(lib_a-strlen.o)
                0x0000000000007cd8                strlen
 .text          0x0000000000007d70        0x0 c:/intelfpga/17.1/nios2eds/bin/gnu/h-x86_64-mingw32/bin/../lib/gcc/nios2-elf/5.3.0/../../../../../H-x86_64-mingw32/nios2-elf/lib\libc.a(lib_a-wbuf.o)
 .text.__swbuf_r
                0x0000000000007d70      0x140 c:/intelfpga/17.1/nios2eds/bin/gnu/h-x86_64-mingw32/bin/../lib/gcc/nios2-elf/5.3.0/../../../../../H-x86_64-mingw32/nios2-elf/lib\libc.a(lib_a-wbuf.o)
                0x0000000000007d70                __swbuf_r
 .text.__swbuf  0x0000000000007eb0       0x18 c:/intelfpga/17.1/nios2eds/bin/gnu/h-x86_64-mingw32/bin/../lib/gcc/nios2-elf/5.3.0/../../../../../H-x86_64-mingw32/nios2-elf/lib\libc.a(lib_a-wbuf.o)
                0x0000000000007eb0                __swbuf
 .text          0x0000000000007ec8        0x0 c:/intelfpga/17.1/nios2eds/bin/gnu/h-x86_64-mingw32/bin/../lib/gcc/nios2-elf/5.3.0/../../../../../H-x86_64-mingw32/nios2-elf/lib\libc.a(lib_a-wsetup.o)
 .text.__swsetup_r
                0x0000000000007ec8      0x154 c:/intelfpga/17.1/nios2eds/bin/gnu/h-x86_64-mingw32/bin/../lib/gcc/nios2-elf/5.3.0/../../../../../H-x86_64-mingw32/nios2-elf/lib\libc.a(lib_a-wsetup.o)
                0x0000000000007ec8                __swsetup_r
 .text          0x000000000000801c        0x0 c:/intelfpga/17.1/nios2eds/bin/gnu/h-x86_64-mingw32/bin/../lib/gcc/nios2-elf/5.3.0/../../../../../H-x86_64-mingw32/nios2-elf/lib\libc.a(lib_a-__atexit.o)
 .text.__register_exitproc
                0x000000000000801c      0x118 c:/intelfpga/17.1/nios2eds/bin/gnu/h-x86_64-mingw32/bin/../lib/gcc/nios2-elf/5.3.0/../../../../../H-x86_64-mingw32/nios2-elf/lib\libc.a(lib_a-__atexit.o)
                0x000000000000801c                __register_exitproc
 .text          0x0000000000008134        0x0 c:/intelfpga/17.1/nios2eds/bin/gnu/h-x86_64-mingw32/bin/../lib/gcc/nios2-elf/5.3.0/../../../../../H-x86_64-mingw32/nios2-elf/lib\libc.a(lib_a-__call_atexit.o)
 .text.__call_exitprocs
                0x0000000000008134      0x180 c:/intelfpga/17.1/nios2eds/bin/gnu/h-x86_64-mingw32/bin/../lib/gcc/nios2-elf/5.3.0/../../../../../H-x86_64-mingw32/nios2-elf/lib\libc.a(lib_a-__call_atexit.o)
                0x0000000000008134                __call_exitprocs
 .text          0x00000000000082b4        0x0 c:/intelfpga/17.1/nios2eds/bin/gnu/h-x86_64-mingw32/bin/../lib/gcc/nios2-elf/5.3.0/../../../../../H-x86_64-mingw32/nios2-elf/lib\libc.a(lib_a-fflush.o)
 .text.__sflush_r
                0x00000000000082b4      0x21c c:/intelfpga/17.1/nios2eds/bin/gnu/h-x86_64-mingw32/bin/../lib/gcc/nios2-elf/5.3.0/../../../../../H-x86_64-mingw32/nios2-elf/lib\libc.a(lib_a-fflush.o)
                0x00000000000082b4                __sflush_r
 .text._fflush_r
                0x00000000000084d0       0x5c c:/intelfpga/17.1/nios2eds/bin/gnu/h-x86_64-mingw32/bin/../lib/gcc/nios2-elf/5.3.0/../../../../../H-x86_64-mingw32/nios2-elf/lib\libc.a(lib_a-fflush.o)
                0x00000000000084d0                _fflush_r
 .text.fflush   0x000000000000852c       0x30 c:/intelfpga/17.1/nios2eds/bin/gnu/h-x86_64-mingw32/bin/../lib/gcc/nios2-elf/5.3.0/../../../../../H-x86_64-mingw32/nios2-elf/lib\libc.a(lib_a-fflush.o)
                0x000000000000852c                fflush
 .text          0x000000000000855c        0x0 c:/intelfpga/17.1/nios2eds/bin/gnu/h-x86_64-mingw32/bin/../lib/gcc/nios2-elf/5.3.0/../../../../../H-x86_64-mingw32/nios2-elf/lib\libc.a(lib_a-findfp.o)
 .text.__fp_unlock
                0x000000000000855c        0x8 c:/intelfpga/17.1/nios2eds/bin/gnu/h-x86_64-mingw32/bin/../lib/gcc/nios2-elf/5.3.0/../../../../../H-x86_64-mingw32/nios2-elf/lib\libc.a(lib_a-findfp.o)
 .text._cleanup_r
                0x0000000000008564        0xc c:/intelfpga/17.1/nios2eds/bin/gnu/h-x86_64-mingw32/bin/../lib/gcc/nios2-elf/5.3.0/../../../../../H-x86_64-mingw32/nios2-elf/lib\libc.a(lib_a-findfp.o)
                0x0000000000008564                _cleanup_r
 .text.__sinit.part.1
                0x0000000000008570      0x19c c:/intelfpga/17.1/nios2eds/bin/gnu/h-x86_64-mingw32/bin/../lib/gcc/nios2-elf/5.3.0/../../../../../H-x86_64-mingw32/nios2-elf/lib\libc.a(lib_a-findfp.o)
 .text.__fp_lock
                0x000000000000870c        0x8 c:/intelfpga/17.1/nios2eds/bin/gnu/h-x86_64-mingw32/bin/../lib/gcc/nios2-elf/5.3.0/../../../../../H-x86_64-mingw32/nios2-elf/lib\libc.a(lib_a-findfp.o)
 .text.__sfmoreglue
                0x0000000000008714       0x68 c:/intelfpga/17.1/nios2eds/bin/gnu/h-x86_64-mingw32/bin/../lib/gcc/nios2-elf/5.3.0/../../../../../H-x86_64-mingw32/nios2-elf/lib\libc.a(lib_a-findfp.o)
                0x0000000000008714                __sfmoreglue
 .text.__sfp    0x000000000000877c      0x118 c:/intelfpga/17.1/nios2eds/bin/gnu/h-x86_64-mingw32/bin/../lib/gcc/nios2-elf/5.3.0/../../../../../H-x86_64-mingw32/nios2-elf/lib\libc.a(lib_a-findfp.o)
                0x000000000000877c                __sfp
 .text._cleanup
                0x0000000000008894       0x18 c:/intelfpga/17.1/nios2eds/bin/gnu/h-x86_64-mingw32/bin/../lib/gcc/nios2-elf/5.3.0/../../../../../H-x86_64-mingw32/nios2-elf/lib\libc.a(lib_a-findfp.o)
                0x0000000000008894                _cleanup
 .text.__sinit  0x00000000000088ac       0x10 c:/intelfpga/17.1/nios2eds/bin/gnu/h-x86_64-mingw32/bin/../lib/gcc/nios2-elf/5.3.0/../../../../../H-x86_64-mingw32/nios2-elf/lib\libc.a(lib_a-findfp.o)
                0x00000000000088ac                __sinit
 .text.__sfp_lock_acquire
                0x00000000000088bc        0x4 c:/intelfpga/17.1/nios2eds/bin/gnu/h-x86_64-mingw32/bin/../lib/gcc/nios2-elf/5.3.0/../../../../../H-x86_64-mingw32/nios2-elf/lib\libc.a(lib_a-findfp.o)
                0x00000000000088bc                __sfp_lock_acquire
 .text.__sfp_lock_release
                0x00000000000088c0        0x4 c:/intelfpga/17.1/nios2eds/bin/gnu/h-x86_64-mingw32/bin/../lib/gcc/nios2-elf/5.3.0/../../../../../H-x86_64-mingw32/nios2-elf/lib\libc.a(lib_a-findfp.o)
                0x00000000000088c0                __sfp_lock_release
 .text.__sinit_lock_acquire
                0x00000000000088c4        0x4 c:/intelfpga/17.1/nios2eds/bin/gnu/h-x86_64-mingw32/bin/../lib/gcc/nios2-elf/5.3.0/../../../../../H-x86_64-mingw32/nios2-elf/lib\libc.a(lib_a-findfp.o)
                0x00000000000088c4                __sinit_lock_acquire
 .text.__sinit_lock_release
                0x00000000000088c8        0x4 c:/intelfpga/17.1/nios2eds/bin/gnu/h-x86_64-mingw32/bin/../lib/gcc/nios2-elf/5.3.0/../../../../../H-x86_64-mingw32/nios2-elf/lib\libc.a(lib_a-findfp.o)
                0x00000000000088c8                __sinit_lock_release
 .text.__fp_lock_all
                0x00000000000088cc       0x18 c:/intelfpga/17.1/nios2eds/bin/gnu/h-x86_64-mingw32/bin/../lib/gcc/nios2-elf/5.3.0/../../../../../H-x86_64-mingw32/nios2-elf/lib\libc.a(lib_a-findfp.o)
                0x00000000000088cc                __fp_lock_all
 .text.__fp_unlock_all
                0x00000000000088e4       0x18 c:/intelfpga/17.1/nios2eds/bin/gnu/h-x86_64-mingw32/bin/../lib/gcc/nios2-elf/5.3.0/../../../../../H-x86_64-mingw32/nios2-elf/lib\libc.a(lib_a-findfp.o)
                0x00000000000088e4                __fp_unlock_all
 .text          0x00000000000088fc        0x0 c:/intelfpga/17.1/nios2eds/bin/gnu/h-x86_64-mingw32/bin/../lib/gcc/nios2-elf/5.3.0/../../../../../H-x86_64-mingw32/nios2-elf/lib\libc.a(lib_a-freer.o)
 .text._malloc_trim_r
                0x00000000000088fc      0x124 c:/intelfpga/17.1/nios2eds/bin/gnu/h-x86_64-mingw32/bin/../lib/gcc/nios2-elf/5.3.0/../../../../../H-x86_64-mingw32/nios2-elf/lib\libc.a(lib_a-freer.o)
                0x00000000000088fc                _malloc_trim_r
 .text._free_r  0x0000000000008a20      0x310 c:/intelfpga/17.1/nios2eds/bin/gnu/h-x86_64-mingw32/bin/../lib/gcc/nios2-elf/5.3.0/../../../../../H-x86_64-mingw32/nios2-elf/lib\libc.a(lib_a-freer.o)
                0x0000000000008a20                _free_r
 .text          0x0000000000008d30        0x0 c:/intelfpga/17.1/nios2eds/bin/gnu/h-x86_64-mingw32/bin/../lib/gcc/nios2-elf/5.3.0/../../../../../H-x86_64-mingw32/nios2-elf/lib\libc.a(lib_a-fwalk.o)
 .text._fwalk   0x0000000000008d30       0xc4 c:/intelfpga/17.1/nios2eds/bin/gnu/h-x86_64-mingw32/bin/../lib/gcc/nios2-elf/5.3.0/../../../../../H-x86_64-mingw32/nios2-elf/lib\libc.a(lib_a-fwalk.o)
                0x0000000000008d30                _fwalk
 .text._fwalk_reent
                0x0000000000008df4       0xc4 c:/intelfpga/17.1/nios2eds/bin/gnu/h-x86_64-mingw32/bin/../lib/gcc/nios2-elf/5.3.0/../../../../../H-x86_64-mingw32/nios2-elf/lib\libc.a(lib_a-fwalk.o)
                0x0000000000008df4                _fwalk_reent
 .text          0x0000000000008eb8        0x0 c:/intelfpga/17.1/nios2eds/bin/gnu/h-x86_64-mingw32/bin/../lib/gcc/nios2-elf/5.3.0/../../../../../H-x86_64-mingw32/nios2-elf/lib\libc.a(lib_a-makebuf.o)
 .text.__smakebuf_r
                0x0000000000008eb8      0x1bc c:/intelfpga/17.1/nios2eds/bin/gnu/h-x86_64-mingw32/bin/../lib/gcc/nios2-elf/5.3.0/../../../../../H-x86_64-mingw32/nios2-elf/lib\libc.a(lib_a-makebuf.o)
                0x0000000000008eb8                __smakebuf_r
 .text          0x0000000000009074        0x0 c:/intelfpga/17.1/nios2eds/bin/gnu/h-x86_64-mingw32/bin/../lib/gcc/nios2-elf/5.3.0/../../../../../H-x86_64-mingw32/nios2-elf/lib\libc.a(lib_a-mallocr.o)
 .text._malloc_r
                0x0000000000009074      0x80c c:/intelfpga/17.1/nios2eds/bin/gnu/h-x86_64-mingw32/bin/../lib/gcc/nios2-elf/5.3.0/../../../../../H-x86_64-mingw32/nios2-elf/lib\libc.a(lib_a-mallocr.o)
                0x0000000000009074                _malloc_r
 .text          0x0000000000009880        0x0 c:/intelfpga/17.1/nios2eds/bin/gnu/h-x86_64-mingw32/bin/../lib/gcc/nios2-elf/5.3.0/../../../../../H-x86_64-mingw32/nios2-elf/lib\libc.a(lib_a-memset.o)
 .text.memset   0x0000000000009880      0x128 c:/intelfpga/17.1/nios2eds/bin/gnu/h-x86_64-mingw32/bin/../lib/gcc/nios2-elf/5.3.0/../../../../../H-x86_64-mingw32/nios2-elf/lib\libc.a(lib_a-memset.o)
                0x0000000000009880                memset
 .text          0x00000000000099a8        0x0 c:/intelfpga/17.1/nios2eds/bin/gnu/h-x86_64-mingw32/bin/../lib/gcc/nios2-elf/5.3.0/../../../../../H-x86_64-mingw32/nios2-elf/lib\libc.a(lib_a-sbrkr.o)
 .text._sbrk_r  0x00000000000099a8       0x54 c:/intelfpga/17.1/nios2eds/bin/gnu/h-x86_64-mingw32/bin/../lib/gcc/nios2-elf/5.3.0/../../../../../H-x86_64-mingw32/nios2-elf/lib\libc.a(lib_a-sbrkr.o)
                0x00000000000099a8                _sbrk_r
 .text          0x00000000000099fc        0x0 c:/intelfpga/17.1/nios2eds/bin/gnu/h-x86_64-mingw32/bin/../lib/gcc/nios2-elf/5.3.0/../../../../../H-x86_64-mingw32/nios2-elf/lib\libc.a(lib_a-stdio.o)
 .text.__sread  0x00000000000099fc       0x54 c:/intelfpga/17.1/nios2eds/bin/gnu/h-x86_64-mingw32/bin/../lib/gcc/nios2-elf/5.3.0/../../../../../H-x86_64-mingw32/nios2-elf/lib\libc.a(lib_a-stdio.o)
                0x00000000000099fc                __sread
 .text.__seofread
                0x0000000000009a50        0x8 c:/intelfpga/17.1/nios2eds/bin/gnu/h-x86_64-mingw32/bin/../lib/gcc/nios2-elf/5.3.0/../../../../../H-x86_64-mingw32/nios2-elf/lib\libc.a(lib_a-stdio.o)
                0x0000000000009a50                __seofread
 .text.__swrite
                0x0000000000009a58       0x7c c:/intelfpga/17.1/nios2eds/bin/gnu/h-x86_64-mingw32/bin/../lib/gcc/nios2-elf/5.3.0/../../../../../H-x86_64-mingw32/nios2-elf/lib\libc.a(lib_a-stdio.o)
                0x0000000000009a58                __swrite
 .text.__sseek  0x0000000000009ad4       0x5c c:/intelfpga/17.1/nios2eds/bin/gnu/h-x86_64-mingw32/bin/../lib/gcc/nios2-elf/5.3.0/../../../../../H-x86_64-mingw32/nios2-elf/lib\libc.a(lib_a-stdio.o)
                0x0000000000009ad4                __sseek
 .text.__sclose
                0x0000000000009b30        0x8 c:/intelfpga/17.1/nios2eds/bin/gnu/h-x86_64-mingw32/bin/../lib/gcc/nios2-elf/5.3.0/../../../../../H-x86_64-mingw32/nios2-elf/lib\libc.a(lib_a-stdio.o)
                0x0000000000009b30                __sclose
 .text          0x0000000000009b38        0x0 c:/intelfpga/17.1/nios2eds/bin/gnu/h-x86_64-mingw32/bin/../lib/gcc/nios2-elf/5.3.0/../../../../../H-x86_64-mingw32/nios2-elf/lib\libc.a(lib_a-writer.o)
 .text._write_r
                0x0000000000009b38       0x60 c:/intelfpga/17.1/nios2eds/bin/gnu/h-x86_64-mingw32/bin/../lib/gcc/nios2-elf/5.3.0/../../../../../H-x86_64-mingw32/nios2-elf/lib\libc.a(lib_a-writer.o)
                0x0000000000009b38                _write_r
 .text          0x0000000000009b98        0x0 c:/intelfpga/17.1/nios2eds/bin/gnu/h-x86_64-mingw32/bin/../lib/gcc/nios2-elf/5.3.0/../../../../../H-x86_64-mingw32/nios2-elf/lib\libc.a(closer.o)
 .text._close_r
                0x0000000000009b98       0x54 c:/intelfpga/17.1/nios2eds/bin/gnu/h-x86_64-mingw32/bin/../lib/gcc/nios2-elf/5.3.0/../../../../../H-x86_64-mingw32/nios2-elf/lib\libc.a(closer.o)
                0x0000000000009b98                _close_r
 .text          0x0000000000009bec        0x0 c:/intelfpga/17.1/nios2eds/bin/gnu/h-x86_64-mingw32/bin/../lib/gcc/nios2-elf/5.3.0/../../../../../H-x86_64-mingw32/nios2-elf/lib\libc.a(lib_a-fclose.o)
 .text._fclose_r
                0x0000000000009bec       0xf0 c:/intelfpga/17.1/nios2eds/bin/gnu/h-x86_64-mingw32/bin/../lib/gcc/nios2-elf/5.3.0/../../../../../H-x86_64-mingw32/nios2-elf/lib\libc.a(lib_a-fclose.o)
                0x0000000000009bec                _fclose_r
 .text.fclose   0x0000000000009cdc       0x14 c:/intelfpga/17.1/nios2eds/bin/gnu/h-x86_64-mingw32/bin/../lib/gcc/nios2-elf/5.3.0/../../../../../H-x86_64-mingw32/nios2-elf/lib\libc.a(lib_a-fclose.o)
                0x0000000000009cdc                fclose
 .text          0x0000000000009cf0        0x0 c:/intelfpga/17.1/nios2eds/bin/gnu/h-x86_64-mingw32/bin/../lib/gcc/nios2-elf/5.3.0/../../../../../H-x86_64-mingw32/nios2-elf/lib\libc.a(lib_a-fstatr.o)
 .text._fstat_r
                0x0000000000009cf0       0x5c c:/intelfpga/17.1/nios2eds/bin/gnu/h-x86_64-mingw32/bin/../lib/gcc/nios2-elf/5.3.0/../../../../../H-x86_64-mingw32/nios2-elf/lib\libc.a(lib_a-fstatr.o)
                0x0000000000009cf0                _fstat_r
 .text          0x0000000000009d4c        0x0 c:/intelfpga/17.1/nios2eds/bin/gnu/h-x86_64-mingw32/bin/../lib/gcc/nios2-elf/5.3.0/../../../../../H-x86_64-mingw32/nios2-elf/lib\libc.a(lib_a-isattyr.o)
 .text._isatty_r
                0x0000000000009d4c       0x54 c:/intelfpga/17.1/nios2eds/bin/gnu/h-x86_64-mingw32/bin/../lib/gcc/nios2-elf/5.3.0/../../../../../H-x86_64-mingw32/nios2-elf/lib\libc.a(lib_a-isattyr.o)
                0x0000000000009d4c                _isatty_r
 .text          0x0000000000009da0        0x0 c:/intelfpga/17.1/nios2eds/bin/gnu/h-x86_64-mingw32/bin/../lib/gcc/nios2-elf/5.3.0/../../../../../H-x86_64-mingw32/nios2-elf/lib\libc.a(lib_a-lseekr.o)
 .text._lseek_r
                0x0000000000009da0       0x60 c:/intelfpga/17.1/nios2eds/bin/gnu/h-x86_64-mingw32/bin/../lib/gcc/nios2-elf/5.3.0/../../../../../H-x86_64-mingw32/nios2-elf/lib\libc.a(lib_a-lseekr.o)
                0x0000000000009da0                _lseek_r
 .text          0x0000000000009e00        0x0 c:/intelfpga/17.1/nios2eds/bin/gnu/h-x86_64-mingw32/bin/../lib/gcc/nios2-elf/5.3.0/../../../../../H-x86_64-mingw32/nios2-elf/lib\libc.a(lib_a-readr.o)
 .text._read_r  0x0000000000009e00       0x60 c:/intelfpga/17.1/nios2eds/bin/gnu/h-x86_64-mingw32/bin/../lib/gcc/nios2-elf/5.3.0/../../../../../H-x86_64-mingw32/nios2-elf/lib\libc.a(lib_a-readr.o)
                0x0000000000009e00                _read_r
 .text          0x0000000000009e60      0x1b4 c:/intelfpga/17.1/nios2eds/bin/gnu/h-x86_64-mingw32/bin/../lib/gcc/nios2-elf/5.3.0\libgcc.a(lib2-divmod.o)
                0x0000000000009e60                __divsi3
                0x0000000000009ee4                __modsi3
                0x0000000000009f58                __udivsi3
                0x0000000000009fbc                __umodsi3
 .text          0x000000000000a014       0x34 ../media_computer_HAL_bsp/\libhal_bsp.a(alt_exit.o)
                0x000000000000a014                _exit
 .text          0x000000000000a048       0xec ../media_computer_HAL_bsp/\libhal_bsp.a(alt_fstat.o)
                0x000000000000a084                fstat
 .text          0x000000000000a134       0xe0 ../media_computer_HAL_bsp/\libhal_bsp.a(alt_isatty.o)
                0x000000000000a170                isatty
 .text          0x000000000000a214      0x110 ../media_computer_HAL_bsp/\libhal_bsp.a(alt_lseek.o)
                0x000000000000a250                lseek
 .text          0x000000000000a324       0x48 ../media_computer_HAL_bsp/\libhal_bsp.a(alt_malloc_lock.o)
                0x000000000000a324                __malloc_lock
                0x000000000000a348                __malloc_unlock
 .text          0x000000000000a36c      0x138 ../media_computer_HAL_bsp/\libhal_bsp.a(alt_read.o)
                0x000000000000a3a8                read
 .text          0x000000000000a4a4       0xb0 ../media_computer_HAL_bsp/\libhal_bsp.a(alt_sbrk.o)
                0x000000000000a4a4                sbrk
 .text          0x000000000000a554      0x134 ../media_computer_HAL_bsp/\libhal_bsp.a(alt_write.o)
                0x000000000000a590                write
 *(.gnu.warning.*)
 *(.fini)
                [!provide]                        PROVIDE (__etext, ABSOLUTE (.))
                [!provide]                        PROVIDE (_etext, ABSOLUTE (.))
                [!provide]                        PROVIDE (etext, ABSOLUTE (.))
 *(.eh_frame_hdr)
                0x000000000000a688                . = ALIGN (0x4)
                [!provide]                        PROVIDE (__preinit_array_start, ABSOLUTE (.))
 *(.preinit_array)
                [!provide]                        PROVIDE (__preinit_array_end, ABSOLUTE (.))
                [!provide]                        PROVIDE (__init_array_start, ABSOLUTE (.))
 *(.init_array)
                [!provide]                        PROVIDE (__init_array_end, ABSOLUTE (.))
                [!provide]                        PROVIDE (__fini_array_start, ABSOLUTE (.))
 *(.fini_array)
                [!provide]                        PROVIDE (__fini_array_end, ABSOLUTE (.))
 *(.eh_frame)
 *(.gcc_except_table .gcc_except_table.*)
 *(.dynamic)
                0x000000000000a688                PROVIDE (__CTOR_LIST__, ABSOLUTE (.))
 *(.ctors)
 *(SORT(.ctors.*))
                0x000000000000a688                PROVIDE (__CTOR_END__, ABSOLUTE (.))
                0x000000000000a688                PROVIDE (__DTOR_LIST__, ABSOLUTE (.))
 *(.dtors)
 *(SORT(.dtors.*))
                0x000000000000a688                PROVIDE (__DTOR_END__, ABSOLUTE (.))
 *(.jcr)
                0x000000000000a688                . = ALIGN (0x4)

.rodata         0x000000000000a688      0x2c4
                0x000000000000a688                PROVIDE (__ram_rodata_start, ABSOLUTE (.))
                0x000000000000a688                . = ALIGN (0x4)
 *(.rodata .rodata.* .gnu.linkonce.r.*)
 .rodata        0x000000000000a688      0x13c obj/default/media_graphics_HAL.o
 .rodata        0x000000000000a7c4        0xf ../media_computer_HAL_bsp/\libhal_bsp.a(alt_main.o)
 *fill*         0x000000000000a7d3        0x1 
 .rodata        0x000000000000a7d4      0x149 ../media_computer_HAL_bsp/\libhal_bsp.a(alt_sys_init.o)
 *fill*         0x000000000000a91d        0x3 
 .rodata        0x000000000000a920       0x1a ../media_computer_HAL_bsp/\libhal_bsp.a(altera_up_avalon_video_character_buffer_with_dma.o)
 *fill*         0x000000000000a93a        0x2 
 .rodata        0x000000000000a93c        0xa ../media_computer_HAL_bsp/\libhal_bsp.a(alt_dev.o)
 *fill*         0x000000000000a946        0x2 
 .rodata.str1.4
                0x000000000000a948        0x4 c:/intelfpga/17.1/nios2eds/bin/gnu/h-x86_64-mingw32/bin/../lib/gcc/nios2-elf/5.3.0/../../../../../H-x86_64-mingw32/nios2-elf/lib\libc.a(lib_a-impure.o)
                                          0x2 (size before relaxing)
 *(.rodata1)
                0x000000000000a94c                . = ALIGN (0x4)
                0x000000000000a94c                PROVIDE (__ram_rodata_end, ABSOLUTE (.))
                0x000000000000a688                PROVIDE (__flash_rodata_start, LOADADDR (.rodata))

.rwdata         0x000000000000a94c     0x1e48 load address 0x000000000000c794
                0x000000000000a94c                PROVIDE (__ram_rwdata_start, ABSOLUTE (.))
                0x000000000000a94c                . = ALIGN (0x4)
 *(.got.plt)
 *(.got)
 *(.data1)
 *(.data .data.* .gnu.linkonce.d.*)
 .data          0x000000000000a94c        0x0 ../media_computer_HAL_bsp//obj/HAL/src/crt0.o
 .data          0x000000000000a94c        0x0 obj/default/media_graphics_HAL.o
 .data          0x000000000000a94c        0x0 c:/intelfpga/17.1/nios2eds/bin/gnu/h-x86_64-mingw32/bin/../lib/gcc/nios2-elf/5.3.0/../../../../../H-x86_64-mingw32/nios2-elf/lib\libc.a(lib_a-memcpy.o)
 .data          0x000000000000a94c        0x0 ../media_computer_HAL_bsp/\libhal_bsp.a(alt_load.o)
 .data          0x000000000000a94c        0x0 ../media_computer_HAL_bsp/\libhal_bsp.a(alt_main.o)
 .data          0x000000000000a94c        0x0 ../media_computer_HAL_bsp/\libhal_bsp.a(alt_printf.o)
 .data          0x000000000000a94c        0x0 ../media_computer_HAL_bsp/\libhal_bsp.a(alt_putchar.o)
 .data          0x000000000000a94c     0x1434 ../media_computer_HAL_bsp/\libhal_bsp.a(alt_sys_init.o)
 .data          0x000000000000bd80        0x0 ../media_computer_HAL_bsp/\libhal_bsp.a(altera_avalon_cfi_flash.o)
 .data          0x000000000000bd80        0x0 ../media_computer_HAL_bsp/\libhal_bsp.a(altera_avalon_cfi_flash_table.o)
 .data          0x000000000000bd80        0x0 ../media_computer_HAL_bsp/\libhal_bsp.a(altera_avalon_jtag_uart_fd.o)
 .data          0x000000000000bd80        0x0 ../media_computer_HAL_bsp/\libhal_bsp.a(altera_avalon_jtag_uart_init.o)
 .data          0x000000000000bd80        0x0 ../media_computer_HAL_bsp/\libhal_bsp.a(altera_avalon_jtag_uart_ioctl.o)
 .data          0x000000000000bd80        0x0 ../media_computer_HAL_bsp/\libhal_bsp.a(altera_avalon_jtag_uart_read.o)
 .data          0x000000000000bd80        0x0 ../media_computer_HAL_bsp/\libhal_bsp.a(altera_avalon_jtag_uart_write.o)
 .data          0x000000000000bd80        0x0 ../media_computer_HAL_bsp/\libhal_bsp.a(altera_avalon_timer_sc.o)
 .data          0x000000000000bd80        0x0 ../media_computer_HAL_bsp/\libhal_bsp.a(altera_up_avalon_character_lcd.o)
 .data          0x000000000000bd80        0x0 ../media_computer_HAL_bsp/\libhal_bsp.a(altera_up_avalon_ps2.o)
 .data          0x000000000000bd80        0x0 ../media_computer_HAL_bsp/\libhal_bsp.a(altera_up_avalon_rs232.o)
 .data          0x000000000000bd80        0x0 ../media_computer_HAL_bsp/\libhal_bsp.a(altera_up_avalon_video_character_buffer_with_dma.o)
 .data          0x000000000000bd80        0x0 ../media_computer_HAL_bsp/\libhal_bsp.a(altera_up_avalon_video_pixel_buffer_dma.o)
 .data          0x000000000000bd80        0x0 ../media_computer_HAL_bsp/\libhal_bsp.a(alt_alarm_start.o)
 .data          0x000000000000bd80        0x0 ../media_computer_HAL_bsp/\libhal_bsp.a(alt_close.o)
 .data          0x000000000000bd80        0x0 ../media_computer_HAL_bsp/\libhal_bsp.a(alt_dcache_flush.o)
 .data          0x000000000000bd80        0x0 ../media_computer_HAL_bsp/\libhal_bsp.a(alt_dcache_flush_all.o)
 .data          0x000000000000bd80      0x1a8 ../media_computer_HAL_bsp/\libhal_bsp.a(alt_dev.o)
                0x000000000000bd80                alt_dev_null
                0x000000000000bda8                alt_fd_list
 .data          0x000000000000bf28        0x0 ../media_computer_HAL_bsp/\libhal_bsp.a(alt_dev_llist_insert.o)
 .data          0x000000000000bf28        0x0 ../media_computer_HAL_bsp/\libhal_bsp.a(alt_do_ctors.o)
 .data          0x000000000000bf28        0x0 ../media_computer_HAL_bsp/\libhal_bsp.a(alt_do_dtors.o)
 .data          0x000000000000bf28        0x0 ../media_computer_HAL_bsp/\libhal_bsp.a(alt_errno.o)
 .data          0x000000000000bf28        0x0 ../media_computer_HAL_bsp/\libhal_bsp.a(alt_find_dev.o)
 .data          0x000000000000bf28        0x0 ../media_computer_HAL_bsp/\libhal_bsp.a(alt_flash_dev.o)
 .data          0x000000000000bf28        0x0 ../media_computer_HAL_bsp/\libhal_bsp.a(alt_icache_flush_all.o)
 .data          0x000000000000bf28        0x0 ../media_computer_HAL_bsp/\libhal_bsp.a(alt_io_redirect.o)
 .data          0x000000000000bf28        0x0 ../media_computer_HAL_bsp/\libhal_bsp.a(alt_irq_register.o)
 .data          0x000000000000bf28        0x0 ../media_computer_HAL_bsp/\libhal_bsp.a(alt_irq_vars.o)
 .data          0x000000000000bf28        0x0 ../media_computer_HAL_bsp/\libhal_bsp.a(alt_open.o)
 .data          0x000000000000bf28        0x0 ../media_computer_HAL_bsp/\libhal_bsp.a(alt_release_fd.o)
 .data          0x000000000000bf28        0x0 ../media_computer_HAL_bsp/\libhal_bsp.a(alt_tick.o)
 .data          0x000000000000bf28        0x0 ../media_computer_HAL_bsp/\libhal_bsp.a(altera_nios2_gen2_irq.o)
 .data          0x000000000000bf28        0x0 ../media_computer_HAL_bsp/\libhal_bsp.a(altera_avalon_cfi_flash_amd.o)
 .data          0x000000000000bf28        0x0 ../media_computer_HAL_bsp/\libhal_bsp.a(altera_avalon_cfi_flash_intel.o)
 .data          0x000000000000bf28        0x0 ../media_computer_HAL_bsp/\libhal_bsp.a(alt_find_file.o)
 .data          0x000000000000bf28        0x0 ../media_computer_HAL_bsp/\libhal_bsp.a(alt_get_fd.o)
 .data          0x000000000000bf28        0x0 ../media_computer_HAL_bsp/\libhal_bsp.a(alt_icache_flush.o)
 .data          0x000000000000bf28        0x0 ../media_computer_HAL_bsp/\libhal_bsp.a(alt_irq_entry.o)
 .data          0x000000000000bf28        0x0 ../media_computer_HAL_bsp/\libhal_bsp.a(alt_irq_handler.o)
 .data          0x000000000000bf28        0x0 ../media_computer_HAL_bsp/\libhal_bsp.a(alt_usleep.o)
 .data          0x000000000000bf28        0x0 ../media_computer_HAL_bsp/\libhal_bsp.a(alt_busy_sleep.o)
 .data          0x000000000000bf28        0x0 ../media_computer_HAL_bsp/\libhal_bsp.a(alt_exception_entry.o)
 .data          0x000000000000bf28        0x0 ../media_computer_HAL_bsp/\libhal_bsp.a(alt_instruction_exception_entry.o)
 .data          0x000000000000bf28        0x0 c:/intelfpga/17.1/nios2eds/bin/gnu/h-x86_64-mingw32/bin/../lib/gcc/nios2-elf/5.3.0/../../../../../H-x86_64-mingw32/nios2-elf/lib\libc.a(lib_a-atexit.o)
 .data          0x000000000000bf28        0x0 c:/intelfpga/17.1/nios2eds/bin/gnu/h-x86_64-mingw32/bin/../lib/gcc/nios2-elf/5.3.0/../../../../../H-x86_64-mingw32/nios2-elf/lib\libc.a(lib_a-exit.o)
 .data          0x000000000000bf28        0x0 c:/intelfpga/17.1/nios2eds/bin/gnu/h-x86_64-mingw32/bin/../lib/gcc/nios2-elf/5.3.0/../../../../../H-x86_64-mingw32/nios2-elf/lib\libc.a(lib_a-impure.o)
 .data.impure_data
                0x000000000000bf28      0x424 c:/intelfpga/17.1/nios2eds/bin/gnu/h-x86_64-mingw32/bin/../lib/gcc/nios2-elf/5.3.0/../../../../../H-x86_64-mingw32/nios2-elf/lib\libc.a(lib_a-impure.o)
 .data          0x000000000000c34c        0x0 c:/intelfpga/17.1/nios2eds/bin/gnu/h-x86_64-mingw32/bin/../lib/gcc/nios2-elf/5.3.0/../../../../../H-x86_64-mingw32/nios2-elf/lib\libc.a(lib_a-int_errno.o)
 .data          0x000000000000c34c        0x0 c:/intelfpga/17.1/nios2eds/bin/gnu/h-x86_64-mingw32/bin/../lib/gcc/nios2-elf/5.3.0/../../../../../H-x86_64-mingw32/nios2-elf/lib\libc.a(lib_a-memcmp.o)
 .data          0x000000000000c34c        0x0 c:/intelfpga/17.1/nios2eds/bin/gnu/h-x86_64-mingw32/bin/../lib/gcc/nios2-elf/5.3.0/../../../../../H-x86_64-mingw32/nios2-elf/lib\libc.a(lib_a-putc.o)
 .data          0x000000000000c34c        0x0 c:/intelfpga/17.1/nios2eds/bin/gnu/h-x86_64-mingw32/bin/../lib/gcc/nios2-elf/5.3.0/../../../../../H-x86_64-mingw32/nios2-elf/lib\libc.a(lib_a-strcmp.o)
 .data          0x000000000000c34c        0x0 c:/intelfpga/17.1/nios2eds/bin/gnu/h-x86_64-mingw32/bin/../lib/gcc/nios2-elf/5.3.0/../../../../../H-x86_64-mingw32/nios2-elf/lib\libc.a(lib_a-strlen.o)
 .data          0x000000000000c34c        0x0 c:/intelfpga/17.1/nios2eds/bin/gnu/h-x86_64-mingw32/bin/../lib/gcc/nios2-elf/5.3.0/../../../../../H-x86_64-mingw32/nios2-elf/lib\libc.a(lib_a-wbuf.o)
 .data          0x000000000000c34c        0x0 c:/intelfpga/17.1/nios2eds/bin/gnu/h-x86_64-mingw32/bin/../lib/gcc/nios2-elf/5.3.0/../../../../../H-x86_64-mingw32/nios2-elf/lib\libc.a(lib_a-wsetup.o)
 .data          0x000000000000c34c        0x0 c:/intelfpga/17.1/nios2eds/bin/gnu/h-x86_64-mingw32/bin/../lib/gcc/nios2-elf/5.3.0/../../../../../H-x86_64-mingw32/nios2-elf/lib\libc.a(lib_a-__atexit.o)
 .data          0x000000000000c34c        0x0 c:/intelfpga/17.1/nios2eds/bin/gnu/h-x86_64-mingw32/bin/../lib/gcc/nios2-elf/5.3.0/../../../../../H-x86_64-mingw32/nios2-elf/lib\libc.a(lib_a-__call_atexit.o)
 .data          0x000000000000c34c        0x0 c:/intelfpga/17.1/nios2eds/bin/gnu/h-x86_64-mingw32/bin/../lib/gcc/nios2-elf/5.3.0/../../../../../H-x86_64-mingw32/nios2-elf/lib\libc.a(lib_a-fflush.o)
 .data          0x000000000000c34c        0x0 c:/intelfpga/17.1/nios2eds/bin/gnu/h-x86_64-mingw32/bin/../lib/gcc/nios2-elf/5.3.0/../../../../../H-x86_64-mingw32/nios2-elf/lib\libc.a(lib_a-findfp.o)
 .data          0x000000000000c34c        0x0 c:/intelfpga/17.1/nios2eds/bin/gnu/h-x86_64-mingw32/bin/../lib/gcc/nios2-elf/5.3.0/../../../../../H-x86_64-mingw32/nios2-elf/lib\libc.a(lib_a-freer.o)
 .data          0x000000000000c34c        0x0 c:/intelfpga/17.1/nios2eds/bin/gnu/h-x86_64-mingw32/bin/../lib/gcc/nios2-elf/5.3.0/../../../../../H-x86_64-mingw32/nios2-elf/lib\libc.a(lib_a-fwalk.o)
 .data          0x000000000000c34c        0x0 c:/intelfpga/17.1/nios2eds/bin/gnu/h-x86_64-mingw32/bin/../lib/gcc/nios2-elf/5.3.0/../../../../../H-x86_64-mingw32/nios2-elf/lib\libc.a(lib_a-makebuf.o)
 .data          0x000000000000c34c        0x0 c:/intelfpga/17.1/nios2eds/bin/gnu/h-x86_64-mingw32/bin/../lib/gcc/nios2-elf/5.3.0/../../../../../H-x86_64-mingw32/nios2-elf/lib\libc.a(lib_a-mallocr.o)
 .data.__malloc_av_
                0x000000000000c34c      0x408 c:/intelfpga/17.1/nios2eds/bin/gnu/h-x86_64-mingw32/bin/../lib/gcc/nios2-elf/5.3.0/../../../../../H-x86_64-mingw32/nios2-elf/lib\libc.a(lib_a-mallocr.o)
                0x000000000000c34c                __malloc_av_
 .data          0x000000000000c754        0x0 c:/intelfpga/17.1/nios2eds/bin/gnu/h-x86_64-mingw32/bin/../lib/gcc/nios2-elf/5.3.0/../../../../../H-x86_64-mingw32/nios2-elf/lib\libc.a(lib_a-memset.o)
 .data          0x000000000000c754        0x0 c:/intelfpga/17.1/nios2eds/bin/gnu/h-x86_64-mingw32/bin/../lib/gcc/nios2-elf/5.3.0/../../../../../H-x86_64-mingw32/nios2-elf/lib\libc.a(lib_a-sbrkr.o)
 .data          0x000000000000c754        0x0 c:/intelfpga/17.1/nios2eds/bin/gnu/h-x86_64-mingw32/bin/../lib/gcc/nios2-elf/5.3.0/../../../../../H-x86_64-mingw32/nios2-elf/lib\libc.a(lib_a-stdio.o)
 .data          0x000000000000c754        0x0 c:/intelfpga/17.1/nios2eds/bin/gnu/h-x86_64-mingw32/bin/../lib/gcc/nios2-elf/5.3.0/../../../../../H-x86_64-mingw32/nios2-elf/lib\libc.a(lib_a-writer.o)
 .data          0x000000000000c754        0x0 c:/intelfpga/17.1/nios2eds/bin/gnu/h-x86_64-mingw32/bin/../lib/gcc/nios2-elf/5.3.0/../../../../../H-x86_64-mingw32/nios2-elf/lib\libc.a(closer.o)
 .data          0x000000000000c754        0x0 c:/intelfpga/17.1/nios2eds/bin/gnu/h-x86_64-mingw32/bin/../lib/gcc/nios2-elf/5.3.0/../../../../../H-x86_64-mingw32/nios2-elf/lib\libc.a(lib_a-fclose.o)
 .data          0x000000000000c754        0x0 c:/intelfpga/17.1/nios2eds/bin/gnu/h-x86_64-mingw32/bin/../lib/gcc/nios2-elf/5.3.0/../../../../../H-x86_64-mingw32/nios2-elf/lib\libc.a(lib_a-fstatr.o)
 .data          0x000000000000c754        0x0 c:/intelfpga/17.1/nios2eds/bin/gnu/h-x86_64-mingw32/bin/../lib/gcc/nios2-elf/5.3.0/../../../../../H-x86_64-mingw32/nios2-elf/lib\libc.a(lib_a-isattyr.o)
 .data          0x000000000000c754        0x0 c:/intelfpga/17.1/nios2eds/bin/gnu/h-x86_64-mingw32/bin/../lib/gcc/nios2-elf/5.3.0/../../../../../H-x86_64-mingw32/nios2-elf/lib\libc.a(lib_a-lseekr.o)
 .data          0x000000000000c754        0x0 c:/intelfpga/17.1/nios2eds/bin/gnu/h-x86_64-mingw32/bin/../lib/gcc/nios2-elf/5.3.0/../../../../../H-x86_64-mingw32/nios2-elf/lib\libc.a(lib_a-readr.o)
 .data          0x000000000000c754        0x0 c:/intelfpga/17.1/nios2eds/bin/gnu/h-x86_64-mingw32/bin/../lib/gcc/nios2-elf/5.3.0\libgcc.a(lib2-divmod.o)
 .data          0x000000000000c754        0x0 ../media_computer_HAL_bsp/\libhal_bsp.a(alt_exit.o)
 .data          0x000000000000c754        0x0 ../media_computer_HAL_bsp/\libhal_bsp.a(alt_fstat.o)
 .data          0x000000000000c754        0x0 ../media_computer_HAL_bsp/\libhal_bsp.a(alt_isatty.o)
 .data          0x000000000000c754        0x0 ../media_computer_HAL_bsp/\libhal_bsp.a(alt_lseek.o)
 .data          0x000000000000c754        0x0 ../media_computer_HAL_bsp/\libhal_bsp.a(alt_malloc_lock.o)
 .data          0x000000000000c754        0x0 ../media_computer_HAL_bsp/\libhal_bsp.a(alt_read.o)
 .data          0x000000000000c754        0x0 ../media_computer_HAL_bsp/\libhal_bsp.a(alt_sbrk.o)
 .data          0x000000000000c754        0x0 ../media_computer_HAL_bsp/\libhal_bsp.a(alt_write.o)
                0x0000000000014754                _gp = ABSOLUTE ((. + 0x8000))
                [!provide]                        PROVIDE (gp, _gp)
 *(.rwdata .rwdata.*)
 *(.sdata .sdata.* .gnu.linkonce.s.*)
 .sdata         0x000000000000c754       0x14 ../media_computer_HAL_bsp/\libhal_bsp.a(alt_dev.o)
                0x000000000000c754                alt_fs_list
                0x000000000000c75c                alt_dev_list
                0x000000000000c764                alt_max_fd
 .sdata         0x000000000000c768        0x4 ../media_computer_HAL_bsp/\libhal_bsp.a(alt_errno.o)
                0x000000000000c768                alt_errno
 .sdata         0x000000000000c76c        0x8 ../media_computer_HAL_bsp/\libhal_bsp.a(alt_flash_dev.o)
                0x000000000000c76c                alt_flash_dev_list
 .sdata         0x000000000000c774        0x4 ../media_computer_HAL_bsp/\libhal_bsp.a(alt_irq_vars.o)
                0x000000000000c774                alt_priority_mask
 .sdata         0x000000000000c778        0x8 ../media_computer_HAL_bsp/\libhal_bsp.a(alt_tick.o)
                0x000000000000c778                alt_alarm_list
 .sdata._global_impure_ptr
                0x000000000000c780        0x4 c:/intelfpga/17.1/nios2eds/bin/gnu/h-x86_64-mingw32/bin/../lib/gcc/nios2-elf/5.3.0/../../../../../H-x86_64-mingw32/nios2-elf/lib\libc.a(lib_a-impure.o)
                0x000000000000c780                _global_impure_ptr
 .sdata._impure_ptr
                0x000000000000c784        0x4 c:/intelfpga/17.1/nios2eds/bin/gnu/h-x86_64-mingw32/bin/../lib/gcc/nios2-elf/5.3.0/../../../../../H-x86_64-mingw32/nios2-elf/lib\libc.a(lib_a-impure.o)
                0x000000000000c784                _impure_ptr
 .sdata.__malloc_sbrk_base
                0x000000000000c788        0x4 c:/intelfpga/17.1/nios2eds/bin/gnu/h-x86_64-mingw32/bin/../lib/gcc/nios2-elf/5.3.0/../../../../../H-x86_64-mingw32/nios2-elf/lib\libc.a(lib_a-mallocr.o)
                0x000000000000c788                __malloc_sbrk_base
 .sdata.__malloc_trim_threshold
                0x000000000000c78c        0x4 c:/intelfpga/17.1/nios2eds/bin/gnu/h-x86_64-mingw32/bin/../lib/gcc/nios2-elf/5.3.0/../../../../../H-x86_64-mingw32/nios2-elf/lib\libc.a(lib_a-mallocr.o)
                0x000000000000c78c                __malloc_trim_threshold
 .sdata         0x000000000000c790        0x4 ../media_computer_HAL_bsp/\libhal_bsp.a(alt_sbrk.o)
 *(.sdata2 .sdata2.* .gnu.linkonce.s2.*)
                0x000000000000c794                . = ALIGN (0x4)
                0x000000000000c794                _edata = ABSOLUTE (.)
                [!provide]                        PROVIDE (edata, ABSOLUTE (.))
                0x000000000000c794                PROVIDE (__ram_rwdata_end, ABSOLUTE (.))
                0x000000000000c794                PROVIDE (__flash_rwdata_start, LOADADDR (.rwdata))

.bss            0x000000000000e5dc      0x154
                0x000000000000e5dc                __bss_start = ABSOLUTE (.)
                [!provide]                        PROVIDE (__sbss_start, ABSOLUTE (.))
                [!provide]                        PROVIDE (___sbss_start, ABSOLUTE (.))
 *(.dynsbss)
 *(.sbss .sbss.* .gnu.linkonce.sb.*)
 .sbss          0x000000000000e5dc        0xc ../media_computer_HAL_bsp/\libhal_bsp.a(alt_main.o)
                0x000000000000e5dc                alt_argc
                0x000000000000e5e0                alt_argv
                0x000000000000e5e4                alt_envp
 .sbss          0x000000000000e5e8        0x4 ../media_computer_HAL_bsp/\libhal_bsp.a(alt_irq_vars.o)
                0x000000000000e5e8                alt_irq_active
 .sbss          0x000000000000e5ec        0x8 ../media_computer_HAL_bsp/\libhal_bsp.a(alt_tick.o)
                0x000000000000e5ec                _alt_tick_rate
                0x000000000000e5f0                _alt_nticks
 .sbss          0x000000000000e5f4        0x4 ../media_computer_HAL_bsp/\libhal_bsp.a(alt_instruction_exception_entry.o)
                0x000000000000e5f4                alt_instruction_exception_handler
 .sbss          0x000000000000e5f8        0x4 c:/intelfpga/17.1/nios2eds/bin/gnu/h-x86_64-mingw32/bin/../lib/gcc/nios2-elf/5.3.0/../../../../../H-x86_64-mingw32/nios2-elf/lib\libc.a(lib_a-int_errno.o)
                0x000000000000e5f8                errno
 .sbss.__malloc_max_total_mem
                0x000000000000e5fc        0x4 c:/intelfpga/17.1/nios2eds/bin/gnu/h-x86_64-mingw32/bin/../lib/gcc/nios2-elf/5.3.0/../../../../../H-x86_64-mingw32/nios2-elf/lib\libc.a(lib_a-mallocr.o)
                0x000000000000e5fc                __malloc_max_total_mem
 .sbss.__malloc_max_sbrked_mem
                0x000000000000e600        0x4 c:/intelfpga/17.1/nios2eds/bin/gnu/h-x86_64-mingw32/bin/../lib/gcc/nios2-elf/5.3.0/../../../../../H-x86_64-mingw32/nios2-elf/lib\libc.a(lib_a-mallocr.o)
                0x000000000000e600                __malloc_max_sbrked_mem
 .sbss.__malloc_top_pad
                0x000000000000e604        0x4 c:/intelfpga/17.1/nios2eds/bin/gnu/h-x86_64-mingw32/bin/../lib/gcc/nios2-elf/5.3.0/../../../../../H-x86_64-mingw32/nios2-elf/lib\libc.a(lib_a-mallocr.o)
                0x000000000000e604                __malloc_top_pad
 *(.sbss2 .sbss2.* .gnu.linkonce.sb2.*)
 *(.scommon)
                [!provide]                        PROVIDE (__sbss_end, ABSOLUTE (.))
                [!provide]                        PROVIDE (___sbss_end, ABSOLUTE (.))
 *(.dynbss)
 *(.bss .bss.* .gnu.linkonce.b.*)
 .bss           0x000000000000e608        0x0 ../media_computer_HAL_bsp//obj/HAL/src/crt0.o
 .bss           0x000000000000e608        0x0 obj/default/media_graphics_HAL.o
 .bss           0x000000000000e608        0x0 c:/intelfpga/17.1/nios2eds/bin/gnu/h-x86_64-mingw32/bin/../lib/gcc/nios2-elf/5.3.0/../../../../../H-x86_64-mingw32/nios2-elf/lib\libc.a(lib_a-memcpy.o)
 .bss           0x000000000000e608        0x0 ../media_computer_HAL_bsp/\libhal_bsp.a(alt_load.o)
 .bss           0x000000000000e608        0x0 ../media_computer_HAL_bsp/\libhal_bsp.a(alt_main.o)
 .bss           0x000000000000e608        0x0 ../media_computer_HAL_bsp/\libhal_bsp.a(alt_printf.o)
 .bss           0x000000000000e608        0x0 ../media_computer_HAL_bsp/\libhal_bsp.a(alt_putchar.o)
 .bss           0x000000000000e608        0x0 ../media_computer_HAL_bsp/\libhal_bsp.a(alt_sys_init.o)
 .bss           0x000000000000e608        0x0 ../media_computer_HAL_bsp/\libhal_bsp.a(altera_avalon_cfi_flash.o)
 .bss           0x000000000000e608        0x0 ../media_computer_HAL_bsp/\libhal_bsp.a(altera_avalon_cfi_flash_table.o)
 .bss           0x000000000000e608        0x0 ../media_computer_HAL_bsp/\libhal_bsp.a(altera_avalon_jtag_uart_fd.o)
 .bss           0x000000000000e608        0x0 ../media_computer_HAL_bsp/\libhal_bsp.a(altera_avalon_jtag_uart_init.o)
 .bss           0x000000000000e608        0x0 ../media_computer_HAL_bsp/\libhal_bsp.a(altera_avalon_jtag_uart_ioctl.o)
 .bss           0x000000000000e608        0x0 ../media_computer_HAL_bsp/\libhal_bsp.a(altera_avalon_jtag_uart_read.o)
 .bss           0x000000000000e608        0x0 ../media_computer_HAL_bsp/\libhal_bsp.a(altera_avalon_jtag_uart_write.o)
 .bss           0x000000000000e608        0x0 ../media_computer_HAL_bsp/\libhal_bsp.a(altera_avalon_timer_sc.o)
 .bss           0x000000000000e608        0x0 ../media_computer_HAL_bsp/\libhal_bsp.a(altera_up_avalon_character_lcd.o)
 .bss           0x000000000000e608        0x0 ../media_computer_HAL_bsp/\libhal_bsp.a(altera_up_avalon_ps2.o)
 .bss           0x000000000000e608        0x0 ../media_computer_HAL_bsp/\libhal_bsp.a(altera_up_avalon_rs232.o)
 .bss           0x000000000000e608        0x0 ../media_computer_HAL_bsp/\libhal_bsp.a(altera_up_avalon_video_character_buffer_with_dma.o)
 .bss           0x000000000000e608        0x0 ../media_computer_HAL_bsp/\libhal_bsp.a(altera_up_avalon_video_pixel_buffer_dma.o)
 .bss           0x000000000000e608        0x0 ../media_computer_HAL_bsp/\libhal_bsp.a(alt_alarm_start.o)
 .bss           0x000000000000e608        0x0 ../media_computer_HAL_bsp/\libhal_bsp.a(alt_close.o)
 .bss           0x000000000000e608        0x0 ../media_computer_HAL_bsp/\libhal_bsp.a(alt_dcache_flush.o)
 .bss           0x000000000000e608        0x0 ../media_computer_HAL_bsp/\libhal_bsp.a(alt_dcache_flush_all.o)
 .bss           0x000000000000e608        0x0 ../media_computer_HAL_bsp/\libhal_bsp.a(alt_dev.o)
 .bss           0x000000000000e608        0x0 ../media_computer_HAL_bsp/\libhal_bsp.a(alt_dev_llist_insert.o)
 .bss           0x000000000000e608        0x0 ../media_computer_HAL_bsp/\libhal_bsp.a(alt_do_ctors.o)
 .bss           0x000000000000e608        0x0 ../media_computer_HAL_bsp/\libhal_bsp.a(alt_do_dtors.o)
 .bss           0x000000000000e608        0x0 ../media_computer_HAL_bsp/\libhal_bsp.a(alt_errno.o)
 .bss           0x000000000000e608        0x0 ../media_computer_HAL_bsp/\libhal_bsp.a(alt_find_dev.o)
 .bss           0x000000000000e608        0x0 ../media_computer_HAL_bsp/\libhal_bsp.a(alt_flash_dev.o)
 .bss           0x000000000000e608        0x0 ../media_computer_HAL_bsp/\libhal_bsp.a(alt_icache_flush_all.o)
 .bss           0x000000000000e608        0x0 ../media_computer_HAL_bsp/\libhal_bsp.a(alt_io_redirect.o)
 .bss           0x000000000000e608        0x0 ../media_computer_HAL_bsp/\libhal_bsp.a(alt_irq_register.o)
 .bss           0x000000000000e608        0x0 ../media_computer_HAL_bsp/\libhal_bsp.a(alt_irq_vars.o)
 .bss           0x000000000000e608        0x0 ../media_computer_HAL_bsp/\libhal_bsp.a(alt_open.o)
 .bss           0x000000000000e608        0x0 ../media_computer_HAL_bsp/\libhal_bsp.a(alt_release_fd.o)
 .bss           0x000000000000e608        0x0 ../media_computer_HAL_bsp/\libhal_bsp.a(alt_tick.o)
 .bss           0x000000000000e608        0x0 ../media_computer_HAL_bsp/\libhal_bsp.a(altera_nios2_gen2_irq.o)
 .bss           0x000000000000e608        0x0 ../media_computer_HAL_bsp/\libhal_bsp.a(altera_avalon_cfi_flash_amd.o)
 .bss           0x000000000000e608        0x0 ../media_computer_HAL_bsp/\libhal_bsp.a(altera_avalon_cfi_flash_intel.o)
 .bss           0x000000000000e608        0x0 ../media_computer_HAL_bsp/\libhal_bsp.a(alt_find_file.o)
 .bss           0x000000000000e608        0x0 ../media_computer_HAL_bsp/\libhal_bsp.a(alt_get_fd.o)
 .bss           0x000000000000e608        0x0 ../media_computer_HAL_bsp/\libhal_bsp.a(alt_icache_flush.o)
 .bss           0x000000000000e608        0x0 ../media_computer_HAL_bsp/\libhal_bsp.a(alt_irq_entry.o)
 .bss           0x000000000000e608        0x0 ../media_computer_HAL_bsp/\libhal_bsp.a(alt_irq_handler.o)
 .bss           0x000000000000e608        0x0 ../media_computer_HAL_bsp/\libhal_bsp.a(alt_usleep.o)
 .bss           0x000000000000e608        0x0 ../media_computer_HAL_bsp/\libhal_bsp.a(alt_busy_sleep.o)
 .bss           0x000000000000e608        0x0 ../media_computer_HAL_bsp/\libhal_bsp.a(alt_exception_entry.o)
 .bss           0x000000000000e608        0x0 ../media_computer_HAL_bsp/\libhal_bsp.a(alt_instruction_exception_entry.o)
 .bss           0x000000000000e608        0x0 c:/intelfpga/17.1/nios2eds/bin/gnu/h-x86_64-mingw32/bin/../lib/gcc/nios2-elf/5.3.0/../../../../../H-x86_64-mingw32/nios2-elf/lib\libc.a(lib_a-atexit.o)
 .bss           0x000000000000e608        0x0 c:/intelfpga/17.1/nios2eds/bin/gnu/h-x86_64-mingw32/bin/../lib/gcc/nios2-elf/5.3.0/../../../../../H-x86_64-mingw32/nios2-elf/lib\libc.a(lib_a-exit.o)
 .bss           0x000000000000e608        0x0 c:/intelfpga/17.1/nios2eds/bin/gnu/h-x86_64-mingw32/bin/../lib/gcc/nios2-elf/5.3.0/../../../../../H-x86_64-mingw32/nios2-elf/lib\libc.a(lib_a-impure.o)
 .bss           0x000000000000e608        0x0 c:/intelfpga/17.1/nios2eds/bin/gnu/h-x86_64-mingw32/bin/../lib/gcc/nios2-elf/5.3.0/../../../../../H-x86_64-mingw32/nios2-elf/lib\libc.a(lib_a-int_errno.o)
 .bss           0x000000000000e608        0x0 c:/intelfpga/17.1/nios2eds/bin/gnu/h-x86_64-mingw32/bin/../lib/gcc/nios2-elf/5.3.0/../../../../../H-x86_64-mingw32/nios2-elf/lib\libc.a(lib_a-memcmp.o)
 .bss           0x000000000000e608        0x0 c:/intelfpga/17.1/nios2eds/bin/gnu/h-x86_64-mingw32/bin/../lib/gcc/nios2-elf/5.3.0/../../../../../H-x86_64-mingw32/nios2-elf/lib\libc.a(lib_a-putc.o)
 .bss           0x000000000000e608        0x0 c:/intelfpga/17.1/nios2eds/bin/gnu/h-x86_64-mingw32/bin/../lib/gcc/nios2-elf/5.3.0/../../../../../H-x86_64-mingw32/nios2-elf/lib\libc.a(lib_a-strcmp.o)
 .bss           0x000000000000e608        0x0 c:/intelfpga/17.1/nios2eds/bin/gnu/h-x86_64-mingw32/bin/../lib/gcc/nios2-elf/5.3.0/../../../../../H-x86_64-mingw32/nios2-elf/lib\libc.a(lib_a-strlen.o)
 .bss           0x000000000000e608        0x0 c:/intelfpga/17.1/nios2eds/bin/gnu/h-x86_64-mingw32/bin/../lib/gcc/nios2-elf/5.3.0/../../../../../H-x86_64-mingw32/nios2-elf/lib\libc.a(lib_a-wbuf.o)
 .bss           0x000000000000e608        0x0 c:/intelfpga/17.1/nios2eds/bin/gnu/h-x86_64-mingw32/bin/../lib/gcc/nios2-elf/5.3.0/../../../../../H-x86_64-mingw32/nios2-elf/lib\libc.a(lib_a-wsetup.o)
 .bss           0x000000000000e608        0x0 c:/intelfpga/17.1/nios2eds/bin/gnu/h-x86_64-mingw32/bin/../lib/gcc/nios2-elf/5.3.0/../../../../../H-x86_64-mingw32/nios2-elf/lib\libc.a(lib_a-__atexit.o)
 .bss           0x000000000000e608        0x0 c:/intelfpga/17.1/nios2eds/bin/gnu/h-x86_64-mingw32/bin/../lib/gcc/nios2-elf/5.3.0/../../../../../H-x86_64-mingw32/nios2-elf/lib\libc.a(lib_a-__call_atexit.o)
 .bss           0x000000000000e608        0x0 c:/intelfpga/17.1/nios2eds/bin/gnu/h-x86_64-mingw32/bin/../lib/gcc/nios2-elf/5.3.0/../../../../../H-x86_64-mingw32/nios2-elf/lib\libc.a(lib_a-fflush.o)
 .bss           0x000000000000e608        0x0 c:/intelfpga/17.1/nios2eds/bin/gnu/h-x86_64-mingw32/bin/../lib/gcc/nios2-elf/5.3.0/../../../../../H-x86_64-mingw32/nios2-elf/lib\libc.a(lib_a-findfp.o)
 .bss           0x000000000000e608        0x0 c:/intelfpga/17.1/nios2eds/bin/gnu/h-x86_64-mingw32/bin/../lib/gcc/nios2-elf/5.3.0/../../../../../H-x86_64-mingw32/nios2-elf/lib\libc.a(lib_a-freer.o)
 .bss           0x000000000000e608        0x0 c:/intelfpga/17.1/nios2eds/bin/gnu/h-x86_64-mingw32/bin/../lib/gcc/nios2-elf/5.3.0/../../../../../H-x86_64-mingw32/nios2-elf/lib\libc.a(lib_a-fwalk.o)
 .bss           0x000000000000e608        0x0 c:/intelfpga/17.1/nios2eds/bin/gnu/h-x86_64-mingw32/bin/../lib/gcc/nios2-elf/5.3.0/../../../../../H-x86_64-mingw32/nios2-elf/lib\libc.a(lib_a-makebuf.o)
 .bss           0x000000000000e608        0x0 c:/intelfpga/17.1/nios2eds/bin/gnu/h-x86_64-mingw32/bin/../lib/gcc/nios2-elf/5.3.0/../../../../../H-x86_64-mingw32/nios2-elf/lib\libc.a(lib_a-mallocr.o)
 .bss.__malloc_current_mallinfo
                0x000000000000e608       0x28 c:/intelfpga/17.1/nios2eds/bin/gnu/h-x86_64-mingw32/bin/../lib/gcc/nios2-elf/5.3.0/../../../../../H-x86_64-mingw32/nios2-elf/lib\libc.a(lib_a-mallocr.o)
                0x000000000000e608                __malloc_current_mallinfo
 .bss           0x000000000000e630        0x0 c:/intelfpga/17.1/nios2eds/bin/gnu/h-x86_64-mingw32/bin/../lib/gcc/nios2-elf/5.3.0/../../../../../H-x86_64-mingw32/nios2-elf/lib\libc.a(lib_a-memset.o)
 .bss           0x000000000000e630        0x0 c:/intelfpga/17.1/nios2eds/bin/gnu/h-x86_64-mingw32/bin/../lib/gcc/nios2-elf/5.3.0/../../../../../H-x86_64-mingw32/nios2-elf/lib\libc.a(lib_a-sbrkr.o)
 .bss           0x000000000000e630        0x0 c:/intelfpga/17.1/nios2eds/bin/gnu/h-x86_64-mingw32/bin/../lib/gcc/nios2-elf/5.3.0/../../../../../H-x86_64-mingw32/nios2-elf/lib\libc.a(lib_a-stdio.o)
 .bss           0x000000000000e630        0x0 c:/intelfpga/17.1/nios2eds/bin/gnu/h-x86_64-mingw32/bin/../lib/gcc/nios2-elf/5.3.0/../../../../../H-x86_64-mingw32/nios2-elf/lib\libc.a(lib_a-writer.o)
 .bss           0x000000000000e630        0x0 c:/intelfpga/17.1/nios2eds/bin/gnu/h-x86_64-mingw32/bin/../lib/gcc/nios2-elf/5.3.0/../../../../../H-x86_64-mingw32/nios2-elf/lib\libc.a(closer.o)
 .bss           0x000000000000e630        0x0 c:/intelfpga/17.1/nios2eds/bin/gnu/h-x86_64-mingw32/bin/../lib/gcc/nios2-elf/5.3.0/../../../../../H-x86_64-mingw32/nios2-elf/lib\libc.a(lib_a-fclose.o)
 .bss           0x000000000000e630        0x0 c:/intelfpga/17.1/nios2eds/bin/gnu/h-x86_64-mingw32/bin/../lib/gcc/nios2-elf/5.3.0/../../../../../H-x86_64-mingw32/nios2-elf/lib\libc.a(lib_a-fstatr.o)
 .bss           0x000000000000e630        0x0 c:/intelfpga/17.1/nios2eds/bin/gnu/h-x86_64-mingw32/bin/../lib/gcc/nios2-elf/5.3.0/../../../../../H-x86_64-mingw32/nios2-elf/lib\libc.a(lib_a-isattyr.o)
 .bss           0x000000000000e630        0x0 c:/intelfpga/17.1/nios2eds/bin/gnu/h-x86_64-mingw32/bin/../lib/gcc/nios2-elf/5.3.0/../../../../../H-x86_64-mingw32/nios2-elf/lib\libc.a(lib_a-lseekr.o)
 .bss           0x000000000000e630        0x0 c:/intelfpga/17.1/nios2eds/bin/gnu/h-x86_64-mingw32/bin/../lib/gcc/nios2-elf/5.3.0/../../../../../H-x86_64-mingw32/nios2-elf/lib\libc.a(lib_a-readr.o)
 .bss           0x000000000000e630        0x0 c:/intelfpga/17.1/nios2eds/bin/gnu/h-x86_64-mingw32/bin/../lib/gcc/nios2-elf/5.3.0\libgcc.a(lib2-divmod.o)
 .bss           0x000000000000e630        0x0 ../media_computer_HAL_bsp/\libhal_bsp.a(alt_exit.o)
 .bss           0x000000000000e630        0x0 ../media_computer_HAL_bsp/\libhal_bsp.a(alt_fstat.o)
 .bss           0x000000000000e630        0x0 ../media_computer_HAL_bsp/\libhal_bsp.a(alt_isatty.o)
 .bss           0x000000000000e630        0x0 ../media_computer_HAL_bsp/\libhal_bsp.a(alt_lseek.o)
 .bss           0x000000000000e630        0x0 ../media_computer_HAL_bsp/\libhal_bsp.a(alt_malloc_lock.o)
 .bss           0x000000000000e630        0x0 ../media_computer_HAL_bsp/\libhal_bsp.a(alt_read.o)
 .bss           0x000000000000e630        0x0 ../media_computer_HAL_bsp/\libhal_bsp.a(alt_sbrk.o)
 .bss           0x000000000000e630        0x0 ../media_computer_HAL_bsp/\libhal_bsp.a(alt_write.o)
 *(COMMON)
 COMMON         0x000000000000e630      0x100 ../media_computer_HAL_bsp/\libhal_bsp.a(alt_irq_handler.o)
                0x000000000000e630                alt_irq
                0x000000000000e730                . = ALIGN (0x4)
                0x000000000000e730                __bss_end = ABSOLUTE (.)

.sdram          0x000000000000e730        0x0
                [!provide]                        PROVIDE (_alt_partition_sdram_start, ABSOLUTE (.))
 *(.sdram .sdram. sdram.*)
                0x000000000000e730                . = ALIGN (0x4)
                [!provide]                        PROVIDE (_alt_partition_sdram_end, ABSOLUTE (.))
                0x000000000000e730                _end = ABSOLUTE (.)
                0x000000000000e730                end = ABSOLUTE (.)
                0x000000000000e730                __alt_stack_base = ABSOLUTE (.)
                [!provide]                        PROVIDE (_alt_partition_sdram_load_addr, LOADADDR (.sdram))

.flash_controller
                0x0000000008000000        0x0 load address 0x000000000000e730
                [!provide]                        PROVIDE (_alt_partition_flash_controller_start, ABSOLUTE (.))
 *(.flash_controller .flash_controller. flash_controller.*)
                0x0000000008000000                . = ALIGN (0x4)
                [!provide]                        PROVIDE (_alt_partition_flash_controller_end, ABSOLUTE (.))
                [!provide]                        PROVIDE (_alt_partition_flash_controller_load_addr, LOADADDR (.flash_controller))

.onchip_memory  0x0000000008800000        0x0 load address 0x000000000000e730
                [!provide]                        PROVIDE (_alt_partition_onchip_memory_start, ABSOLUTE (.))
 *(.onchip_memory .onchip_memory. onchip_memory.*)
                0x0000000008800000                . = ALIGN (0x4)
                [!provide]                        PROVIDE (_alt_partition_onchip_memory_end, ABSOLUTE (.))
                [!provide]                        PROVIDE (_alt_partition_onchip_memory_load_addr, LOADADDR (.onchip_memory))

.stab
 *(.stab)

.stabstr
 *(.stabstr)

.stab.excl
 *(.stab.excl)

.stab.exclstr
 *(.stab.exclstr)

.stab.index
 *(.stab.index)

.stab.indexstr
 *(.stab.indexstr)

.comment        0x0000000000000000       0x23
 *(.comment)
 .comment       0x0000000000000000       0x23 obj/default/media_graphics_HAL.o
                                         0x24 (size before relaxing)
 .comment       0x0000000000000023       0x24 c:/intelfpga/17.1/nios2eds/bin/gnu/h-x86_64-mingw32/bin/../lib/gcc/nios2-elf/5.3.0/../../../../../H-x86_64-mingw32/nios2-elf/lib\libc.a(lib_a-memcpy.o)
 .comment       0x0000000000000023       0x24 ../media_computer_HAL_bsp/\libhal_bsp.a(alt_load.o)
 .comment       0x0000000000000023       0x24 ../media_computer_HAL_bsp/\libhal_bsp.a(alt_main.o)
 .comment       0x0000000000000023       0x24 ../media_computer_HAL_bsp/\libhal_bsp.a(alt_printf.o)
 .comment       0x0000000000000023       0x24 ../media_computer_HAL_bsp/\libhal_bsp.a(alt_putchar.o)
 .comment       0x0000000000000023       0x24 ../media_computer_HAL_bsp/\libhal_bsp.a(alt_sys_init.o)
 .comment       0x0000000000000023       0x24 ../media_computer_HAL_bsp/\libhal_bsp.a(altera_avalon_cfi_flash.o)
 .comment       0x0000000000000023       0x24 ../media_computer_HAL_bsp/\libhal_bsp.a(altera_avalon_cfi_flash_table.o)
 .comment       0x0000000000000023       0x24 ../media_computer_HAL_bsp/\libhal_bsp.a(altera_avalon_jtag_uart_fd.o)
 .comment       0x0000000000000023       0x24 ../media_computer_HAL_bsp/\libhal_bsp.a(altera_avalon_jtag_uart_init.o)
 .comment       0x0000000000000023       0x24 ../media_computer_HAL_bsp/\libhal_bsp.a(altera_avalon_jtag_uart_ioctl.o)
 .comment       0x0000000000000023       0x24 ../media_computer_HAL_bsp/\libhal_bsp.a(altera_avalon_jtag_uart_read.o)
 .comment       0x0000000000000023       0x24 ../media_computer_HAL_bsp/\libhal_bsp.a(altera_avalon_jtag_uart_write.o)
 .comment       0x0000000000000023       0x24 ../media_computer_HAL_bsp/\libhal_bsp.a(altera_avalon_timer_sc.o)
 .comment       0x0000000000000023       0x24 ../media_computer_HAL_bsp/\libhal_bsp.a(altera_up_avalon_character_lcd.o)
 .comment       0x0000000000000023       0x24 ../media_computer_HAL_bsp/\libhal_bsp.a(altera_up_avalon_ps2.o)
 .comment       0x0000000000000023       0x24 ../media_computer_HAL_bsp/\libhal_bsp.a(altera_up_avalon_rs232.o)
 .comment       0x0000000000000023       0x24 ../media_computer_HAL_bsp/\libhal_bsp.a(altera_up_avalon_video_character_buffer_with_dma.o)
 .comment       0x0000000000000023       0x24 ../media_computer_HAL_bsp/\libhal_bsp.a(altera_up_avalon_video_pixel_buffer_dma.o)
 .comment       0x0000000000000023       0x24 ../media_computer_HAL_bsp/\libhal_bsp.a(alt_alarm_start.o)
 .comment       0x0000000000000023       0x24 ../media_computer_HAL_bsp/\libhal_bsp.a(alt_close.o)
 .comment       0x0000000000000023       0x24 ../media_computer_HAL_bsp/\libhal_bsp.a(alt_dcache_flush.o)
 .comment       0x0000000000000023       0x24 ../media_computer_HAL_bsp/\libhal_bsp.a(alt_dcache_flush_all.o)
 .comment       0x0000000000000023       0x24 ../media_computer_HAL_bsp/\libhal_bsp.a(alt_dev.o)
 .comment       0x0000000000000023       0x24 ../media_computer_HAL_bsp/\libhal_bsp.a(alt_dev_llist_insert.o)
 .comment       0x0000000000000023       0x24 ../media_computer_HAL_bsp/\libhal_bsp.a(alt_do_ctors.o)
 .comment       0x0000000000000023       0x24 ../media_computer_HAL_bsp/\libhal_bsp.a(alt_do_dtors.o)
 .comment       0x0000000000000023       0x24 ../media_computer_HAL_bsp/\libhal_bsp.a(alt_errno.o)
 .comment       0x0000000000000023       0x24 ../media_computer_HAL_bsp/\libhal_bsp.a(alt_find_dev.o)
 .comment       0x0000000000000023       0x24 ../media_computer_HAL_bsp/\libhal_bsp.a(alt_flash_dev.o)
 .comment       0x0000000000000023       0x24 ../media_computer_HAL_bsp/\libhal_bsp.a(alt_icache_flush_all.o)
 .comment       0x0000000000000023       0x24 ../media_computer_HAL_bsp/\libhal_bsp.a(alt_io_redirect.o)
 .comment       0x0000000000000023       0x24 ../media_computer_HAL_bsp/\libhal_bsp.a(alt_irq_register.o)
 .comment       0x0000000000000023       0x24 ../media_computer_HAL_bsp/\libhal_bsp.a(alt_irq_vars.o)
 .comment       0x0000000000000023       0x24 ../media_computer_HAL_bsp/\libhal_bsp.a(alt_open.o)
 .comment       0x0000000000000023       0x24 ../media_computer_HAL_bsp/\libhal_bsp.a(alt_release_fd.o)
 .comment       0x0000000000000023       0x24 ../media_computer_HAL_bsp/\libhal_bsp.a(alt_tick.o)
 .comment       0x0000000000000023       0x24 ../media_computer_HAL_bsp/\libhal_bsp.a(altera_nios2_gen2_irq.o)
 .comment       0x0000000000000023       0x24 ../media_computer_HAL_bsp/\libhal_bsp.a(altera_avalon_cfi_flash_amd.o)
 .comment       0x0000000000000023       0x24 ../media_computer_HAL_bsp/\libhal_bsp.a(altera_avalon_cfi_flash_intel.o)
 .comment       0x0000000000000023       0x24 ../media_computer_HAL_bsp/\libhal_bsp.a(alt_find_file.o)
 .comment       0x0000000000000023       0x24 ../media_computer_HAL_bsp/\libhal_bsp.a(alt_get_fd.o)
 .comment       0x0000000000000023       0x24 ../media_computer_HAL_bsp/\libhal_bsp.a(alt_icache_flush.o)
 .comment       0x0000000000000023       0x24 ../media_computer_HAL_bsp/\libhal_bsp.a(alt_irq_handler.o)
 .comment       0x0000000000000023       0x24 ../media_computer_HAL_bsp/\libhal_bsp.a(alt_usleep.o)
 .comment       0x0000000000000023       0x24 ../media_computer_HAL_bsp/\libhal_bsp.a(alt_busy_sleep.o)
 .comment       0x0000000000000023       0x24 ../media_computer_HAL_bsp/\libhal_bsp.a(alt_instruction_exception_entry.o)
 .comment       0x0000000000000023       0x24 c:/intelfpga/17.1/nios2eds/bin/gnu/h-x86_64-mingw32/bin/../lib/gcc/nios2-elf/5.3.0/../../../../../H-x86_64-mingw32/nios2-elf/lib\libc.a(lib_a-atexit.o)
 .comment       0x0000000000000023       0x24 c:/intelfpga/17.1/nios2eds/bin/gnu/h-x86_64-mingw32/bin/../lib/gcc/nios2-elf/5.3.0/../../../../../H-x86_64-mingw32/nios2-elf/lib\libc.a(lib_a-exit.o)
 .comment       0x0000000000000023       0x24 c:/intelfpga/17.1/nios2eds/bin/gnu/h-x86_64-mingw32/bin/../lib/gcc/nios2-elf/5.3.0/../../../../../H-x86_64-mingw32/nios2-elf/lib\libc.a(lib_a-impure.o)
 .comment       0x0000000000000023       0x24 c:/intelfpga/17.1/nios2eds/bin/gnu/h-x86_64-mingw32/bin/../lib/gcc/nios2-elf/5.3.0/../../../../../H-x86_64-mingw32/nios2-elf/lib\libc.a(lib_a-int_errno.o)
 .comment       0x0000000000000023       0x24 c:/intelfpga/17.1/nios2eds/bin/gnu/h-x86_64-mingw32/bin/../lib/gcc/nios2-elf/5.3.0/../../../../../H-x86_64-mingw32/nios2-elf/lib\libc.a(lib_a-memcmp.o)
 .comment       0x0000000000000023       0x24 c:/intelfpga/17.1/nios2eds/bin/gnu/h-x86_64-mingw32/bin/../lib/gcc/nios2-elf/5.3.0/../../../../../H-x86_64-mingw32/nios2-elf/lib\libc.a(lib_a-putc.o)
 .comment       0x0000000000000023       0x24 c:/intelfpga/17.1/nios2eds/bin/gnu/h-x86_64-mingw32/bin/../lib/gcc/nios2-elf/5.3.0/../../../../../H-x86_64-mingw32/nios2-elf/lib\libc.a(lib_a-strcmp.o)
 .comment       0x0000000000000023       0x24 c:/intelfpga/17.1/nios2eds/bin/gnu/h-x86_64-mingw32/bin/../lib/gcc/nios2-elf/5.3.0/../../../../../H-x86_64-mingw32/nios2-elf/lib\libc.a(lib_a-strlen.o)
 .comment       0x0000000000000023       0x24 c:/intelfpga/17.1/nios2eds/bin/gnu/h-x86_64-mingw32/bin/../lib/gcc/nios2-elf/5.3.0/../../../../../H-x86_64-mingw32/nios2-elf/lib\libc.a(lib_a-wbuf.o)
 .comment       0x0000000000000023       0x24 c:/intelfpga/17.1/nios2eds/bin/gnu/h-x86_64-mingw32/bin/../lib/gcc/nios2-elf/5.3.0/../../../../../H-x86_64-mingw32/nios2-elf/lib\libc.a(lib_a-wsetup.o)
 .comment       0x0000000000000023       0x24 c:/intelfpga/17.1/nios2eds/bin/gnu/h-x86_64-mingw32/bin/../lib/gcc/nios2-elf/5.3.0/../../../../../H-x86_64-mingw32/nios2-elf/lib\libc.a(lib_a-__atexit.o)
 .comment       0x0000000000000023       0x24 c:/intelfpga/17.1/nios2eds/bin/gnu/h-x86_64-mingw32/bin/../lib/gcc/nios2-elf/5.3.0/../../../../../H-x86_64-mingw32/nios2-elf/lib\libc.a(lib_a-__call_atexit.o)
 .comment       0x0000000000000023       0x24 c:/intelfpga/17.1/nios2eds/bin/gnu/h-x86_64-mingw32/bin/../lib/gcc/nios2-elf/5.3.0/../../../../../H-x86_64-mingw32/nios2-elf/lib\libc.a(lib_a-fflush.o)
 .comment       0x0000000000000023       0x24 c:/intelfpga/17.1/nios2eds/bin/gnu/h-x86_64-mingw32/bin/../lib/gcc/nios2-elf/5.3.0/../../../../../H-x86_64-mingw32/nios2-elf/lib\libc.a(lib_a-findfp.o)
 .comment       0x0000000000000023       0x24 c:/intelfpga/17.1/nios2eds/bin/gnu/h-x86_64-mingw32/bin/../lib/gcc/nios2-elf/5.3.0/../../../../../H-x86_64-mingw32/nios2-elf/lib\libc.a(lib_a-freer.o)
 .comment       0x0000000000000023       0x24 c:/intelfpga/17.1/nios2eds/bin/gnu/h-x86_64-mingw32/bin/../lib/gcc/nios2-elf/5.3.0/../../../../../H-x86_64-mingw32/nios2-elf/lib\libc.a(lib_a-fwalk.o)
 .comment       0x0000000000000023       0x24 c:/intelfpga/17.1/nios2eds/bin/gnu/h-x86_64-mingw32/bin/../lib/gcc/nios2-elf/5.3.0/../../../../../H-x86_64-mingw32/nios2-elf/lib\libc.a(lib_a-makebuf.o)
 .comment       0x0000000000000023       0x24 c:/intelfpga/17.1/nios2eds/bin/gnu/h-x86_64-mingw32/bin/../lib/gcc/nios2-elf/5.3.0/../../../../../H-x86_64-mingw32/nios2-elf/lib\libc.a(lib_a-mallocr.o)
 .comment       0x0000000000000023       0x24 c:/intelfpga/17.1/nios2eds/bin/gnu/h-x86_64-mingw32/bin/../lib/gcc/nios2-elf/5.3.0/../../../../../H-x86_64-mingw32/nios2-elf/lib\libc.a(lib_a-memset.o)
 .comment       0x0000000000000023       0x24 c:/intelfpga/17.1/nios2eds/bin/gnu/h-x86_64-mingw32/bin/../lib/gcc/nios2-elf/5.3.0/../../../../../H-x86_64-mingw32/nios2-elf/lib\libc.a(lib_a-sbrkr.o)
 .comment       0x0000000000000023       0x24 c:/intelfpga/17.1/nios2eds/bin/gnu/h-x86_64-mingw32/bin/../lib/gcc/nios2-elf/5.3.0/../../../../../H-x86_64-mingw32/nios2-elf/lib\libc.a(lib_a-stdio.o)
 .comment       0x0000000000000023       0x24 c:/intelfpga/17.1/nios2eds/bin/gnu/h-x86_64-mingw32/bin/../lib/gcc/nios2-elf/5.3.0/../../../../../H-x86_64-mingw32/nios2-elf/lib\libc.a(lib_a-writer.o)
 .comment       0x0000000000000023       0x24 c:/intelfpga/17.1/nios2eds/bin/gnu/h-x86_64-mingw32/bin/../lib/gcc/nios2-elf/5.3.0/../../../../../H-x86_64-mingw32/nios2-elf/lib\libc.a(closer.o)
 .comment       0x0000000000000023       0x24 c:/intelfpga/17.1/nios2eds/bin/gnu/h-x86_64-mingw32/bin/../lib/gcc/nios2-elf/5.3.0/../../../../../H-x86_64-mingw32/nios2-elf/lib\libc.a(lib_a-fclose.o)
 .comment       0x0000000000000023       0x24 c:/intelfpga/17.1/nios2eds/bin/gnu/h-x86_64-mingw32/bin/../lib/gcc/nios2-elf/5.3.0/../../../../../H-x86_64-mingw32/nios2-elf/lib\libc.a(lib_a-fstatr.o)
 .comment       0x0000000000000023       0x24 c:/intelfpga/17.1/nios2eds/bin/gnu/h-x86_64-mingw32/bin/../lib/gcc/nios2-elf/5.3.0/../../../../../H-x86_64-mingw32/nios2-elf/lib\libc.a(lib_a-isattyr.o)
 .comment       0x0000000000000023       0x24 c:/intelfpga/17.1/nios2eds/bin/gnu/h-x86_64-mingw32/bin/../lib/gcc/nios2-elf/5.3.0/../../../../../H-x86_64-mingw32/nios2-elf/lib\libc.a(lib_a-lseekr.o)
 .comment       0x0000000000000023       0x24 c:/intelfpga/17.1/nios2eds/bin/gnu/h-x86_64-mingw32/bin/../lib/gcc/nios2-elf/5.3.0/../../../../../H-x86_64-mingw32/nios2-elf/lib\libc.a(lib_a-readr.o)
 .comment       0x0000000000000023       0x24 c:/intelfpga/17.1/nios2eds/bin/gnu/h-x86_64-mingw32/bin/../lib/gcc/nios2-elf/5.3.0\libgcc.a(lib2-divmod.o)
 .comment       0x0000000000000023       0x24 ../media_computer_HAL_bsp/\libhal_bsp.a(alt_exit.o)
 .comment       0x0000000000000023       0x24 ../media_computer_HAL_bsp/\libhal_bsp.a(alt_fstat.o)
 .comment       0x0000000000000023       0x24 ../media_computer_HAL_bsp/\libhal_bsp.a(alt_isatty.o)
 .comment       0x0000000000000023       0x24 ../media_computer_HAL_bsp/\libhal_bsp.a(alt_lseek.o)
 .comment       0x0000000000000023       0x24 ../media_computer_HAL_bsp/\libhal_bsp.a(alt_malloc_lock.o)
 .comment       0x0000000000000023       0x24 ../media_computer_HAL_bsp/\libhal_bsp.a(alt_read.o)
 .comment       0x0000000000000023       0x24 ../media_computer_HAL_bsp/\libhal_bsp.a(alt_sbrk.o)
 .comment       0x0000000000000023       0x24 ../media_computer_HAL_bsp/\libhal_bsp.a(alt_write.o)

.debug
 *(.debug)

.line
 *(.line)

.debug_srcinfo
 *(.debug_srcinfo)

.debug_sfnames
 *(.debug_sfnames)

.debug_aranges  0x0000000000000000      0xbb8
 *(.debug_aranges)
 .debug_aranges
                0x0000000000000000       0x28 ../media_computer_HAL_bsp//obj/HAL/src/crt0.o
 .debug_aranges
                0x0000000000000028       0x20 obj/default/media_graphics_HAL.o
 .debug_aranges
                0x0000000000000048       0x20 c:/intelfpga/17.1/nios2eds/bin/gnu/h-x86_64-mingw32/bin/../lib/gcc/nios2-elf/5.3.0/../../../../../H-x86_64-mingw32/nios2-elf/lib\libc.a(lib_a-memcpy.o)
 .debug_aranges
                0x0000000000000068       0x20 ../media_computer_HAL_bsp/\libhal_bsp.a(alt_load.o)
 .debug_aranges
                0x0000000000000088       0x20 ../media_computer_HAL_bsp/\libhal_bsp.a(alt_main.o)
 .debug_aranges
                0x00000000000000a8       0x20 ../media_computer_HAL_bsp/\libhal_bsp.a(alt_printf.o)
 .debug_aranges
                0x00000000000000c8       0x20 ../media_computer_HAL_bsp/\libhal_bsp.a(alt_putchar.o)
 .debug_aranges
                0x00000000000000e8       0x20 ../media_computer_HAL_bsp/\libhal_bsp.a(alt_sys_init.o)
 .debug_aranges
                0x0000000000000108       0x20 ../media_computer_HAL_bsp/\libhal_bsp.a(altera_avalon_cfi_flash.o)
 .debug_aranges
                0x0000000000000128       0x20 ../media_computer_HAL_bsp/\libhal_bsp.a(altera_avalon_cfi_flash_table.o)
 .debug_aranges
                0x0000000000000148       0x20 ../media_computer_HAL_bsp/\libhal_bsp.a(altera_avalon_jtag_uart_fd.o)
 .debug_aranges
                0x0000000000000168       0x20 ../media_computer_HAL_bsp/\libhal_bsp.a(altera_avalon_jtag_uart_init.o)
 .debug_aranges
                0x0000000000000188       0x20 ../media_computer_HAL_bsp/\libhal_bsp.a(altera_avalon_jtag_uart_ioctl.o)
 .debug_aranges
                0x00000000000001a8       0x20 ../media_computer_HAL_bsp/\libhal_bsp.a(altera_avalon_jtag_uart_read.o)
 .debug_aranges
                0x00000000000001c8       0x20 ../media_computer_HAL_bsp/\libhal_bsp.a(altera_avalon_jtag_uart_write.o)
 .debug_aranges
                0x00000000000001e8       0x20 ../media_computer_HAL_bsp/\libhal_bsp.a(altera_avalon_timer_sc.o)
 .debug_aranges
                0x0000000000000208       0x20 ../media_computer_HAL_bsp/\libhal_bsp.a(altera_up_avalon_character_lcd.o)
 .debug_aranges
                0x0000000000000228       0x20 ../media_computer_HAL_bsp/\libhal_bsp.a(altera_up_avalon_ps2.o)
 .debug_aranges
                0x0000000000000248       0x20 ../media_computer_HAL_bsp/\libhal_bsp.a(altera_up_avalon_rs232.o)
 .debug_aranges
                0x0000000000000268       0x20 ../media_computer_HAL_bsp/\libhal_bsp.a(altera_up_avalon_video_character_buffer_with_dma.o)
 .debug_aranges
                0x0000000000000288       0x20 ../media_computer_HAL_bsp/\libhal_bsp.a(altera_up_avalon_video_pixel_buffer_dma.o)
 .debug_aranges
                0x00000000000002a8       0x20 ../media_computer_HAL_bsp/\libhal_bsp.a(alt_alarm_start.o)
 .debug_aranges
                0x00000000000002c8       0x20 ../media_computer_HAL_bsp/\libhal_bsp.a(alt_close.o)
 .debug_aranges
                0x00000000000002e8       0x20 ../media_computer_HAL_bsp/\libhal_bsp.a(alt_dcache_flush.o)
 .debug_aranges
                0x0000000000000308       0x20 ../media_computer_HAL_bsp/\libhal_bsp.a(alt_dcache_flush_all.o)
 .debug_aranges
                0x0000000000000328       0x20 ../media_computer_HAL_bsp/\libhal_bsp.a(alt_dev.o)
 .debug_aranges
                0x0000000000000348       0x20 ../media_computer_HAL_bsp/\libhal_bsp.a(alt_dev_llist_insert.o)
 .debug_aranges
                0x0000000000000368       0x20 ../media_computer_HAL_bsp/\libhal_bsp.a(alt_do_ctors.o)
 .debug_aranges
                0x0000000000000388       0x20 ../media_computer_HAL_bsp/\libhal_bsp.a(alt_do_dtors.o)
 .debug_aranges
                0x00000000000003a8       0x18 ../media_computer_HAL_bsp/\libhal_bsp.a(alt_errno.o)
 .debug_aranges
                0x00000000000003c0       0x20 ../media_computer_HAL_bsp/\libhal_bsp.a(alt_find_dev.o)
 .debug_aranges
                0x00000000000003e0       0x20 ../media_computer_HAL_bsp/\libhal_bsp.a(alt_flash_dev.o)
 .debug_aranges
                0x0000000000000400       0x20 ../media_computer_HAL_bsp/\libhal_bsp.a(alt_icache_flush_all.o)
 .debug_aranges
                0x0000000000000420       0x20 ../media_computer_HAL_bsp/\libhal_bsp.a(alt_io_redirect.o)
 .debug_aranges
                0x0000000000000440       0x20 ../media_computer_HAL_bsp/\libhal_bsp.a(alt_irq_register.o)
 .debug_aranges
                0x0000000000000460       0x18 ../media_computer_HAL_bsp/\libhal_bsp.a(alt_irq_vars.o)
 .debug_aranges
                0x0000000000000478       0x20 ../media_computer_HAL_bsp/\libhal_bsp.a(alt_open.o)
 .debug_aranges
                0x0000000000000498       0x20 ../media_computer_HAL_bsp/\libhal_bsp.a(alt_release_fd.o)
 .debug_aranges
                0x00000000000004b8       0x20 ../media_computer_HAL_bsp/\libhal_bsp.a(alt_tick.o)
 .debug_aranges
                0x00000000000004d8       0x20 ../media_computer_HAL_bsp/\libhal_bsp.a(altera_nios2_gen2_irq.o)
 .debug_aranges
                0x00000000000004f8       0x20 ../media_computer_HAL_bsp/\libhal_bsp.a(altera_avalon_cfi_flash_amd.o)
 .debug_aranges
                0x0000000000000518       0x20 ../media_computer_HAL_bsp/\libhal_bsp.a(altera_avalon_cfi_flash_intel.o)
 .debug_aranges
                0x0000000000000538       0x20 ../media_computer_HAL_bsp/\libhal_bsp.a(alt_find_file.o)
 .debug_aranges
                0x0000000000000558       0x20 ../media_computer_HAL_bsp/\libhal_bsp.a(alt_get_fd.o)
 .debug_aranges
                0x0000000000000578       0x20 ../media_computer_HAL_bsp/\libhal_bsp.a(alt_icache_flush.o)
 .debug_aranges
                0x0000000000000598       0x30 ../media_computer_HAL_bsp/\libhal_bsp.a(alt_irq_entry.o)
 .debug_aranges
                0x00000000000005c8       0x20 ../media_computer_HAL_bsp/\libhal_bsp.a(alt_irq_handler.o)
 .debug_aranges
                0x00000000000005e8       0x20 ../media_computer_HAL_bsp/\libhal_bsp.a(alt_usleep.o)
 .debug_aranges
                0x0000000000000608       0x20 ../media_computer_HAL_bsp/\libhal_bsp.a(alt_busy_sleep.o)
 .debug_aranges
                0x0000000000000628       0x38 ../media_computer_HAL_bsp/\libhal_bsp.a(alt_exception_entry.o)
 .debug_aranges
                0x0000000000000660       0x28 ../media_computer_HAL_bsp/\libhal_bsp.a(alt_instruction_exception_entry.o)
 .debug_aranges
                0x0000000000000688       0x20 c:/intelfpga/17.1/nios2eds/bin/gnu/h-x86_64-mingw32/bin/../lib/gcc/nios2-elf/5.3.0/../../../../../H-x86_64-mingw32/nios2-elf/lib\libc.a(lib_a-atexit.o)
 .debug_aranges
                0x00000000000006a8       0x20 c:/intelfpga/17.1/nios2eds/bin/gnu/h-x86_64-mingw32/bin/../lib/gcc/nios2-elf/5.3.0/../../../../../H-x86_64-mingw32/nios2-elf/lib\libc.a(lib_a-exit.o)
 .debug_aranges
                0x00000000000006c8       0x18 c:/intelfpga/17.1/nios2eds/bin/gnu/h-x86_64-mingw32/bin/../lib/gcc/nios2-elf/5.3.0/../../../../../H-x86_64-mingw32/nios2-elf/lib\libc.a(lib_a-impure.o)
 .debug_aranges
                0x00000000000006e0       0x18 c:/intelfpga/17.1/nios2eds/bin/gnu/h-x86_64-mingw32/bin/../lib/gcc/nios2-elf/5.3.0/../../../../../H-x86_64-mingw32/nios2-elf/lib\libc.a(lib_a-int_errno.o)
 .debug_aranges
                0x00000000000006f8       0x20 c:/intelfpga/17.1/nios2eds/bin/gnu/h-x86_64-mingw32/bin/../lib/gcc/nios2-elf/5.3.0/../../../../../H-x86_64-mingw32/nios2-elf/lib\libc.a(lib_a-memcmp.o)
 .debug_aranges
                0x0000000000000718       0x28 c:/intelfpga/17.1/nios2eds/bin/gnu/h-x86_64-mingw32/bin/../lib/gcc/nios2-elf/5.3.0/../../../../../H-x86_64-mingw32/nios2-elf/lib\libc.a(lib_a-putc.o)
 .debug_aranges
                0x0000000000000740       0x20 c:/intelfpga/17.1/nios2eds/bin/gnu/h-x86_64-mingw32/bin/../lib/gcc/nios2-elf/5.3.0/../../../../../H-x86_64-mingw32/nios2-elf/lib\libc.a(lib_a-strcmp.o)
 .debug_aranges
                0x0000000000000760       0x20 c:/intelfpga/17.1/nios2eds/bin/gnu/h-x86_64-mingw32/bin/../lib/gcc/nios2-elf/5.3.0/../../../../../H-x86_64-mingw32/nios2-elf/lib\libc.a(lib_a-strlen.o)
 .debug_aranges
                0x0000000000000780       0x28 c:/intelfpga/17.1/nios2eds/bin/gnu/h-x86_64-mingw32/bin/../lib/gcc/nios2-elf/5.3.0/../../../../../H-x86_64-mingw32/nios2-elf/lib\libc.a(lib_a-wbuf.o)
 .debug_aranges
                0x00000000000007a8       0x20 c:/intelfpga/17.1/nios2eds/bin/gnu/h-x86_64-mingw32/bin/../lib/gcc/nios2-elf/5.3.0/../../../../../H-x86_64-mingw32/nios2-elf/lib\libc.a(lib_a-wsetup.o)
 .debug_aranges
                0x00000000000007c8       0x20 c:/intelfpga/17.1/nios2eds/bin/gnu/h-x86_64-mingw32/bin/../lib/gcc/nios2-elf/5.3.0/../../../../../H-x86_64-mingw32/nios2-elf/lib\libc.a(lib_a-__atexit.o)
 .debug_aranges
                0x00000000000007e8       0x20 c:/intelfpga/17.1/nios2eds/bin/gnu/h-x86_64-mingw32/bin/../lib/gcc/nios2-elf/5.3.0/../../../../../H-x86_64-mingw32/nios2-elf/lib\libc.a(lib_a-__call_atexit.o)
 .debug_aranges
                0x0000000000000808       0x30 c:/intelfpga/17.1/nios2eds/bin/gnu/h-x86_64-mingw32/bin/../lib/gcc/nios2-elf/5.3.0/../../../../../H-x86_64-mingw32/nios2-elf/lib\libc.a(lib_a-fflush.o)
 .debug_aranges
                0x0000000000000838       0x68 c:/intelfpga/17.1/nios2eds/bin/gnu/h-x86_64-mingw32/bin/../lib/gcc/nios2-elf/5.3.0/../../../../../H-x86_64-mingw32/nios2-elf/lib\libc.a(lib_a-findfp.o)
 .debug_aranges
                0x00000000000008a0       0x28 c:/intelfpga/17.1/nios2eds/bin/gnu/h-x86_64-mingw32/bin/../lib/gcc/nios2-elf/5.3.0/../../../../../H-x86_64-mingw32/nios2-elf/lib\libc.a(lib_a-freer.o)
 .debug_aranges
                0x00000000000008c8       0x28 c:/intelfpga/17.1/nios2eds/bin/gnu/h-x86_64-mingw32/bin/../lib/gcc/nios2-elf/5.3.0/../../../../../H-x86_64-mingw32/nios2-elf/lib\libc.a(lib_a-fwalk.o)
 .debug_aranges
                0x00000000000008f0       0x20 c:/intelfpga/17.1/nios2eds/bin/gnu/h-x86_64-mingw32/bin/../lib/gcc/nios2-elf/5.3.0/../../../../../H-x86_64-mingw32/nios2-elf/lib\libc.a(lib_a-makebuf.o)
 .debug_aranges
                0x0000000000000910       0x20 c:/intelfpga/17.1/nios2eds/bin/gnu/h-x86_64-mingw32/bin/../lib/gcc/nios2-elf/5.3.0/../../../../../H-x86_64-mingw32/nios2-elf/lib\libc.a(lib_a-mallocr.o)
 .debug_aranges
                0x0000000000000930       0x20 c:/intelfpga/17.1/nios2eds/bin/gnu/h-x86_64-mingw32/bin/../lib/gcc/nios2-elf/5.3.0/../../../../../H-x86_64-mingw32/nios2-elf/lib\libc.a(lib_a-memset.o)
 .debug_aranges
                0x0000000000000950       0x20 c:/intelfpga/17.1/nios2eds/bin/gnu/h-x86_64-mingw32/bin/../lib/gcc/nios2-elf/5.3.0/../../../../../H-x86_64-mingw32/nios2-elf/lib\libc.a(lib_a-sbrkr.o)
 .debug_aranges
                0x0000000000000970       0x40 c:/intelfpga/17.1/nios2eds/bin/gnu/h-x86_64-mingw32/bin/../lib/gcc/nios2-elf/5.3.0/../../../../../H-x86_64-mingw32/nios2-elf/lib\libc.a(lib_a-stdio.o)
 .debug_aranges
                0x00000000000009b0       0x20 c:/intelfpga/17.1/nios2eds/bin/gnu/h-x86_64-mingw32/bin/../lib/gcc/nios2-elf/5.3.0/../../../../../H-x86_64-mingw32/nios2-elf/lib\libc.a(lib_a-writer.o)
 .debug_aranges
                0x00000000000009d0       0x20 c:/intelfpga/17.1/nios2eds/bin/gnu/h-x86_64-mingw32/bin/../lib/gcc/nios2-elf/5.3.0/../../../../../H-x86_64-mingw32/nios2-elf/lib\libc.a(closer.o)
 .debug_aranges
                0x00000000000009f0       0x28 c:/intelfpga/17.1/nios2eds/bin/gnu/h-x86_64-mingw32/bin/../lib/gcc/nios2-elf/5.3.0/../../../../../H-x86_64-mingw32/nios2-elf/lib\libc.a(lib_a-fclose.o)
 .debug_aranges
                0x0000000000000a18       0x20 c:/intelfpga/17.1/nios2eds/bin/gnu/h-x86_64-mingw32/bin/../lib/gcc/nios2-elf/5.3.0/../../../../../H-x86_64-mingw32/nios2-elf/lib\libc.a(lib_a-fstatr.o)
 .debug_aranges
                0x0000000000000a38       0x20 c:/intelfpga/17.1/nios2eds/bin/gnu/h-x86_64-mingw32/bin/../lib/gcc/nios2-elf/5.3.0/../../../../../H-x86_64-mingw32/nios2-elf/lib\libc.a(lib_a-isattyr.o)
 .debug_aranges
                0x0000000000000a58       0x20 c:/intelfpga/17.1/nios2eds/bin/gnu/h-x86_64-mingw32/bin/../lib/gcc/nios2-elf/5.3.0/../../../../../H-x86_64-mingw32/nios2-elf/lib\libc.a(lib_a-lseekr.o)
 .debug_aranges
                0x0000000000000a78       0x20 c:/intelfpga/17.1/nios2eds/bin/gnu/h-x86_64-mingw32/bin/../lib/gcc/nios2-elf/5.3.0/../../../../../H-x86_64-mingw32/nios2-elf/lib\libc.a(lib_a-readr.o)
 .debug_aranges
                0x0000000000000a98       0x20 c:/intelfpga/17.1/nios2eds/bin/gnu/h-x86_64-mingw32/bin/../lib/gcc/nios2-elf/5.3.0\libgcc.a(lib2-divmod.o)
 .debug_aranges
                0x0000000000000ab8       0x20 ../media_computer_HAL_bsp/\libhal_bsp.a(alt_exit.o)
 .debug_aranges
                0x0000000000000ad8       0x20 ../media_computer_HAL_bsp/\libhal_bsp.a(alt_fstat.o)
 .debug_aranges
                0x0000000000000af8       0x20 ../media_computer_HAL_bsp/\libhal_bsp.a(alt_isatty.o)
 .debug_aranges
                0x0000000000000b18       0x20 ../media_computer_HAL_bsp/\libhal_bsp.a(alt_lseek.o)
 .debug_aranges
                0x0000000000000b38       0x20 ../media_computer_HAL_bsp/\libhal_bsp.a(alt_malloc_lock.o)
 .debug_aranges
                0x0000000000000b58       0x20 ../media_computer_HAL_bsp/\libhal_bsp.a(alt_read.o)
 .debug_aranges
                0x0000000000000b78       0x20 ../media_computer_HAL_bsp/\libhal_bsp.a(alt_sbrk.o)
 .debug_aranges
                0x0000000000000b98       0x20 ../media_computer_HAL_bsp/\libhal_bsp.a(alt_write.o)

.debug_pubnames
 *(.debug_pubnames)

.debug_info     0x0000000000000000    0x1b24f
 *(.debug_info .gnu.linkonce.wi.*)
 .debug_info    0x0000000000000000       0x99 ../media_computer_HAL_bsp//obj/HAL/src/crt0.o
 .debug_info    0x0000000000000099      0x692 obj/default/media_graphics_HAL.o
 .debug_info    0x000000000000072b      0x144 c:/intelfpga/17.1/nios2eds/bin/gnu/h-x86_64-mingw32/bin/../lib/gcc/nios2-elf/5.3.0/../../../../../H-x86_64-mingw32/nios2-elf/lib\libc.a(lib_a-memcpy.o)
 .debug_info    0x000000000000086f      0x145 ../media_computer_HAL_bsp/\libhal_bsp.a(alt_load.o)
 .debug_info    0x00000000000009b4      0x157 ../media_computer_HAL_bsp/\libhal_bsp.a(alt_main.o)
 .debug_info    0x0000000000000b0b      0x119 ../media_computer_HAL_bsp/\libhal_bsp.a(alt_printf.o)
 .debug_info    0x0000000000000c24      0x8a6 ../media_computer_HAL_bsp/\libhal_bsp.a(alt_putchar.o)
 .debug_info    0x00000000000014ca      0xcdc ../media_computer_HAL_bsp/\libhal_bsp.a(alt_sys_init.o)
 .debug_info    0x00000000000021a6      0x812 ../media_computer_HAL_bsp/\libhal_bsp.a(altera_avalon_cfi_flash.o)
 .debug_info    0x00000000000029b8      0x975 ../media_computer_HAL_bsp/\libhal_bsp.a(altera_avalon_cfi_flash_table.o)
 .debug_info    0x000000000000332d      0x52e ../media_computer_HAL_bsp/\libhal_bsp.a(altera_avalon_jtag_uart_fd.o)
 .debug_info    0x000000000000385b      0x3c3 ../media_computer_HAL_bsp/\libhal_bsp.a(altera_avalon_jtag_uart_init.o)
 .debug_info    0x0000000000003c1e      0x280 ../media_computer_HAL_bsp/\libhal_bsp.a(altera_avalon_jtag_uart_ioctl.o)
 .debug_info    0x0000000000003e9e      0x35b ../media_computer_HAL_bsp/\libhal_bsp.a(altera_avalon_jtag_uart_read.o)
 .debug_info    0x00000000000041f9      0x356 ../media_computer_HAL_bsp/\libhal_bsp.a(altera_avalon_jtag_uart_write.o)
 .debug_info    0x000000000000454f      0x249 ../media_computer_HAL_bsp/\libhal_bsp.a(altera_avalon_timer_sc.o)
 .debug_info    0x0000000000004798      0x601 ../media_computer_HAL_bsp/\libhal_bsp.a(altera_up_avalon_character_lcd.o)
 .debug_info    0x0000000000004d99      0x7d4 ../media_computer_HAL_bsp/\libhal_bsp.a(altera_up_avalon_ps2.o)
 .debug_info    0x000000000000556d      0x568 ../media_computer_HAL_bsp/\libhal_bsp.a(altera_up_avalon_rs232.o)
 .debug_info    0x0000000000005ad5      0x468 ../media_computer_HAL_bsp/\libhal_bsp.a(altera_up_avalon_video_character_buffer_with_dma.o)
 .debug_info    0x0000000000005f3d      0xaa3 ../media_computer_HAL_bsp/\libhal_bsp.a(altera_up_avalon_video_pixel_buffer_dma.o)
 .debug_info    0x00000000000069e0      0x2e2 ../media_computer_HAL_bsp/\libhal_bsp.a(alt_alarm_start.o)
 .debug_info    0x0000000000006cc2      0x321 ../media_computer_HAL_bsp/\libhal_bsp.a(alt_close.o)
 .debug_info    0x0000000000006fe3       0xdc ../media_computer_HAL_bsp/\libhal_bsp.a(alt_dcache_flush.o)
 .debug_info    0x00000000000070bf       0xa5 ../media_computer_HAL_bsp/\libhal_bsp.a(alt_dcache_flush_all.o)
 .debug_info    0x0000000000007164      0x49c ../media_computer_HAL_bsp/\libhal_bsp.a(alt_dev.o)
 .debug_info    0x0000000000007600      0x1a9 ../media_computer_HAL_bsp/\libhal_bsp.a(alt_dev_llist_insert.o)
 .debug_info    0x00000000000077a9       0x83 ../media_computer_HAL_bsp/\libhal_bsp.a(alt_do_ctors.o)
 .debug_info    0x000000000000782c       0x83 ../media_computer_HAL_bsp/\libhal_bsp.a(alt_do_dtors.o)
 .debug_info    0x00000000000078af       0xa6 ../media_computer_HAL_bsp/\libhal_bsp.a(alt_errno.o)
 .debug_info    0x0000000000007955      0x2e9 ../media_computer_HAL_bsp/\libhal_bsp.a(alt_find_dev.o)
 .debug_info    0x0000000000007c3e      0x3d7 ../media_computer_HAL_bsp/\libhal_bsp.a(alt_flash_dev.o)
 .debug_info    0x0000000000008015       0x92 ../media_computer_HAL_bsp/\libhal_bsp.a(alt_icache_flush_all.o)
 .debug_info    0x00000000000080a7      0x4a5 ../media_computer_HAL_bsp/\libhal_bsp.a(alt_io_redirect.o)
 .debug_info    0x000000000000854c      0x329 ../media_computer_HAL_bsp/\libhal_bsp.a(alt_irq_register.o)
 .debug_info    0x0000000000008875       0x88 ../media_computer_HAL_bsp/\libhal_bsp.a(alt_irq_vars.o)
 .debug_info    0x00000000000088fd      0x3bb ../media_computer_HAL_bsp/\libhal_bsp.a(alt_open.o)
 .debug_info    0x0000000000008cb8      0x2b0 ../media_computer_HAL_bsp/\libhal_bsp.a(alt_release_fd.o)
 .debug_info    0x0000000000008f68      0x2af ../media_computer_HAL_bsp/\libhal_bsp.a(alt_tick.o)
 .debug_info    0x0000000000009217       0xb8 ../media_computer_HAL_bsp/\libhal_bsp.a(altera_nios2_gen2_irq.o)
 .debug_info    0x00000000000092cf      0x636 ../media_computer_HAL_bsp/\libhal_bsp.a(altera_avalon_cfi_flash_amd.o)
 .debug_info    0x0000000000009905      0x636 ../media_computer_HAL_bsp/\libhal_bsp.a(altera_avalon_cfi_flash_intel.o)
 .debug_info    0x0000000000009f3b      0x2e6 ../media_computer_HAL_bsp/\libhal_bsp.a(alt_find_file.o)
 .debug_info    0x000000000000a221      0x310 ../media_computer_HAL_bsp/\libhal_bsp.a(alt_get_fd.o)
 .debug_info    0x000000000000a531       0xdc ../media_computer_HAL_bsp/\libhal_bsp.a(alt_icache_flush.o)
 .debug_info    0x000000000000a60d       0xa2 ../media_computer_HAL_bsp/\libhal_bsp.a(alt_irq_entry.o)
 .debug_info    0x000000000000a6af      0x1a7 ../media_computer_HAL_bsp/\libhal_bsp.a(alt_irq_handler.o)
 .debug_info    0x000000000000a856       0xb0 ../media_computer_HAL_bsp/\libhal_bsp.a(alt_usleep.o)
 .debug_info    0x000000000000a906       0xd7 ../media_computer_HAL_bsp/\libhal_bsp.a(alt_busy_sleep.o)
 .debug_info    0x000000000000a9dd       0xa8 ../media_computer_HAL_bsp/\libhal_bsp.a(alt_exception_entry.o)
 .debug_info    0x000000000000aa85      0x1e7 ../media_computer_HAL_bsp/\libhal_bsp.a(alt_instruction_exception_entry.o)
 .debug_info    0x000000000000ac6c       0xfe c:/intelfpga/17.1/nios2eds/bin/gnu/h-x86_64-mingw32/bin/../lib/gcc/nios2-elf/5.3.0/../../../../../H-x86_64-mingw32/nios2-elf/lib\libc.a(lib_a-atexit.o)
 .debug_info    0x000000000000ad6a      0x8e4 c:/intelfpga/17.1/nios2eds/bin/gnu/h-x86_64-mingw32/bin/../lib/gcc/nios2-elf/5.3.0/../../../../../H-x86_64-mingw32/nios2-elf/lib\libc.a(lib_a-exit.o)
 .debug_info    0x000000000000b64e      0x8a1 c:/intelfpga/17.1/nios2eds/bin/gnu/h-x86_64-mingw32/bin/../lib/gcc/nios2-elf/5.3.0/../../../../../H-x86_64-mingw32/nios2-elf/lib\libc.a(lib_a-impure.o)
 .debug_info    0x000000000000beef       0x8a c:/intelfpga/17.1/nios2eds/bin/gnu/h-x86_64-mingw32/bin/../lib/gcc/nios2-elf/5.3.0/../../../../../H-x86_64-mingw32/nios2-elf/lib\libc.a(lib_a-int_errno.o)
 .debug_info    0x000000000000bf79      0x11a c:/intelfpga/17.1/nios2eds/bin/gnu/h-x86_64-mingw32/bin/../lib/gcc/nios2-elf/5.3.0/../../../../../H-x86_64-mingw32/nios2-elf/lib\libc.a(lib_a-memcmp.o)
 .debug_info    0x000000000000c093      0x9b4 c:/intelfpga/17.1/nios2eds/bin/gnu/h-x86_64-mingw32/bin/../lib/gcc/nios2-elf/5.3.0/../../../../../H-x86_64-mingw32/nios2-elf/lib\libc.a(lib_a-putc.o)
 .debug_info    0x000000000000ca47       0xe4 c:/intelfpga/17.1/nios2eds/bin/gnu/h-x86_64-mingw32/bin/../lib/gcc/nios2-elf/5.3.0/../../../../../H-x86_64-mingw32/nios2-elf/lib\libc.a(lib_a-strcmp.o)
 .debug_info    0x000000000000cb2b       0xe2 c:/intelfpga/17.1/nios2eds/bin/gnu/h-x86_64-mingw32/bin/../lib/gcc/nios2-elf/5.3.0/../../../../../H-x86_64-mingw32/nios2-elf/lib\libc.a(lib_a-strlen.o)
 .debug_info    0x000000000000cc0d      0x9be c:/intelfpga/17.1/nios2eds/bin/gnu/h-x86_64-mingw32/bin/../lib/gcc/nios2-elf/5.3.0/../../../../../H-x86_64-mingw32/nios2-elf/lib\libc.a(lib_a-wbuf.o)
 .debug_info    0x000000000000d5cb      0x936 c:/intelfpga/17.1/nios2eds/bin/gnu/h-x86_64-mingw32/bin/../lib/gcc/nios2-elf/5.3.0/../../../../../H-x86_64-mingw32/nios2-elf/lib\libc.a(lib_a-wsetup.o)
 .debug_info    0x000000000000df01      0x934 c:/intelfpga/17.1/nios2eds/bin/gnu/h-x86_64-mingw32/bin/../lib/gcc/nios2-elf/5.3.0/../../../../../H-x86_64-mingw32/nios2-elf/lib\libc.a(lib_a-__atexit.o)
 .debug_info    0x000000000000e835      0x965 c:/intelfpga/17.1/nios2eds/bin/gnu/h-x86_64-mingw32/bin/../lib/gcc/nios2-elf/5.3.0/../../../../../H-x86_64-mingw32/nios2-elf/lib\libc.a(lib_a-__call_atexit.o)
 .debug_info    0x000000000000f19a      0xa93 c:/intelfpga/17.1/nios2eds/bin/gnu/h-x86_64-mingw32/bin/../lib/gcc/nios2-elf/5.3.0/../../../../../H-x86_64-mingw32/nios2-elf/lib\libc.a(lib_a-fflush.o)
 .debug_info    0x000000000000fc2d      0xd37 c:/intelfpga/17.1/nios2eds/bin/gnu/h-x86_64-mingw32/bin/../lib/gcc/nios2-elf/5.3.0/../../../../../H-x86_64-mingw32/nios2-elf/lib\libc.a(lib_a-findfp.o)
 .debug_info    0x0000000000010964      0xbf7 c:/intelfpga/17.1/nios2eds/bin/gnu/h-x86_64-mingw32/bin/../lib/gcc/nios2-elf/5.3.0/../../../../../H-x86_64-mingw32/nios2-elf/lib\libc.a(lib_a-freer.o)
 .debug_info    0x000000000001155b      0x9b0 c:/intelfpga/17.1/nios2eds/bin/gnu/h-x86_64-mingw32/bin/../lib/gcc/nios2-elf/5.3.0/../../../../../H-x86_64-mingw32/nios2-elf/lib\libc.a(lib_a-fwalk.o)
 .debug_info    0x0000000000011f0b      0xad8 c:/intelfpga/17.1/nios2eds/bin/gnu/h-x86_64-mingw32/bin/../lib/gcc/nios2-elf/5.3.0/../../../../../H-x86_64-mingw32/nios2-elf/lib\libc.a(lib_a-makebuf.o)
 .debug_info    0x00000000000129e3      0xd57 c:/intelfpga/17.1/nios2eds/bin/gnu/h-x86_64-mingw32/bin/../lib/gcc/nios2-elf/5.3.0/../../../../../H-x86_64-mingw32/nios2-elf/lib\libc.a(lib_a-mallocr.o)
 .debug_info    0x000000000001373a      0x121 c:/intelfpga/17.1/nios2eds/bin/gnu/h-x86_64-mingw32/bin/../lib/gcc/nios2-elf/5.3.0/../../../../../H-x86_64-mingw32/nios2-elf/lib\libc.a(lib_a-memset.o)
 .debug_info    0x000000000001385b      0x900 c:/intelfpga/17.1/nios2eds/bin/gnu/h-x86_64-mingw32/bin/../lib/gcc/nios2-elf/5.3.0/../../../../../H-x86_64-mingw32/nios2-elf/lib\libc.a(lib_a-sbrkr.o)
 .debug_info    0x000000000001415b      0xb32 c:/intelfpga/17.1/nios2eds/bin/gnu/h-x86_64-mingw32/bin/../lib/gcc/nios2-elf/5.3.0/../../../../../H-x86_64-mingw32/nios2-elf/lib\libc.a(lib_a-stdio.o)
 .debug_info    0x0000000000014c8d      0x928 c:/intelfpga/17.1/nios2eds/bin/gnu/h-x86_64-mingw32/bin/../lib/gcc/nios2-elf/5.3.0/../../../../../H-x86_64-mingw32/nios2-elf/lib\libc.a(lib_a-writer.o)
 .debug_info    0x00000000000155b5      0x8df c:/intelfpga/17.1/nios2eds/bin/gnu/h-x86_64-mingw32/bin/../lib/gcc/nios2-elf/5.3.0/../../../../../H-x86_64-mingw32/nios2-elf/lib\libc.a(closer.o)
 .debug_info    0x0000000000015e94      0xa23 c:/intelfpga/17.1/nios2eds/bin/gnu/h-x86_64-mingw32/bin/../lib/gcc/nios2-elf/5.3.0/../../../../../H-x86_64-mingw32/nios2-elf/lib\libc.a(lib_a-fclose.o)
 .debug_info    0x00000000000168b7      0xa5d c:/intelfpga/17.1/nios2eds/bin/gnu/h-x86_64-mingw32/bin/../lib/gcc/nios2-elf/5.3.0/../../../../../H-x86_64-mingw32/nios2-elf/lib\libc.a(lib_a-fstatr.o)
 .debug_info    0x0000000000017314      0x8df c:/intelfpga/17.1/nios2eds/bin/gnu/h-x86_64-mingw32/bin/../lib/gcc/nios2-elf/5.3.0/../../../../../H-x86_64-mingw32/nios2-elf/lib\libc.a(lib_a-isattyr.o)
 .debug_info    0x0000000000017bf3      0x90b c:/intelfpga/17.1/nios2eds/bin/gnu/h-x86_64-mingw32/bin/../lib/gcc/nios2-elf/5.3.0/../../../../../H-x86_64-mingw32/nios2-elf/lib\libc.a(lib_a-lseekr.o)
 .debug_info    0x00000000000184fe      0x921 c:/intelfpga/17.1/nios2eds/bin/gnu/h-x86_64-mingw32/bin/../lib/gcc/nios2-elf/5.3.0/../../../../../H-x86_64-mingw32/nios2-elf/lib\libc.a(lib_a-readr.o)
 .debug_info    0x0000000000018e1f      0x2c6 c:/intelfpga/17.1/nios2eds/bin/gnu/h-x86_64-mingw32/bin/../lib/gcc/nios2-elf/5.3.0\libgcc.a(lib2-divmod.o)
 .debug_info    0x00000000000190e5      0x116 ../media_computer_HAL_bsp/\libhal_bsp.a(alt_exit.o)
 .debug_info    0x00000000000191fb      0x488 ../media_computer_HAL_bsp/\libhal_bsp.a(alt_fstat.o)
 .debug_info    0x0000000000019683      0x48b ../media_computer_HAL_bsp/\libhal_bsp.a(alt_isatty.o)
 .debug_info    0x0000000000019b0e      0x352 ../media_computer_HAL_bsp/\libhal_bsp.a(alt_lseek.o)
 .debug_info    0x0000000000019e60      0x8b6 ../media_computer_HAL_bsp/\libhal_bsp.a(alt_malloc_lock.o)
 .debug_info    0x000000000001a716      0x4b0 ../media_computer_HAL_bsp/\libhal_bsp.a(alt_read.o)
 .debug_info    0x000000000001abc6      0x1d2 ../media_computer_HAL_bsp/\libhal_bsp.a(alt_sbrk.o)
 .debug_info    0x000000000001ad98      0x4b7 ../media_computer_HAL_bsp/\libhal_bsp.a(alt_write.o)

.debug_abbrev   0x0000000000000000     0x6f4b
 *(.debug_abbrev)
 .debug_abbrev  0x0000000000000000       0x12 ../media_computer_HAL_bsp//obj/HAL/src/crt0.o
 .debug_abbrev  0x0000000000000012      0x16a obj/default/media_graphics_HAL.o
 .debug_abbrev  0x000000000000017c       0xa3 c:/intelfpga/17.1/nios2eds/bin/gnu/h-x86_64-mingw32/bin/../lib/gcc/nios2-elf/5.3.0/../../../../../H-x86_64-mingw32/nios2-elf/lib\libc.a(lib_a-memcpy.o)
 .debug_abbrev  0x000000000000021f       0x9f ../media_computer_HAL_bsp/\libhal_bsp.a(alt_load.o)
 .debug_abbrev  0x00000000000002be       0xc1 ../media_computer_HAL_bsp/\libhal_bsp.a(alt_main.o)
 .debug_abbrev  0x000000000000037f       0xb0 ../media_computer_HAL_bsp/\libhal_bsp.a(alt_printf.o)
 .debug_abbrev  0x000000000000042f      0x1af ../media_computer_HAL_bsp/\libhal_bsp.a(alt_putchar.o)
 .debug_abbrev  0x00000000000005de      0x1a2 ../media_computer_HAL_bsp/\libhal_bsp.a(alt_sys_init.o)
 .debug_abbrev  0x0000000000000780      0x1c9 ../media_computer_HAL_bsp/\libhal_bsp.a(altera_avalon_cfi_flash.o)
 .debug_abbrev  0x0000000000000949      0x175 ../media_computer_HAL_bsp/\libhal_bsp.a(altera_avalon_cfi_flash_table.o)
 .debug_abbrev  0x0000000000000abe      0x127 ../media_computer_HAL_bsp/\libhal_bsp.a(altera_avalon_jtag_uart_fd.o)
 .debug_abbrev  0x0000000000000be5      0x19e ../media_computer_HAL_bsp/\libhal_bsp.a(altera_avalon_jtag_uart_init.o)
 .debug_abbrev  0x0000000000000d83      0x111 ../media_computer_HAL_bsp/\libhal_bsp.a(altera_avalon_jtag_uart_ioctl.o)
 .debug_abbrev  0x0000000000000e94      0x1aa ../media_computer_HAL_bsp/\libhal_bsp.a(altera_avalon_jtag_uart_read.o)
 .debug_abbrev  0x000000000000103e      0x1a8 ../media_computer_HAL_bsp/\libhal_bsp.a(altera_avalon_jtag_uart_write.o)
 .debug_abbrev  0x00000000000011e6      0x155 ../media_computer_HAL_bsp/\libhal_bsp.a(altera_avalon_timer_sc.o)
 .debug_abbrev  0x000000000000133b      0x156 ../media_computer_HAL_bsp/\libhal_bsp.a(altera_up_avalon_character_lcd.o)
 .debug_abbrev  0x0000000000001491      0x1a1 ../media_computer_HAL_bsp/\libhal_bsp.a(altera_up_avalon_ps2.o)
 .debug_abbrev  0x0000000000001632      0x135 ../media_computer_HAL_bsp/\libhal_bsp.a(altera_up_avalon_rs232.o)
 .debug_abbrev  0x0000000000001767      0x135 ../media_computer_HAL_bsp/\libhal_bsp.a(altera_up_avalon_video_character_buffer_with_dma.o)
 .debug_abbrev  0x000000000000189c      0x1b9 ../media_computer_HAL_bsp/\libhal_bsp.a(altera_up_avalon_video_pixel_buffer_dma.o)
 .debug_abbrev  0x0000000000001a55      0x162 ../media_computer_HAL_bsp/\libhal_bsp.a(alt_alarm_start.o)
 .debug_abbrev  0x0000000000001bb7      0x11f ../media_computer_HAL_bsp/\libhal_bsp.a(alt_close.o)
 .debug_abbrev  0x0000000000001cd6       0x8c ../media_computer_HAL_bsp/\libhal_bsp.a(alt_dcache_flush.o)
 .debug_abbrev  0x0000000000001d62       0x5a ../media_computer_HAL_bsp/\libhal_bsp.a(alt_dcache_flush_all.o)
 .debug_abbrev  0x0000000000001dbc       0xd9 ../media_computer_HAL_bsp/\libhal_bsp.a(alt_dev.o)
 .debug_abbrev  0x0000000000001e95      0x114 ../media_computer_HAL_bsp/\libhal_bsp.a(alt_dev_llist_insert.o)
 .debug_abbrev  0x0000000000001fa9       0x79 ../media_computer_HAL_bsp/\libhal_bsp.a(alt_do_ctors.o)
 .debug_abbrev  0x0000000000002022       0x79 ../media_computer_HAL_bsp/\libhal_bsp.a(alt_do_dtors.o)
 .debug_abbrev  0x000000000000209b       0x5a ../media_computer_HAL_bsp/\libhal_bsp.a(alt_errno.o)
 .debug_abbrev  0x00000000000020f5       0xf0 ../media_computer_HAL_bsp/\libhal_bsp.a(alt_find_dev.o)
 .debug_abbrev  0x00000000000021e5      0x11a ../media_computer_HAL_bsp/\libhal_bsp.a(alt_flash_dev.o)
 .debug_abbrev  0x00000000000022ff       0x42 ../media_computer_HAL_bsp/\libhal_bsp.a(alt_icache_flush_all.o)
 .debug_abbrev  0x0000000000002341      0x114 ../media_computer_HAL_bsp/\libhal_bsp.a(alt_io_redirect.o)
 .debug_abbrev  0x0000000000002455      0x186 ../media_computer_HAL_bsp/\libhal_bsp.a(alt_irq_register.o)
 .debug_abbrev  0x00000000000025db       0x40 ../media_computer_HAL_bsp/\libhal_bsp.a(alt_irq_vars.o)
 .debug_abbrev  0x000000000000261b      0x148 ../media_computer_HAL_bsp/\libhal_bsp.a(alt_open.o)
 .debug_abbrev  0x0000000000002763       0xde ../media_computer_HAL_bsp/\libhal_bsp.a(alt_release_fd.o)
 .debug_abbrev  0x0000000000002841      0x16b ../media_computer_HAL_bsp/\libhal_bsp.a(alt_tick.o)
 .debug_abbrev  0x00000000000029ac       0x67 ../media_computer_HAL_bsp/\libhal_bsp.a(altera_nios2_gen2_irq.o)
 .debug_abbrev  0x0000000000002a13      0x119 ../media_computer_HAL_bsp/\libhal_bsp.a(altera_avalon_cfi_flash_amd.o)
 .debug_abbrev  0x0000000000002b2c      0x119 ../media_computer_HAL_bsp/\libhal_bsp.a(altera_avalon_cfi_flash_intel.o)
 .debug_abbrev  0x0000000000002c45       0xf0 ../media_computer_HAL_bsp/\libhal_bsp.a(alt_find_file.o)
 .debug_abbrev  0x0000000000002d35      0x10d ../media_computer_HAL_bsp/\libhal_bsp.a(alt_get_fd.o)
 .debug_abbrev  0x0000000000002e42       0x8c ../media_computer_HAL_bsp/\libhal_bsp.a(alt_icache_flush.o)
 .debug_abbrev  0x0000000000002ece       0x12 ../media_computer_HAL_bsp/\libhal_bsp.a(alt_irq_entry.o)
 .debug_abbrev  0x0000000000002ee0      0x13a ../media_computer_HAL_bsp/\libhal_bsp.a(alt_irq_handler.o)
 .debug_abbrev  0x000000000000301a       0x60 ../media_computer_HAL_bsp/\libhal_bsp.a(alt_usleep.o)
 .debug_abbrev  0x000000000000307a       0x7e ../media_computer_HAL_bsp/\libhal_bsp.a(alt_busy_sleep.o)
 .debug_abbrev  0x00000000000030f8       0x12 ../media_computer_HAL_bsp/\libhal_bsp.a(alt_exception_entry.o)
 .debug_abbrev  0x000000000000310a       0xdc ../media_computer_HAL_bsp/\libhal_bsp.a(alt_instruction_exception_entry.o)
 .debug_abbrev  0x00000000000031e6       0xaa c:/intelfpga/17.1/nios2eds/bin/gnu/h-x86_64-mingw32/bin/../lib/gcc/nios2-elf/5.3.0/../../../../../H-x86_64-mingw32/nios2-elf/lib\libc.a(lib_a-atexit.o)
 .debug_abbrev  0x0000000000003290      0x1e5 c:/intelfpga/17.1/nios2eds/bin/gnu/h-x86_64-mingw32/bin/../lib/gcc/nios2-elf/5.3.0/../../../../../H-x86_64-mingw32/nios2-elf/lib\libc.a(lib_a-exit.o)
 .debug_abbrev  0x0000000000003475      0x18f c:/intelfpga/17.1/nios2eds/bin/gnu/h-x86_64-mingw32/bin/../lib/gcc/nios2-elf/5.3.0/../../../../../H-x86_64-mingw32/nios2-elf/lib\libc.a(lib_a-impure.o)
 .debug_abbrev  0x0000000000003604       0x37 c:/intelfpga/17.1/nios2eds/bin/gnu/h-x86_64-mingw32/bin/../lib/gcc/nios2-elf/5.3.0/../../../../../H-x86_64-mingw32/nios2-elf/lib\libc.a(lib_a-int_errno.o)
 .debug_abbrev  0x000000000000363b       0x7f c:/intelfpga/17.1/nios2eds/bin/gnu/h-x86_64-mingw32/bin/../lib/gcc/nios2-elf/5.3.0/../../../../../H-x86_64-mingw32/nios2-elf/lib\libc.a(lib_a-memcmp.o)
 .debug_abbrev  0x00000000000036ba      0x243 c:/intelfpga/17.1/nios2eds/bin/gnu/h-x86_64-mingw32/bin/../lib/gcc/nios2-elf/5.3.0/../../../../../H-x86_64-mingw32/nios2-elf/lib\libc.a(lib_a-putc.o)
 .debug_abbrev  0x00000000000038fd       0x74 c:/intelfpga/17.1/nios2eds/bin/gnu/h-x86_64-mingw32/bin/../lib/gcc/nios2-elf/5.3.0/../../../../../H-x86_64-mingw32/nios2-elf/lib\libc.a(lib_a-strcmp.o)
 .debug_abbrev  0x0000000000003971       0x90 c:/intelfpga/17.1/nios2eds/bin/gnu/h-x86_64-mingw32/bin/../lib/gcc/nios2-elf/5.3.0/../../../../../H-x86_64-mingw32/nios2-elf/lib\libc.a(lib_a-strlen.o)
 .debug_abbrev  0x0000000000003a01      0x251 c:/intelfpga/17.1/nios2eds/bin/gnu/h-x86_64-mingw32/bin/../lib/gcc/nios2-elf/5.3.0/../../../../../H-x86_64-mingw32/nios2-elf/lib\libc.a(lib_a-wbuf.o)
 .debug_abbrev  0x0000000000003c52      0x218 c:/intelfpga/17.1/nios2eds/bin/gnu/h-x86_64-mingw32/bin/../lib/gcc/nios2-elf/5.3.0/../../../../../H-x86_64-mingw32/nios2-elf/lib\libc.a(lib_a-wsetup.o)
 .debug_abbrev  0x0000000000003e6a      0x21e c:/intelfpga/17.1/nios2eds/bin/gnu/h-x86_64-mingw32/bin/../lib/gcc/nios2-elf/5.3.0/../../../../../H-x86_64-mingw32/nios2-elf/lib\libc.a(lib_a-__atexit.o)
 .debug_abbrev  0x0000000000004088      0x22e c:/intelfpga/17.1/nios2eds/bin/gnu/h-x86_64-mingw32/bin/../lib/gcc/nios2-elf/5.3.0/../../../../../H-x86_64-mingw32/nios2-elf/lib\libc.a(lib_a-__call_atexit.o)
 .debug_abbrev  0x00000000000042b6      0x2a0 c:/intelfpga/17.1/nios2eds/bin/gnu/h-x86_64-mingw32/bin/../lib/gcc/nios2-elf/5.3.0/../../../../../H-x86_64-mingw32/nios2-elf/lib\libc.a(lib_a-fflush.o)
 .debug_abbrev  0x0000000000004556      0x391 c:/intelfpga/17.1/nios2eds/bin/gnu/h-x86_64-mingw32/bin/../lib/gcc/nios2-elf/5.3.0/../../../../../H-x86_64-mingw32/nios2-elf/lib\libc.a(lib_a-findfp.o)
 .debug_abbrev  0x00000000000048e7      0x264 c:/intelfpga/17.1/nios2eds/bin/gnu/h-x86_64-mingw32/bin/../lib/gcc/nios2-elf/5.3.0/../../../../../H-x86_64-mingw32/nios2-elf/lib\libc.a(lib_a-freer.o)
 .debug_abbrev  0x0000000000004b4b      0x1d1 c:/intelfpga/17.1/nios2eds/bin/gnu/h-x86_64-mingw32/bin/../lib/gcc/nios2-elf/5.3.0/../../../../../H-x86_64-mingw32/nios2-elf/lib\libc.a(lib_a-fwalk.o)
 .debug_abbrev  0x0000000000004d1c      0x20f c:/intelfpga/17.1/nios2eds/bin/gnu/h-x86_64-mingw32/bin/../lib/gcc/nios2-elf/5.3.0/../../../../../H-x86_64-mingw32/nios2-elf/lib\libc.a(lib_a-makebuf.o)
 .debug_abbrev  0x0000000000004f2b      0x29d c:/intelfpga/17.1/nios2eds/bin/gnu/h-x86_64-mingw32/bin/../lib/gcc/nios2-elf/5.3.0/../../../../../H-x86_64-mingw32/nios2-elf/lib\libc.a(lib_a-mallocr.o)
 .debug_abbrev  0x00000000000051c8       0xae c:/intelfpga/17.1/nios2eds/bin/gnu/h-x86_64-mingw32/bin/../lib/gcc/nios2-elf/5.3.0/../../../../../H-x86_64-mingw32/nios2-elf/lib\libc.a(lib_a-memset.o)
 .debug_abbrev  0x0000000000005276      0x20a c:/intelfpga/17.1/nios2eds/bin/gnu/h-x86_64-mingw32/bin/../lib/gcc/nios2-elf/5.3.0/../../../../../H-x86_64-mingw32/nios2-elf/lib\libc.a(lib_a-sbrkr.o)
 .debug_abbrev  0x0000000000005480      0x239 c:/intelfpga/17.1/nios2eds/bin/gnu/h-x86_64-mingw32/bin/../lib/gcc/nios2-elf/5.3.0/../../../../../H-x86_64-mingw32/nios2-elf/lib\libc.a(lib_a-stdio.o)
 .debug_abbrev  0x00000000000056b9      0x1eb c:/intelfpga/17.1/nios2eds/bin/gnu/h-x86_64-mingw32/bin/../lib/gcc/nios2-elf/5.3.0/../../../../../H-x86_64-mingw32/nios2-elf/lib\libc.a(lib_a-writer.o)
 .debug_abbrev  0x00000000000058a4      0x1e6 c:/intelfpga/17.1/nios2eds/bin/gnu/h-x86_64-mingw32/bin/../lib/gcc/nios2-elf/5.3.0/../../../../../H-x86_64-mingw32/nios2-elf/lib\libc.a(closer.o)
 .debug_abbrev  0x0000000000005a8a      0x2a2 c:/intelfpga/17.1/nios2eds/bin/gnu/h-x86_64-mingw32/bin/../lib/gcc/nios2-elf/5.3.0/../../../../../H-x86_64-mingw32/nios2-elf/lib\libc.a(lib_a-fclose.o)
 .debug_abbrev  0x0000000000005d2c      0x1f5 c:/intelfpga/17.1/nios2eds/bin/gnu/h-x86_64-mingw32/bin/../lib/gcc/nios2-elf/5.3.0/../../../../../H-x86_64-mingw32/nios2-elf/lib\libc.a(lib_a-fstatr.o)
 .debug_abbrev  0x0000000000005f21      0x1e6 c:/intelfpga/17.1/nios2eds/bin/gnu/h-x86_64-mingw32/bin/../lib/gcc/nios2-elf/5.3.0/../../../../../H-x86_64-mingw32/nios2-elf/lib\libc.a(lib_a-isattyr.o)
 .debug_abbrev  0x0000000000006107      0x1f5 c:/intelfpga/17.1/nios2eds/bin/gnu/h-x86_64-mingw32/bin/../lib/gcc/nios2-elf/5.3.0/../../../../../H-x86_64-mingw32/nios2-elf/lib\libc.a(lib_a-lseekr.o)
 .debug_abbrev  0x00000000000062fc      0x1e6 c:/intelfpga/17.1/nios2eds/bin/gnu/h-x86_64-mingw32/bin/../lib/gcc/nios2-elf/5.3.0/../../../../../H-x86_64-mingw32/nios2-elf/lib\libc.a(lib_a-readr.o)
 .debug_abbrev  0x00000000000064e2      0x10e c:/intelfpga/17.1/nios2eds/bin/gnu/h-x86_64-mingw32/bin/../lib/gcc/nios2-elf/5.3.0\libgcc.a(lib2-divmod.o)
 .debug_abbrev  0x00000000000065f0       0xd0 ../media_computer_HAL_bsp/\libhal_bsp.a(alt_exit.o)
 .debug_abbrev  0x00000000000066c0      0x11f ../media_computer_HAL_bsp/\libhal_bsp.a(alt_fstat.o)
 .debug_abbrev  0x00000000000067df      0x11f ../media_computer_HAL_bsp/\libhal_bsp.a(alt_isatty.o)
 .debug_abbrev  0x00000000000068fe      0x11f ../media_computer_HAL_bsp/\libhal_bsp.a(alt_lseek.o)
 .debug_abbrev  0x0000000000006a1d      0x1b4 ../media_computer_HAL_bsp/\libhal_bsp.a(alt_malloc_lock.o)
 .debug_abbrev  0x0000000000006bd1      0x12e ../media_computer_HAL_bsp/\libhal_bsp.a(alt_read.o)
 .debug_abbrev  0x0000000000006cff      0x119 ../media_computer_HAL_bsp/\libhal_bsp.a(alt_sbrk.o)
 .debug_abbrev  0x0000000000006e18      0x133 ../media_computer_HAL_bsp/\libhal_bsp.a(alt_write.o)

.debug_line     0x0000000000000000     0x80a6
 *(.debug_line)
 .debug_line    0x0000000000000000       0x72 ../media_computer_HAL_bsp//obj/HAL/src/crt0.o
 .debug_line    0x0000000000000072      0x263 obj/default/media_graphics_HAL.o
 .debug_line    0x00000000000002d5      0x189 c:/intelfpga/17.1/nios2eds/bin/gnu/h-x86_64-mingw32/bin/../lib/gcc/nios2-elf/5.3.0/../../../../../H-x86_64-mingw32/nios2-elf/lib\libc.a(lib_a-memcpy.o)
 .debug_line    0x000000000000045e       0x8e ../media_computer_HAL_bsp/\libhal_bsp.a(alt_load.o)
 .debug_line    0x00000000000004ec       0xd1 ../media_computer_HAL_bsp/\libhal_bsp.a(alt_main.o)
 .debug_line    0x00000000000005bd       0xea ../media_computer_HAL_bsp/\libhal_bsp.a(alt_printf.o)
 .debug_line    0x00000000000006a7      0x116 ../media_computer_HAL_bsp/\libhal_bsp.a(alt_putchar.o)
 .debug_line    0x00000000000007bd      0x357 ../media_computer_HAL_bsp/\libhal_bsp.a(alt_sys_init.o)
 .debug_line    0x0000000000000b14      0x255 ../media_computer_HAL_bsp/\libhal_bsp.a(altera_avalon_cfi_flash.o)
 .debug_line    0x0000000000000d69      0x3da ../media_computer_HAL_bsp/\libhal_bsp.a(altera_avalon_cfi_flash_table.o)
 .debug_line    0x0000000000001143      0x12f ../media_computer_HAL_bsp/\libhal_bsp.a(altera_avalon_jtag_uart_fd.o)
 .debug_line    0x0000000000001272      0x19f ../media_computer_HAL_bsp/\libhal_bsp.a(altera_avalon_jtag_uart_init.o)
 .debug_line    0x0000000000001411      0x131 ../media_computer_HAL_bsp/\libhal_bsp.a(altera_avalon_jtag_uart_ioctl.o)
 .debug_line    0x0000000000001542      0x185 ../media_computer_HAL_bsp/\libhal_bsp.a(altera_avalon_jtag_uart_read.o)
 .debug_line    0x00000000000016c7      0x184 ../media_computer_HAL_bsp/\libhal_bsp.a(altera_avalon_jtag_uart_write.o)
 .debug_line    0x000000000000184b      0x113 ../media_computer_HAL_bsp/\libhal_bsp.a(altera_avalon_timer_sc.o)
 .debug_line    0x000000000000195e      0x1c3 ../media_computer_HAL_bsp/\libhal_bsp.a(altera_up_avalon_character_lcd.o)
 .debug_line    0x0000000000001b21      0x1a5 ../media_computer_HAL_bsp/\libhal_bsp.a(altera_up_avalon_ps2.o)
 .debug_line    0x0000000000001cc6      0x13e ../media_computer_HAL_bsp/\libhal_bsp.a(altera_up_avalon_rs232.o)
 .debug_line    0x0000000000001e04      0x16c ../media_computer_HAL_bsp/\libhal_bsp.a(altera_up_avalon_video_character_buffer_with_dma.o)
 .debug_line    0x0000000000001f70      0x4be ../media_computer_HAL_bsp/\libhal_bsp.a(altera_up_avalon_video_pixel_buffer_dma.o)
 .debug_line    0x000000000000242e      0x10d ../media_computer_HAL_bsp/\libhal_bsp.a(alt_alarm_start.o)
 .debug_line    0x000000000000253b      0x160 ../media_computer_HAL_bsp/\libhal_bsp.a(alt_close.o)
 .debug_line    0x000000000000269b       0x7c ../media_computer_HAL_bsp/\libhal_bsp.a(alt_dcache_flush.o)
 .debug_line    0x0000000000002717       0x61 ../media_computer_HAL_bsp/\libhal_bsp.a(alt_dcache_flush_all.o)
 .debug_line    0x0000000000002778       0xf3 ../media_computer_HAL_bsp/\libhal_bsp.a(alt_dev.o)
 .debug_line    0x000000000000286b       0xcf ../media_computer_HAL_bsp/\libhal_bsp.a(alt_dev_llist_insert.o)
 .debug_line    0x000000000000293a       0x59 ../media_computer_HAL_bsp/\libhal_bsp.a(alt_do_ctors.o)
 .debug_line    0x0000000000002993       0x59 ../media_computer_HAL_bsp/\libhal_bsp.a(alt_do_dtors.o)
 .debug_line    0x00000000000029ec       0x51 ../media_computer_HAL_bsp/\libhal_bsp.a(alt_errno.o)
 .debug_line    0x0000000000002a3d       0xb5 ../media_computer_HAL_bsp/\libhal_bsp.a(alt_find_dev.o)
 .debug_line    0x0000000000002af2       0xde ../media_computer_HAL_bsp/\libhal_bsp.a(alt_flash_dev.o)
 .debug_line    0x0000000000002bd0       0x50 ../media_computer_HAL_bsp/\libhal_bsp.a(alt_icache_flush_all.o)
 .debug_line    0x0000000000002c20      0x12e ../media_computer_HAL_bsp/\libhal_bsp.a(alt_io_redirect.o)
 .debug_line    0x0000000000002d4e      0x155 ../media_computer_HAL_bsp/\libhal_bsp.a(alt_irq_register.o)
 .debug_line    0x0000000000002ea3       0x50 ../media_computer_HAL_bsp/\libhal_bsp.a(alt_irq_vars.o)
 .debug_line    0x0000000000002ef3      0x128 ../media_computer_HAL_bsp/\libhal_bsp.a(alt_open.o)
 .debug_line    0x000000000000301b       0xae ../media_computer_HAL_bsp/\libhal_bsp.a(alt_release_fd.o)
 .debug_line    0x00000000000030c9      0x113 ../media_computer_HAL_bsp/\libhal_bsp.a(alt_tick.o)
 .debug_line    0x00000000000031dc       0x8d ../media_computer_HAL_bsp/\libhal_bsp.a(altera_nios2_gen2_irq.o)
 .debug_line    0x0000000000003269      0x172 ../media_computer_HAL_bsp/\libhal_bsp.a(altera_avalon_cfi_flash_amd.o)
 .debug_line    0x00000000000033db      0x152 ../media_computer_HAL_bsp/\libhal_bsp.a(altera_avalon_cfi_flash_intel.o)
 .debug_line    0x000000000000352d       0xd1 ../media_computer_HAL_bsp/\libhal_bsp.a(alt_find_file.o)
 .debug_line    0x00000000000035fe       0xd4 ../media_computer_HAL_bsp/\libhal_bsp.a(alt_get_fd.o)
 .debug_line    0x00000000000036d2       0x81 ../media_computer_HAL_bsp/\libhal_bsp.a(alt_icache_flush.o)
 .debug_line    0x0000000000003753       0x6b ../media_computer_HAL_bsp/\libhal_bsp.a(alt_irq_entry.o)
 .debug_line    0x00000000000037be       0xcd ../media_computer_HAL_bsp/\libhal_bsp.a(alt_irq_handler.o)
 .debug_line    0x000000000000388b       0xa8 ../media_computer_HAL_bsp/\libhal_bsp.a(alt_usleep.o)
 .debug_line    0x0000000000003933       0xa0 ../media_computer_HAL_bsp/\libhal_bsp.a(alt_busy_sleep.o)
 .debug_line    0x00000000000039d3       0xb3 ../media_computer_HAL_bsp/\libhal_bsp.a(alt_exception_entry.o)
 .debug_line    0x0000000000003a86       0xba ../media_computer_HAL_bsp/\libhal_bsp.a(alt_instruction_exception_entry.o)
 .debug_line    0x0000000000003b40       0xe4 c:/intelfpga/17.1/nios2eds/bin/gnu/h-x86_64-mingw32/bin/../lib/gcc/nios2-elf/5.3.0/../../../../../H-x86_64-mingw32/nios2-elf/lib\libc.a(lib_a-atexit.o)
 .debug_line    0x0000000000003c24      0x1f9 c:/intelfpga/17.1/nios2eds/bin/gnu/h-x86_64-mingw32/bin/../lib/gcc/nios2-elf/5.3.0/../../../../../H-x86_64-mingw32/nios2-elf/lib\libc.a(lib_a-exit.o)
 .debug_line    0x0000000000003e1d      0x15d c:/intelfpga/17.1/nios2eds/bin/gnu/h-x86_64-mingw32/bin/../lib/gcc/nios2-elf/5.3.0/../../../../../H-x86_64-mingw32/nios2-elf/lib\libc.a(lib_a-impure.o)
 .debug_line    0x0000000000003f7a       0x5c c:/intelfpga/17.1/nios2eds/bin/gnu/h-x86_64-mingw32/bin/../lib/gcc/nios2-elf/5.3.0/../../../../../H-x86_64-mingw32/nios2-elf/lib\libc.a(lib_a-int_errno.o)
 .debug_line    0x0000000000003fd6      0x173 c:/intelfpga/17.1/nios2eds/bin/gnu/h-x86_64-mingw32/bin/../lib/gcc/nios2-elf/5.3.0/../../../../../H-x86_64-mingw32/nios2-elf/lib\libc.a(lib_a-memcmp.o)
 .debug_line    0x0000000000004149      0x272 c:/intelfpga/17.1/nios2eds/bin/gnu/h-x86_64-mingw32/bin/../lib/gcc/nios2-elf/5.3.0/../../../../../H-x86_64-mingw32/nios2-elf/lib\libc.a(lib_a-putc.o)
 .debug_line    0x00000000000043bb       0xfe c:/intelfpga/17.1/nios2eds/bin/gnu/h-x86_64-mingw32/bin/../lib/gcc/nios2-elf/5.3.0/../../../../../H-x86_64-mingw32/nios2-elf/lib\libc.a(lib_a-strcmp.o)
 .debug_line    0x00000000000044b9      0x16c c:/intelfpga/17.1/nios2eds/bin/gnu/h-x86_64-mingw32/bin/../lib/gcc/nios2-elf/5.3.0/../../../../../H-x86_64-mingw32/nios2-elf/lib\libc.a(lib_a-strlen.o)
 .debug_line    0x0000000000004625      0x26e c:/intelfpga/17.1/nios2eds/bin/gnu/h-x86_64-mingw32/bin/../lib/gcc/nios2-elf/5.3.0/../../../../../H-x86_64-mingw32/nios2-elf/lib\libc.a(lib_a-wbuf.o)
 .debug_line    0x0000000000004893      0x263 c:/intelfpga/17.1/nios2eds/bin/gnu/h-x86_64-mingw32/bin/../lib/gcc/nios2-elf/5.3.0/../../../../../H-x86_64-mingw32/nios2-elf/lib\libc.a(lib_a-wsetup.o)
 .debug_line    0x0000000000004af6      0x21c c:/intelfpga/17.1/nios2eds/bin/gnu/h-x86_64-mingw32/bin/../lib/gcc/nios2-elf/5.3.0/../../../../../H-x86_64-mingw32/nios2-elf/lib\libc.a(lib_a-__atexit.o)
 .debug_line    0x0000000000004d12      0x237 c:/intelfpga/17.1/nios2eds/bin/gnu/h-x86_64-mingw32/bin/../lib/gcc/nios2-elf/5.3.0/../../../../../H-x86_64-mingw32/nios2-elf/lib\libc.a(lib_a-__call_atexit.o)
 .debug_line    0x0000000000004f49      0x2e7 c:/intelfpga/17.1/nios2eds/bin/gnu/h-x86_64-mingw32/bin/../lib/gcc/nios2-elf/5.3.0/../../../../../H-x86_64-mingw32/nios2-elf/lib\libc.a(lib_a-fflush.o)
 .debug_line    0x0000000000005230      0x36f c:/intelfpga/17.1/nios2eds/bin/gnu/h-x86_64-mingw32/bin/../lib/gcc/nios2-elf/5.3.0/../../../../../H-x86_64-mingw32/nios2-elf/lib\libc.a(lib_a-findfp.o)
 .debug_line    0x000000000000559f      0x2f4 c:/intelfpga/17.1/nios2eds/bin/gnu/h-x86_64-mingw32/bin/../lib/gcc/nios2-elf/5.3.0/../../../../../H-x86_64-mingw32/nios2-elf/lib\libc.a(lib_a-freer.o)
 .debug_line    0x0000000000005893      0x237 c:/intelfpga/17.1/nios2eds/bin/gnu/h-x86_64-mingw32/bin/../lib/gcc/nios2-elf/5.3.0/../../../../../H-x86_64-mingw32/nios2-elf/lib\libc.a(lib_a-fwalk.o)
 .debug_line    0x0000000000005aca      0x271 c:/intelfpga/17.1/nios2eds/bin/gnu/h-x86_64-mingw32/bin/../lib/gcc/nios2-elf/5.3.0/../../../../../H-x86_64-mingw32/nios2-elf/lib\libc.a(lib_a-makebuf.o)
 .debug_line    0x0000000000005d3b      0x3f9 c:/intelfpga/17.1/nios2eds/bin/gnu/h-x86_64-mingw32/bin/../lib/gcc/nios2-elf/5.3.0/../../../../../H-x86_64-mingw32/nios2-elf/lib\libc.a(lib_a-mallocr.o)
 .debug_line    0x0000000000006134      0x18c c:/intelfpga/17.1/nios2eds/bin/gnu/h-x86_64-mingw32/bin/../lib/gcc/nios2-elf/5.3.0/../../../../../H-x86_64-mingw32/nios2-elf/lib\libc.a(lib_a-memset.o)
 .debug_line    0x00000000000062c0      0x1e6 c:/intelfpga/17.1/nios2eds/bin/gnu/h-x86_64-mingw32/bin/../lib/gcc/nios2-elf/5.3.0/../../../../../H-x86_64-mingw32/nios2-elf/lib\libc.a(lib_a-sbrkr.o)
 .debug_line    0x00000000000064a6      0x267 c:/intelfpga/17.1/nios2eds/bin/gnu/h-x86_64-mingw32/bin/../lib/gcc/nios2-elf/5.3.0/../../../../../H-x86_64-mingw32/nios2-elf/lib\libc.a(lib_a-stdio.o)
 .debug_line    0x000000000000670d      0x1f3 c:/intelfpga/17.1/nios2eds/bin/gnu/h-x86_64-mingw32/bin/../lib/gcc/nios2-elf/5.3.0/../../../../../H-x86_64-mingw32/nios2-elf/lib\libc.a(lib_a-writer.o)
 .debug_line    0x0000000000006900      0x1f3 c:/intelfpga/17.1/nios2eds/bin/gnu/h-x86_64-mingw32/bin/../lib/gcc/nios2-elf/5.3.0/../../../../../H-x86_64-mingw32/nios2-elf/lib\libc.a(closer.o)
 .debug_line    0x0000000000006af3      0x236 c:/intelfpga/17.1/nios2eds/bin/gnu/h-x86_64-mingw32/bin/../lib/gcc/nios2-elf/5.3.0/../../../../../H-x86_64-mingw32/nios2-elf/lib\libc.a(lib_a-fclose.o)
 .debug_line    0x0000000000006d29      0x1fc c:/intelfpga/17.1/nios2eds/bin/gnu/h-x86_64-mingw32/bin/../lib/gcc/nios2-elf/5.3.0/../../../../../H-x86_64-mingw32/nios2-elf/lib\libc.a(lib_a-fstatr.o)
 .debug_line    0x0000000000006f25      0x1f4 c:/intelfpga/17.1/nios2eds/bin/gnu/h-x86_64-mingw32/bin/../lib/gcc/nios2-elf/5.3.0/../../../../../H-x86_64-mingw32/nios2-elf/lib\libc.a(lib_a-isattyr.o)
 .debug_line    0x0000000000007119      0x1f3 c:/intelfpga/17.1/nios2eds/bin/gnu/h-x86_64-mingw32/bin/../lib/gcc/nios2-elf/5.3.0/../../../../../H-x86_64-mingw32/nios2-elf/lib\libc.a(lib_a-lseekr.o)
 .debug_line    0x000000000000730c      0x1f2 c:/intelfpga/17.1/nios2eds/bin/gnu/h-x86_64-mingw32/bin/../lib/gcc/nios2-elf/5.3.0/../../../../../H-x86_64-mingw32/nios2-elf/lib\libc.a(lib_a-readr.o)
 .debug_line    0x00000000000074fe      0x102 c:/intelfpga/17.1/nios2eds/bin/gnu/h-x86_64-mingw32/bin/../lib/gcc/nios2-elf/5.3.0\libgcc.a(lib2-divmod.o)
 .debug_line    0x0000000000007600       0xad ../media_computer_HAL_bsp/\libhal_bsp.a(alt_exit.o)
 .debug_line    0x00000000000076ad      0x159 ../media_computer_HAL_bsp/\libhal_bsp.a(alt_fstat.o)
 .debug_line    0x0000000000007806      0x15d ../media_computer_HAL_bsp/\libhal_bsp.a(alt_isatty.o)
 .debug_line    0x0000000000007963      0x15e ../media_computer_HAL_bsp/\libhal_bsp.a(alt_lseek.o)
 .debug_line    0x0000000000007ac1      0x118 ../media_computer_HAL_bsp/\libhal_bsp.a(alt_malloc_lock.o)
 .debug_line    0x0000000000007bd9      0x1d2 ../media_computer_HAL_bsp/\libhal_bsp.a(alt_read.o)
 .debug_line    0x0000000000007dab      0x12a ../media_computer_HAL_bsp/\libhal_bsp.a(alt_sbrk.o)
 .debug_line    0x0000000000007ed5      0x1d1 ../media_computer_HAL_bsp/\libhal_bsp.a(alt_write.o)

.debug_frame    0x0000000000000000     0x2548
 *(.debug_frame)
 .debug_frame   0x0000000000000000       0xf8 obj/default/media_graphics_HAL.o
 .debug_frame   0x00000000000000f8       0x38 c:/intelfpga/17.1/nios2eds/bin/gnu/h-x86_64-mingw32/bin/../lib/gcc/nios2-elf/5.3.0/../../../../../H-x86_64-mingw32/nios2-elf/lib\libc.a(lib_a-memcpy.o)
 .debug_frame   0x0000000000000130       0x5c ../media_computer_HAL_bsp/\libhal_bsp.a(alt_load.o)
 .debug_frame   0x000000000000018c       0x2c ../media_computer_HAL_bsp/\libhal_bsp.a(alt_main.o)
 .debug_frame   0x00000000000001b8       0x38 ../media_computer_HAL_bsp/\libhal_bsp.a(alt_printf.o)
 .debug_frame   0x00000000000001f0       0x38 ../media_computer_HAL_bsp/\libhal_bsp.a(alt_putchar.o)
 .debug_frame   0x0000000000000228       0x88 ../media_computer_HAL_bsp/\libhal_bsp.a(alt_sys_init.o)
 .debug_frame   0x00000000000002b0      0x120 ../media_computer_HAL_bsp/\libhal_bsp.a(altera_avalon_cfi_flash.o)
 .debug_frame   0x00000000000003d0      0x2a8 ../media_computer_HAL_bsp/\libhal_bsp.a(altera_avalon_cfi_flash_table.o)
 .debug_frame   0x0000000000000678       0xb0 ../media_computer_HAL_bsp/\libhal_bsp.a(altera_avalon_jtag_uart_fd.o)
 .debug_frame   0x0000000000000728       0xa4 ../media_computer_HAL_bsp/\libhal_bsp.a(altera_avalon_jtag_uart_init.o)
 .debug_frame   0x00000000000007cc       0x34 ../media_computer_HAL_bsp/\libhal_bsp.a(altera_avalon_jtag_uart_ioctl.o)
 .debug_frame   0x0000000000000800       0x38 ../media_computer_HAL_bsp/\libhal_bsp.a(altera_avalon_jtag_uart_read.o)
 .debug_frame   0x0000000000000838       0x38 ../media_computer_HAL_bsp/\libhal_bsp.a(altera_avalon_jtag_uart_write.o)
 .debug_frame   0x0000000000000870       0x60 ../media_computer_HAL_bsp/\libhal_bsp.a(altera_avalon_timer_sc.o)
 .debug_frame   0x00000000000008d0      0x204 ../media_computer_HAL_bsp/\libhal_bsp.a(altera_up_avalon_character_lcd.o)
 .debug_frame   0x0000000000000ad4      0x2c0 ../media_computer_HAL_bsp/\libhal_bsp.a(altera_up_avalon_ps2.o)
 .debug_frame   0x0000000000000d94      0x188 ../media_computer_HAL_bsp/\libhal_bsp.a(altera_up_avalon_rs232.o)
 .debug_frame   0x0000000000000f1c       0xcc ../media_computer_HAL_bsp/\libhal_bsp.a(altera_up_avalon_video_character_buffer_with_dma.o)
 .debug_frame   0x0000000000000fe8      0x270 ../media_computer_HAL_bsp/\libhal_bsp.a(altera_up_avalon_video_pixel_buffer_dma.o)
 .debug_frame   0x0000000000001258       0x34 ../media_computer_HAL_bsp/\libhal_bsp.a(alt_alarm_start.o)
 .debug_frame   0x000000000000128c       0x60 ../media_computer_HAL_bsp/\libhal_bsp.a(alt_close.o)
 .debug_frame   0x00000000000012ec       0x34 ../media_computer_HAL_bsp/\libhal_bsp.a(alt_dcache_flush.o)
 .debug_frame   0x0000000000001320       0x34 ../media_computer_HAL_bsp/\libhal_bsp.a(alt_dcache_flush_all.o)
 .debug_frame   0x0000000000001354       0x34 ../media_computer_HAL_bsp/\libhal_bsp.a(alt_dev.o)
 .debug_frame   0x0000000000001388       0x60 ../media_computer_HAL_bsp/\libhal_bsp.a(alt_dev_llist_insert.o)
 .debug_frame   0x00000000000013e8       0x38 ../media_computer_HAL_bsp/\libhal_bsp.a(alt_do_ctors.o)
 .debug_frame   0x0000000000001420       0x38 ../media_computer_HAL_bsp/\libhal_bsp.a(alt_do_dtors.o)
 .debug_frame   0x0000000000001458       0x38 ../media_computer_HAL_bsp/\libhal_bsp.a(alt_find_dev.o)
 .debug_frame   0x0000000000001490       0x60 ../media_computer_HAL_bsp/\libhal_bsp.a(alt_flash_dev.o)
 .debug_frame   0x00000000000014f0       0x38 ../media_computer_HAL_bsp/\libhal_bsp.a(alt_icache_flush_all.o)
 .debug_frame   0x0000000000001528       0x60 ../media_computer_HAL_bsp/\libhal_bsp.a(alt_io_redirect.o)
 .debug_frame   0x0000000000001588       0x34 ../media_computer_HAL_bsp/\libhal_bsp.a(alt_irq_register.o)
 .debug_frame   0x00000000000015bc       0x84 ../media_computer_HAL_bsp/\libhal_bsp.a(alt_open.o)
 .debug_frame   0x0000000000001640       0x34 ../media_computer_HAL_bsp/\libhal_bsp.a(alt_release_fd.o)
 .debug_frame   0x0000000000001674       0x5c ../media_computer_HAL_bsp/\libhal_bsp.a(alt_tick.o)
 .debug_frame   0x00000000000016d0       0x34 ../media_computer_HAL_bsp/\libhal_bsp.a(altera_nios2_gen2_irq.o)
 .debug_frame   0x0000000000001704       0xb0 ../media_computer_HAL_bsp/\libhal_bsp.a(altera_avalon_cfi_flash_amd.o)
 .debug_frame   0x00000000000017b4       0xb0 ../media_computer_HAL_bsp/\libhal_bsp.a(altera_avalon_cfi_flash_intel.o)
 .debug_frame   0x0000000000001864       0x38 ../media_computer_HAL_bsp/\libhal_bsp.a(alt_find_file.o)
 .debug_frame   0x000000000000189c       0x34 ../media_computer_HAL_bsp/\libhal_bsp.a(alt_get_fd.o)
 .debug_frame   0x00000000000018d0       0x34 ../media_computer_HAL_bsp/\libhal_bsp.a(alt_icache_flush.o)
 .debug_frame   0x0000000000001904       0x38 ../media_computer_HAL_bsp/\libhal_bsp.a(alt_irq_handler.o)
 .debug_frame   0x000000000000193c       0x38 ../media_computer_HAL_bsp/\libhal_bsp.a(alt_usleep.o)
 .debug_frame   0x0000000000001974       0x38 ../media_computer_HAL_bsp/\libhal_bsp.a(alt_busy_sleep.o)
 .debug_frame   0x00000000000019ac       0x5c ../media_computer_HAL_bsp/\libhal_bsp.a(alt_instruction_exception_entry.o)
 .debug_frame   0x0000000000001a08       0x20 c:/intelfpga/17.1/nios2eds/bin/gnu/h-x86_64-mingw32/bin/../lib/gcc/nios2-elf/5.3.0/../../../../../H-x86_64-mingw32/nios2-elf/lib\libc.a(lib_a-atexit.o)
 .debug_frame   0x0000000000001a28       0x28 c:/intelfpga/17.1/nios2eds/bin/gnu/h-x86_64-mingw32/bin/../lib/gcc/nios2-elf/5.3.0/../../../../../H-x86_64-mingw32/nios2-elf/lib\libc.a(lib_a-exit.o)
 .debug_frame   0x0000000000001a50       0x20 c:/intelfpga/17.1/nios2eds/bin/gnu/h-x86_64-mingw32/bin/../lib/gcc/nios2-elf/5.3.0/../../../../../H-x86_64-mingw32/nios2-elf/lib\libc.a(lib_a-memcmp.o)
 .debug_frame   0x0000000000001a70       0x70 c:/intelfpga/17.1/nios2eds/bin/gnu/h-x86_64-mingw32/bin/../lib/gcc/nios2-elf/5.3.0/../../../../../H-x86_64-mingw32/nios2-elf/lib\libc.a(lib_a-putc.o)
 .debug_frame   0x0000000000001ae0       0x20 c:/intelfpga/17.1/nios2eds/bin/gnu/h-x86_64-mingw32/bin/../lib/gcc/nios2-elf/5.3.0/../../../../../H-x86_64-mingw32/nios2-elf/lib\libc.a(lib_a-strcmp.o)
 .debug_frame   0x0000000000001b00       0x20 c:/intelfpga/17.1/nios2eds/bin/gnu/h-x86_64-mingw32/bin/../lib/gcc/nios2-elf/5.3.0/../../../../../H-x86_64-mingw32/nios2-elf/lib\libc.a(lib_a-strlen.o)
 .debug_frame   0x0000000000001b20       0x50 c:/intelfpga/17.1/nios2eds/bin/gnu/h-x86_64-mingw32/bin/../lib/gcc/nios2-elf/5.3.0/../../../../../H-x86_64-mingw32/nios2-elf/lib\libc.a(lib_a-wbuf.o)
 .debug_frame   0x0000000000001b70       0x38 c:/intelfpga/17.1/nios2eds/bin/gnu/h-x86_64-mingw32/bin/../lib/gcc/nios2-elf/5.3.0/../../../../../H-x86_64-mingw32/nios2-elf/lib\libc.a(lib_a-wsetup.o)
 .debug_frame   0x0000000000001ba8       0x38 c:/intelfpga/17.1/nios2eds/bin/gnu/h-x86_64-mingw32/bin/../lib/gcc/nios2-elf/5.3.0/../../../../../H-x86_64-mingw32/nios2-elf/lib\libc.a(lib_a-__atexit.o)
 .debug_frame   0x0000000000001be0       0x54 c:/intelfpga/17.1/nios2eds/bin/gnu/h-x86_64-mingw32/bin/../lib/gcc/nios2-elf/5.3.0/../../../../../H-x86_64-mingw32/nios2-elf/lib\libc.a(lib_a-__call_atexit.o)
 .debug_frame   0x0000000000001c34       0x7c c:/intelfpga/17.1/nios2eds/bin/gnu/h-x86_64-mingw32/bin/../lib/gcc/nios2-elf/5.3.0/../../../../../H-x86_64-mingw32/nios2-elf/lib\libc.a(lib_a-fflush.o)
 .debug_frame   0x0000000000001cb0      0x160 c:/intelfpga/17.1/nios2eds/bin/gnu/h-x86_64-mingw32/bin/../lib/gcc/nios2-elf/5.3.0/../../../../../H-x86_64-mingw32/nios2-elf/lib\libc.a(lib_a-findfp.o)
 .debug_frame   0x0000000000001e10       0x70 c:/intelfpga/17.1/nios2eds/bin/gnu/h-x86_64-mingw32/bin/../lib/gcc/nios2-elf/5.3.0/../../../../../H-x86_64-mingw32/nios2-elf/lib\libc.a(lib_a-freer.o)
 .debug_frame   0x0000000000001e80       0x90 c:/intelfpga/17.1/nios2eds/bin/gnu/h-x86_64-mingw32/bin/../lib/gcc/nios2-elf/5.3.0/../../../../../H-x86_64-mingw32/nios2-elf/lib\libc.a(lib_a-fwalk.o)
 .debug_frame   0x0000000000001f10       0x4c c:/intelfpga/17.1/nios2eds/bin/gnu/h-x86_64-mingw32/bin/../lib/gcc/nios2-elf/5.3.0/../../../../../H-x86_64-mingw32/nios2-elf/lib\libc.a(lib_a-makebuf.o)
 .debug_frame   0x0000000000001f5c       0x54 c:/intelfpga/17.1/nios2eds/bin/gnu/h-x86_64-mingw32/bin/../lib/gcc/nios2-elf/5.3.0/../../../../../H-x86_64-mingw32/nios2-elf/lib\libc.a(lib_a-mallocr.o)
 .debug_frame   0x0000000000001fb0       0x20 c:/intelfpga/17.1/nios2eds/bin/gnu/h-x86_64-mingw32/bin/../lib/gcc/nios2-elf/5.3.0/../../../../../H-x86_64-mingw32/nios2-elf/lib\libc.a(lib_a-memset.o)
 .debug_frame   0x0000000000001fd0       0x38 c:/intelfpga/17.1/nios2eds/bin/gnu/h-x86_64-mingw32/bin/../lib/gcc/nios2-elf/5.3.0/../../../../../H-x86_64-mingw32/nios2-elf/lib\libc.a(lib_a-sbrkr.o)
 .debug_frame   0x0000000000002008       0xb4 c:/intelfpga/17.1/nios2eds/bin/gnu/h-x86_64-mingw32/bin/../lib/gcc/nios2-elf/5.3.0/../../../../../H-x86_64-mingw32/nios2-elf/lib\libc.a(lib_a-stdio.o)
 .debug_frame   0x00000000000020bc       0x38 c:/intelfpga/17.1/nios2eds/bin/gnu/h-x86_64-mingw32/bin/../lib/gcc/nios2-elf/5.3.0/../../../../../H-x86_64-mingw32/nios2-elf/lib\libc.a(lib_a-writer.o)
 .debug_frame   0x00000000000020f4       0x38 c:/intelfpga/17.1/nios2eds/bin/gnu/h-x86_64-mingw32/bin/../lib/gcc/nios2-elf/5.3.0/../../../../../H-x86_64-mingw32/nios2-elf/lib\libc.a(closer.o)
 .debug_frame   0x000000000000212c       0x54 c:/intelfpga/17.1/nios2eds/bin/gnu/h-x86_64-mingw32/bin/../lib/gcc/nios2-elf/5.3.0/../../../../../H-x86_64-mingw32/nios2-elf/lib\libc.a(lib_a-fclose.o)
 .debug_frame   0x0000000000002180       0x38 c:/intelfpga/17.1/nios2eds/bin/gnu/h-x86_64-mingw32/bin/../lib/gcc/nios2-elf/5.3.0/../../../../../H-x86_64-mingw32/nios2-elf/lib\libc.a(lib_a-fstatr.o)
 .debug_frame   0x00000000000021b8       0x38 c:/intelfpga/17.1/nios2eds/bin/gnu/h-x86_64-mingw32/bin/../lib/gcc/nios2-elf/5.3.0/../../../../../H-x86_64-mingw32/nios2-elf/lib\libc.a(lib_a-isattyr.o)
 .debug_frame   0x00000000000021f0       0x38 c:/intelfpga/17.1/nios2eds/bin/gnu/h-x86_64-mingw32/bin/../lib/gcc/nios2-elf/5.3.0/../../../../../H-x86_64-mingw32/nios2-elf/lib\libc.a(lib_a-lseekr.o)
 .debug_frame   0x0000000000002228       0x38 c:/intelfpga/17.1/nios2eds/bin/gnu/h-x86_64-mingw32/bin/../lib/gcc/nios2-elf/5.3.0/../../../../../H-x86_64-mingw32/nios2-elf/lib\libc.a(lib_a-readr.o)
 .debug_frame   0x0000000000002260       0x50 c:/intelfpga/17.1/nios2eds/bin/gnu/h-x86_64-mingw32/bin/../lib/gcc/nios2-elf/5.3.0\libgcc.a(lib2-divmod.o)
 .debug_frame   0x00000000000022b0       0x2c ../media_computer_HAL_bsp/\libhal_bsp.a(alt_exit.o)
 .debug_frame   0x00000000000022dc       0x60 ../media_computer_HAL_bsp/\libhal_bsp.a(alt_fstat.o)
 .debug_frame   0x000000000000233c       0x60 ../media_computer_HAL_bsp/\libhal_bsp.a(alt_isatty.o)
 .debug_frame   0x000000000000239c       0x60 ../media_computer_HAL_bsp/\libhal_bsp.a(alt_lseek.o)
 .debug_frame   0x00000000000023fc       0x58 ../media_computer_HAL_bsp/\libhal_bsp.a(alt_malloc_lock.o)
 .debug_frame   0x0000000000002454       0x60 ../media_computer_HAL_bsp/\libhal_bsp.a(alt_read.o)
 .debug_frame   0x00000000000024b4       0x34 ../media_computer_HAL_bsp/\libhal_bsp.a(alt_sbrk.o)
 .debug_frame   0x00000000000024e8       0x60 ../media_computer_HAL_bsp/\libhal_bsp.a(alt_write.o)

.debug_str      0x0000000000000000     0x3b16
 *(.debug_str)
 .debug_str     0x0000000000000000      0x3be obj/default/media_graphics_HAL.o
                                        0x452 (size before relaxing)
 .debug_str     0x00000000000003be      0x14c c:/intelfpga/17.1/nios2eds/bin/gnu/h-x86_64-mingw32/bin/../lib/gcc/nios2-elf/5.3.0/../../../../../H-x86_64-mingw32/nios2-elf/lib\libc.a(lib_a-memcpy.o)
                                        0x1f1 (size before relaxing)
 .debug_str     0x000000000000050a      0x14e ../media_computer_HAL_bsp/\libhal_bsp.a(alt_load.o)
                                        0x23a (size before relaxing)
 .debug_str     0x0000000000000658       0x65 ../media_computer_HAL_bsp/\libhal_bsp.a(alt_main.o)
                                        0x1ee (size before relaxing)
 .debug_str     0x00000000000006bd       0x53 ../media_computer_HAL_bsp/\libhal_bsp.a(alt_printf.o)
                                        0x122 (size before relaxing)
 .debug_str     0x0000000000000710      0x36a ../media_computer_HAL_bsp/\libhal_bsp.a(alt_putchar.o)
                                        0x52d (size before relaxing)
 .debug_str     0x0000000000000a7a      0x5ab ../media_computer_HAL_bsp/\libhal_bsp.a(alt_sys_init.o)
                                        0x919 (size before relaxing)
 .debug_str     0x0000000000001025      0x1a8 ../media_computer_HAL_bsp/\libhal_bsp.a(altera_avalon_cfi_flash.o)
                                        0x579 (size before relaxing)
 .debug_str     0x00000000000011cd      0x2c5 ../media_computer_HAL_bsp/\libhal_bsp.a(altera_avalon_cfi_flash_table.o)
                                        0x691 (size before relaxing)
 .debug_str     0x0000000000001492       0xb2 ../media_computer_HAL_bsp/\libhal_bsp.a(altera_avalon_jtag_uart_fd.o)
                                        0x3cc (size before relaxing)
 .debug_str     0x0000000000001544       0xd1 ../media_computer_HAL_bsp/\libhal_bsp.a(altera_avalon_jtag_uart_init.o)
                                        0x381 (size before relaxing)
 .debug_str     0x0000000000001615       0x4a ../media_computer_HAL_bsp/\libhal_bsp.a(altera_avalon_jtag_uart_ioctl.o)
                                        0x2bb (size before relaxing)
 .debug_str     0x000000000000165f       0x7f ../media_computer_HAL_bsp/\libhal_bsp.a(altera_avalon_jtag_uart_read.o)
                                        0x331 (size before relaxing)
 .debug_str     0x00000000000016de       0x4a ../media_computer_HAL_bsp/\libhal_bsp.a(altera_avalon_jtag_uart_write.o)
                                        0x332 (size before relaxing)
 .debug_str     0x0000000000001728       0x6d ../media_computer_HAL_bsp/\libhal_bsp.a(altera_avalon_timer_sc.o)
                                        0x294 (size before relaxing)
 .debug_str     0x0000000000001795      0x1ea ../media_computer_HAL_bsp/\libhal_bsp.a(altera_up_avalon_character_lcd.o)
                                        0x419 (size before relaxing)
 .debug_str     0x000000000000197f      0x1de ../media_computer_HAL_bsp/\libhal_bsp.a(altera_up_avalon_ps2.o)
                                        0x45a (size before relaxing)
 .debug_str     0x0000000000001b5d      0x161 ../media_computer_HAL_bsp/\libhal_bsp.a(altera_up_avalon_rs232.o)
                                        0x394 (size before relaxing)
 .debug_str     0x0000000000001cbe       0xbe ../media_computer_HAL_bsp/\libhal_bsp.a(altera_up_avalon_video_character_buffer_with_dma.o)
                                        0x34a (size before relaxing)
 .debug_str     0x0000000000001d7c      0x27d ../media_computer_HAL_bsp/\libhal_bsp.a(altera_up_avalon_video_pixel_buffer_dma.o)
                                        0x539 (size before relaxing)
 .debug_str     0x0000000000001ff9       0x59 ../media_computer_HAL_bsp/\libhal_bsp.a(alt_alarm_start.o)
                                        0x2c7 (size before relaxing)
 .debug_str     0x0000000000002052       0x44 ../media_computer_HAL_bsp/\libhal_bsp.a(alt_close.o)
                                        0x233 (size before relaxing)
 .debug_str     0x0000000000002096       0x2c ../media_computer_HAL_bsp/\libhal_bsp.a(alt_dcache_flush.o)
                                        0x183 (size before relaxing)
 .debug_str     0x00000000000020c2       0x34 ../media_computer_HAL_bsp/\libhal_bsp.a(alt_dcache_flush_all.o)
                                        0x17d (size before relaxing)
 .debug_str     0x00000000000020f6      0x119 ../media_computer_HAL_bsp/\libhal_bsp.a(alt_dev.o)
                                        0x32d (size before relaxing)
 .debug_str     0x000000000000220f       0x34 ../media_computer_HAL_bsp/\libhal_bsp.a(alt_dev_llist_insert.o)
                                        0x1f4 (size before relaxing)
 .debug_str     0x0000000000002243       0x48 ../media_computer_HAL_bsp/\libhal_bsp.a(alt_do_ctors.o)
                                         0xf8 (size before relaxing)
 .debug_str     0x000000000000228b       0x4c ../media_computer_HAL_bsp/\libhal_bsp.a(alt_do_dtors.o)
                                         0xf7 (size before relaxing)
 .debug_str     0x00000000000022d7       0x14 ../media_computer_HAL_bsp/\libhal_bsp.a(alt_errno.o)
                                        0x16d (size before relaxing)
 .debug_str     0x00000000000022eb       0x24 ../media_computer_HAL_bsp/\libhal_bsp.a(alt_find_dev.o)
                                        0x214 (size before relaxing)
 .debug_str     0x000000000000230f       0x3f ../media_computer_HAL_bsp/\libhal_bsp.a(alt_flash_dev.o)
                                        0x333 (size before relaxing)
 .debug_str     0x000000000000234e       0x34 ../media_computer_HAL_bsp/\libhal_bsp.a(alt_icache_flush_all.o)
                                        0x17d (size before relaxing)
 .debug_str     0x0000000000002382       0x56 ../media_computer_HAL_bsp/\libhal_bsp.a(alt_io_redirect.o)
                                        0x33e (size before relaxing)
 .debug_str     0x00000000000023d8       0x70 ../media_computer_HAL_bsp/\libhal_bsp.a(alt_irq_register.o)
                                        0x230 (size before relaxing)
 .debug_str     0x0000000000002448       0x17 ../media_computer_HAL_bsp/\libhal_bsp.a(alt_irq_vars.o)
                                        0x162 (size before relaxing)
 .debug_str     0x000000000000245f       0x29 ../media_computer_HAL_bsp/\libhal_bsp.a(alt_open.o)
                                        0x273 (size before relaxing)
 .debug_str     0x0000000000002488       0x28 ../media_computer_HAL_bsp/\libhal_bsp.a(alt_release_fd.o)
                                        0x1fb (size before relaxing)
 .debug_str     0x00000000000024b0       0x4a ../media_computer_HAL_bsp/\libhal_bsp.a(alt_tick.o)
                                        0x29b (size before relaxing)
 .debug_str     0x00000000000024fa       0x3b ../media_computer_HAL_bsp/\libhal_bsp.a(altera_nios2_gen2_irq.o)
                                        0x1ad (size before relaxing)
 .debug_str     0x0000000000002535       0x93 ../media_computer_HAL_bsp/\libhal_bsp.a(altera_avalon_cfi_flash_amd.o)
                                        0x46b (size before relaxing)
 .debug_str     0x00000000000025c8       0x80 ../media_computer_HAL_bsp/\libhal_bsp.a(altera_avalon_cfi_flash_intel.o)
                                        0x468 (size before relaxing)
 .debug_str     0x0000000000002648       0x26 ../media_computer_HAL_bsp/\libhal_bsp.a(alt_find_file.o)
                                        0x222 (size before relaxing)
 .debug_str     0x000000000000266e       0x30 ../media_computer_HAL_bsp/\libhal_bsp.a(alt_get_fd.o)
                                        0x244 (size before relaxing)
 .debug_str     0x000000000000269e       0x2c ../media_computer_HAL_bsp/\libhal_bsp.a(alt_icache_flush.o)
                                        0x183 (size before relaxing)
 .debug_str     0x00000000000026ca       0x3a ../media_computer_HAL_bsp/\libhal_bsp.a(alt_irq_handler.o)
                                        0x1e0 (size before relaxing)
 .debug_str     0x0000000000002704       0x27 ../media_computer_HAL_bsp/\libhal_bsp.a(alt_usleep.o)
                                        0x170 (size before relaxing)
 .debug_str     0x000000000000272b       0x42 ../media_computer_HAL_bsp/\libhal_bsp.a(alt_busy_sleep.o)
                                        0x193 (size before relaxing)
 .debug_str     0x000000000000276d      0x48b ../media_computer_HAL_bsp/\libhal_bsp.a(alt_instruction_exception_entry.o)
                                        0x5c8 (size before relaxing)
 .debug_str     0x0000000000002bf8      0x102 c:/intelfpga/17.1/nios2eds/bin/gnu/h-x86_64-mingw32/bin/../lib/gcc/nios2-elf/5.3.0/../../../../../H-x86_64-mingw32/nios2-elf/lib\libc.a(lib_a-atexit.o)
                                        0x207 (size before relaxing)
 .debug_str     0x0000000000002cfa       0x5c c:/intelfpga/17.1/nios2eds/bin/gnu/h-x86_64-mingw32/bin/../lib/gcc/nios2-elf/5.3.0/../../../../../H-x86_64-mingw32/nios2-elf/lib\libc.a(lib_a-exit.o)
                                        0x5a4 (size before relaxing)
 .debug_str     0x0000000000002d56       0xc8 c:/intelfpga/17.1/nios2eds/bin/gnu/h-x86_64-mingw32/bin/../lib/gcc/nios2-elf/5.3.0/../../../../../H-x86_64-mingw32/nios2-elf/lib\libc.a(lib_a-impure.o)
                                        0x59b (size before relaxing)
 .debug_str     0x0000000000002e1e       0x3c c:/intelfpga/17.1/nios2eds/bin/gnu/h-x86_64-mingw32/bin/../lib/gcc/nios2-elf/5.3.0/../../../../../H-x86_64-mingw32/nios2-elf/lib\libc.a(lib_a-int_errno.o)
                                        0x1c3 (size before relaxing)
 .debug_str     0x0000000000002e5a       0x41 c:/intelfpga/17.1/nios2eds/bin/gnu/h-x86_64-mingw32/bin/../lib/gcc/nios2-elf/5.3.0/../../../../../H-x86_64-mingw32/nios2-elf/lib\libc.a(lib_a-memcmp.o)
                                        0x1ca (size before relaxing)
 .debug_str     0x0000000000002e9b       0xe9 c:/intelfpga/17.1/nios2eds/bin/gnu/h-x86_64-mingw32/bin/../lib/gcc/nios2-elf/5.3.0/../../../../../H-x86_64-mingw32/nios2-elf/lib\libc.a(lib_a-putc.o)
                                        0x5bb (size before relaxing)
 .debug_str     0x0000000000002f84       0x41 c:/intelfpga/17.1/nios2eds/bin/gnu/h-x86_64-mingw32/bin/../lib/gcc/nios2-elf/5.3.0/../../../../../H-x86_64-mingw32/nios2-elf/lib\libc.a(lib_a-strcmp.o)
                                        0x1c3 (size before relaxing)
 .debug_str     0x0000000000002fc5       0x4e c:/intelfpga/17.1/nios2eds/bin/gnu/h-x86_64-mingw32/bin/../lib/gcc/nios2-elf/5.3.0/../../../../../H-x86_64-mingw32/nios2-elf/lib\libc.a(lib_a-strlen.o)
                                        0x1dd (size before relaxing)
 .debug_str     0x0000000000003013       0x55 c:/intelfpga/17.1/nios2eds/bin/gnu/h-x86_64-mingw32/bin/../lib/gcc/nios2-elf/5.3.0/../../../../../H-x86_64-mingw32/nios2-elf/lib\libc.a(lib_a-wbuf.o)
                                        0x5bf (size before relaxing)
 .debug_str     0x0000000000003068       0x4e c:/intelfpga/17.1/nios2eds/bin/gnu/h-x86_64-mingw32/bin/../lib/gcc/nios2-elf/5.3.0/../../../../../H-x86_64-mingw32/nios2-elf/lib\libc.a(lib_a-wsetup.o)
                                        0x5ba (size before relaxing)
 .debug_str     0x00000000000030b6       0x3c c:/intelfpga/17.1/nios2eds/bin/gnu/h-x86_64-mingw32/bin/../lib/gcc/nios2-elf/5.3.0/../../../../../H-x86_64-mingw32/nios2-elf/lib\libc.a(lib_a-__atexit.o)
                                        0x5dc (size before relaxing)
 .debug_str     0x00000000000030f2       0x62 c:/intelfpga/17.1/nios2eds/bin/gnu/h-x86_64-mingw32/bin/../lib/gcc/nios2-elf/5.3.0/../../../../../H-x86_64-mingw32/nios2-elf/lib\libc.a(lib_a-__call_atexit.o)
                                        0x5c8 (size before relaxing)
 .debug_str     0x0000000000003154       0x69 c:/intelfpga/17.1/nios2eds/bin/gnu/h-x86_64-mingw32/bin/../lib/gcc/nios2-elf/5.3.0/../../../../../H-x86_64-mingw32/nios2-elf/lib\libc.a(lib_a-fflush.o)
                                        0x5fb (size before relaxing)
 .debug_str     0x00000000000031bd      0x123 c:/intelfpga/17.1/nios2eds/bin/gnu/h-x86_64-mingw32/bin/../lib/gcc/nios2-elf/5.3.0/../../../../../H-x86_64-mingw32/nios2-elf/lib\libc.a(lib_a-findfp.o)
                                        0x6b1 (size before relaxing)
 .debug_str     0x00000000000032e0      0x178 c:/intelfpga/17.1/nios2eds/bin/gnu/h-x86_64-mingw32/bin/../lib/gcc/nios2-elf/5.3.0/../../../../../H-x86_64-mingw32/nios2-elf/lib\libc.a(lib_a-freer.o)
                                        0x6ea (size before relaxing)
 .debug_str     0x0000000000003458       0x47 c:/intelfpga/17.1/nios2eds/bin/gnu/h-x86_64-mingw32/bin/../lib/gcc/nios2-elf/5.3.0/../../../../../H-x86_64-mingw32/nios2-elf/lib\libc.a(lib_a-fwalk.o)
                                        0x5a0 (size before relaxing)
 .debug_str     0x000000000000349f       0x58 c:/intelfpga/17.1/nios2eds/bin/gnu/h-x86_64-mingw32/bin/../lib/gcc/nios2-elf/5.3.0/../../../../../H-x86_64-mingw32/nios2-elf/lib\libc.a(lib_a-makebuf.o)
                                        0x69d (size before relaxing)
 .debug_str     0x00000000000034f7       0xd9 c:/intelfpga/17.1/nios2eds/bin/gnu/h-x86_64-mingw32/bin/../lib/gcc/nios2-elf/5.3.0/../../../../../H-x86_64-mingw32/nios2-elf/lib\libc.a(lib_a-mallocr.o)
                                        0x7a0 (size before relaxing)
 .debug_str     0x00000000000035d0       0x3a c:/intelfpga/17.1/nios2eds/bin/gnu/h-x86_64-mingw32/bin/../lib/gcc/nios2-elf/5.3.0/../../../../../H-x86_64-mingw32/nios2-elf/lib\libc.a(lib_a-memset.o)
                                        0x1de (size before relaxing)
 .debug_str     0x000000000000360a       0x4c c:/intelfpga/17.1/nios2eds/bin/gnu/h-x86_64-mingw32/bin/../lib/gcc/nios2-elf/5.3.0/../../../../../H-x86_64-mingw32/nios2-elf/lib\libc.a(lib_a-sbrkr.o)
                                        0x591 (size before relaxing)
 .debug_str     0x0000000000003656       0x98 c:/intelfpga/17.1/nios2eds/bin/gnu/h-x86_64-mingw32/bin/../lib/gcc/nios2-elf/5.3.0/../../../../../H-x86_64-mingw32/nios2-elf/lib\libc.a(lib_a-stdio.o)
                                        0x5ef (size before relaxing)
 .debug_str     0x00000000000036ee       0x39 c:/intelfpga/17.1/nios2eds/bin/gnu/h-x86_64-mingw32/bin/../lib/gcc/nios2-elf/5.3.0/../../../../../H-x86_64-mingw32/nios2-elf/lib\libc.a(lib_a-writer.o)
                                        0x595 (size before relaxing)
 .debug_str     0x0000000000003727       0x39 c:/intelfpga/17.1/nios2eds/bin/gnu/h-x86_64-mingw32/bin/../lib/gcc/nios2-elf/5.3.0/../../../../../H-x86_64-mingw32/nios2-elf/lib\libc.a(closer.o)
                                        0x585 (size before relaxing)
 .debug_str     0x0000000000003760       0x4f c:/intelfpga/17.1/nios2eds/bin/gnu/h-x86_64-mingw32/bin/../lib/gcc/nios2-elf/5.3.0/../../../../../H-x86_64-mingw32/nios2-elf/lib\libc.a(lib_a-fclose.o)
                                        0x5e8 (size before relaxing)
 .debug_str     0x00000000000037af       0x3f c:/intelfpga/17.1/nios2eds/bin/gnu/h-x86_64-mingw32/bin/../lib/gcc/nios2-elf/5.3.0/../../../../../H-x86_64-mingw32/nios2-elf/lib\libc.a(lib_a-fstatr.o)
                                        0x671 (size before relaxing)
 .debug_str     0x00000000000037ee       0x41 c:/intelfpga/17.1/nios2eds/bin/gnu/h-x86_64-mingw32/bin/../lib/gcc/nios2-elf/5.3.0/../../../../../H-x86_64-mingw32/nios2-elf/lib\libc.a(lib_a-isattyr.o)
                                        0x588 (size before relaxing)
 .debug_str     0x000000000000382f       0x39 c:/intelfpga/17.1/nios2eds/bin/gnu/h-x86_64-mingw32/bin/../lib/gcc/nios2-elf/5.3.0/../../../../../H-x86_64-mingw32/nios2-elf/lib\libc.a(lib_a-lseekr.o)
                                        0x58c (size before relaxing)
 .debug_str     0x0000000000003868       0x38 c:/intelfpga/17.1/nios2eds/bin/gnu/h-x86_64-mingw32/bin/../lib/gcc/nios2-elf/5.3.0/../../../../../H-x86_64-mingw32/nios2-elf/lib\libc.a(lib_a-readr.o)
                                        0x592 (size before relaxing)
 .debug_str     0x00000000000038a0      0x16d c:/intelfpga/17.1/nios2eds/bin/gnu/h-x86_64-mingw32/bin/../lib/gcc/nios2-elf/5.3.0\libgcc.a(lib2-divmod.o)
                                        0x1b8 (size before relaxing)
 .debug_str     0x0000000000003a0d       0x2a ../media_computer_HAL_bsp/\libhal_bsp.a(alt_exit.o)
                                        0x1a2 (size before relaxing)
 .debug_str     0x0000000000003a37       0x14 ../media_computer_HAL_bsp/\libhal_bsp.a(alt_fstat.o)
                                        0x314 (size before relaxing)
 .debug_str     0x0000000000003a4b       0x15 ../media_computer_HAL_bsp/\libhal_bsp.a(alt_isatty.o)
                                        0x31c (size before relaxing)
 .debug_str     0x0000000000003a60       0x14 ../media_computer_HAL_bsp/\libhal_bsp.a(alt_lseek.o)
                                        0x239 (size before relaxing)
 .debug_str     0x0000000000003a74       0x1a ../media_computer_HAL_bsp/\libhal_bsp.a(alt_malloc_lock.o)
                                        0x537 (size before relaxing)
 .debug_str     0x0000000000003a8e       0x13 ../media_computer_HAL_bsp/\libhal_bsp.a(alt_read.o)
                                        0x31f (size before relaxing)
 .debug_str     0x0000000000003aa1       0x61 ../media_computer_HAL_bsp/\libhal_bsp.a(alt_sbrk.o)
                                        0x225 (size before relaxing)
 .debug_str     0x0000000000003b02       0x14 ../media_computer_HAL_bsp/\libhal_bsp.a(alt_write.o)
                                        0x320 (size before relaxing)

.debug_loc      0x0000000000000000     0x356d
 *(.debug_loc)
 .debug_loc     0x0000000000000000      0x266 c:/intelfpga/17.1/nios2eds/bin/gnu/h-x86_64-mingw32/bin/../lib/gcc/nios2-elf/5.3.0/../../../../../H-x86_64-mingw32/nios2-elf/lib\libc.a(lib_a-memcpy.o)
 .debug_loc     0x0000000000000266       0x2c c:/intelfpga/17.1/nios2eds/bin/gnu/h-x86_64-mingw32/bin/../lib/gcc/nios2-elf/5.3.0/../../../../../H-x86_64-mingw32/nios2-elf/lib\libc.a(lib_a-atexit.o)
 .debug_loc     0x0000000000000292       0x1e c:/intelfpga/17.1/nios2eds/bin/gnu/h-x86_64-mingw32/bin/../lib/gcc/nios2-elf/5.3.0/../../../../../H-x86_64-mingw32/nios2-elf/lib\libc.a(lib_a-exit.o)
 .debug_loc     0x00000000000002b0      0x126 c:/intelfpga/17.1/nios2eds/bin/gnu/h-x86_64-mingw32/bin/../lib/gcc/nios2-elf/5.3.0/../../../../../H-x86_64-mingw32/nios2-elf/lib\libc.a(lib_a-memcmp.o)
 .debug_loc     0x00000000000003d6      0x224 c:/intelfpga/17.1/nios2eds/bin/gnu/h-x86_64-mingw32/bin/../lib/gcc/nios2-elf/5.3.0/../../../../../H-x86_64-mingw32/nios2-elf/lib\libc.a(lib_a-putc.o)
 .debug_loc     0x00000000000005fa       0xc6 c:/intelfpga/17.1/nios2eds/bin/gnu/h-x86_64-mingw32/bin/../lib/gcc/nios2-elf/5.3.0/../../../../../H-x86_64-mingw32/nios2-elf/lib\libc.a(lib_a-strcmp.o)
 .debug_loc     0x00000000000006c0       0x47 c:/intelfpga/17.1/nios2eds/bin/gnu/h-x86_64-mingw32/bin/../lib/gcc/nios2-elf/5.3.0/../../../../../H-x86_64-mingw32/nios2-elf/lib\libc.a(lib_a-strlen.o)
 .debug_loc     0x0000000000000707      0x1b2 c:/intelfpga/17.1/nios2eds/bin/gnu/h-x86_64-mingw32/bin/../lib/gcc/nios2-elf/5.3.0/../../../../../H-x86_64-mingw32/nios2-elf/lib\libc.a(lib_a-wbuf.o)
 .debug_loc     0x00000000000008b9       0xa2 c:/intelfpga/17.1/nios2eds/bin/gnu/h-x86_64-mingw32/bin/../lib/gcc/nios2-elf/5.3.0/../../../../../H-x86_64-mingw32/nios2-elf/lib\libc.a(lib_a-wsetup.o)
 .debug_loc     0x000000000000095b      0x185 c:/intelfpga/17.1/nios2eds/bin/gnu/h-x86_64-mingw32/bin/../lib/gcc/nios2-elf/5.3.0/../../../../../H-x86_64-mingw32/nios2-elf/lib\libc.a(lib_a-__atexit.o)
 .debug_loc     0x0000000000000ae0      0x1ce c:/intelfpga/17.1/nios2eds/bin/gnu/h-x86_64-mingw32/bin/../lib/gcc/nios2-elf/5.3.0/../../../../../H-x86_64-mingw32/nios2-elf/lib\libc.a(lib_a-__call_atexit.o)
 .debug_loc     0x0000000000000cae      0x36f c:/intelfpga/17.1/nios2eds/bin/gnu/h-x86_64-mingw32/bin/../lib/gcc/nios2-elf/5.3.0/../../../../../H-x86_64-mingw32/nios2-elf/lib\libc.a(lib_a-fflush.o)
 .debug_loc     0x000000000000101d      0x2ee c:/intelfpga/17.1/nios2eds/bin/gnu/h-x86_64-mingw32/bin/../lib/gcc/nios2-elf/5.3.0/../../../../../H-x86_64-mingw32/nios2-elf/lib\libc.a(lib_a-findfp.o)
 .debug_loc     0x000000000000130b      0x4e7 c:/intelfpga/17.1/nios2eds/bin/gnu/h-x86_64-mingw32/bin/../lib/gcc/nios2-elf/5.3.0/../../../../../H-x86_64-mingw32/nios2-elf/lib\libc.a(lib_a-freer.o)
 .debug_loc     0x00000000000017f2      0x25b c:/intelfpga/17.1/nios2eds/bin/gnu/h-x86_64-mingw32/bin/../lib/gcc/nios2-elf/5.3.0/../../../../../H-x86_64-mingw32/nios2-elf/lib\libc.a(lib_a-fwalk.o)
 .debug_loc     0x0000000000001a4d      0x122 c:/intelfpga/17.1/nios2eds/bin/gnu/h-x86_64-mingw32/bin/../lib/gcc/nios2-elf/5.3.0/../../../../../H-x86_64-mingw32/nios2-elf/lib\libc.a(lib_a-makebuf.o)
 .debug_loc     0x0000000000001b6f      0xb1b c:/intelfpga/17.1/nios2eds/bin/gnu/h-x86_64-mingw32/bin/../lib/gcc/nios2-elf/5.3.0/../../../../../H-x86_64-mingw32/nios2-elf/lib\libc.a(lib_a-mallocr.o)
 .debug_loc     0x000000000000268a      0x1a6 c:/intelfpga/17.1/nios2eds/bin/gnu/h-x86_64-mingw32/bin/../lib/gcc/nios2-elf/5.3.0/../../../../../H-x86_64-mingw32/nios2-elf/lib\libc.a(lib_a-memset.o)
 .debug_loc     0x0000000000002830       0x58 c:/intelfpga/17.1/nios2eds/bin/gnu/h-x86_64-mingw32/bin/../lib/gcc/nios2-elf/5.3.0/../../../../../H-x86_64-mingw32/nios2-elf/lib\libc.a(lib_a-sbrkr.o)
 .debug_loc     0x0000000000002888      0x33a c:/intelfpga/17.1/nios2eds/bin/gnu/h-x86_64-mingw32/bin/../lib/gcc/nios2-elf/5.3.0/../../../../../H-x86_64-mingw32/nios2-elf/lib\libc.a(lib_a-stdio.o)
 .debug_loc     0x0000000000002bc2       0xb0 c:/intelfpga/17.1/nios2eds/bin/gnu/h-x86_64-mingw32/bin/../lib/gcc/nios2-elf/5.3.0/../../../../../H-x86_64-mingw32/nios2-elf/lib\libc.a(lib_a-writer.o)
 .debug_loc     0x0000000000002c72       0x58 c:/intelfpga/17.1/nios2eds/bin/gnu/h-x86_64-mingw32/bin/../lib/gcc/nios2-elf/5.3.0/../../../../../H-x86_64-mingw32/nios2-elf/lib\libc.a(closer.o)
 .debug_loc     0x0000000000002cca      0x199 c:/intelfpga/17.1/nios2eds/bin/gnu/h-x86_64-mingw32/bin/../lib/gcc/nios2-elf/5.3.0/../../../../../H-x86_64-mingw32/nios2-elf/lib\libc.a(lib_a-fclose.o)
 .debug_loc     0x0000000000002e63       0x84 c:/intelfpga/17.1/nios2eds/bin/gnu/h-x86_64-mingw32/bin/../lib/gcc/nios2-elf/5.3.0/../../../../../H-x86_64-mingw32/nios2-elf/lib\libc.a(lib_a-fstatr.o)
 .debug_loc     0x0000000000002ee7       0x58 c:/intelfpga/17.1/nios2eds/bin/gnu/h-x86_64-mingw32/bin/../lib/gcc/nios2-elf/5.3.0/../../../../../H-x86_64-mingw32/nios2-elf/lib\libc.a(lib_a-isattyr.o)
 .debug_loc     0x0000000000002f3f       0xb0 c:/intelfpga/17.1/nios2eds/bin/gnu/h-x86_64-mingw32/bin/../lib/gcc/nios2-elf/5.3.0/../../../../../H-x86_64-mingw32/nios2-elf/lib\libc.a(lib_a-lseekr.o)
 .debug_loc     0x0000000000002fef       0xb0 c:/intelfpga/17.1/nios2eds/bin/gnu/h-x86_64-mingw32/bin/../lib/gcc/nios2-elf/5.3.0/../../../../../H-x86_64-mingw32/nios2-elf/lib\libc.a(lib_a-readr.o)
 .debug_loc     0x000000000000309f      0x4ce c:/intelfpga/17.1/nios2eds/bin/gnu/h-x86_64-mingw32/bin/../lib/gcc/nios2-elf/5.3.0\libgcc.a(lib2-divmod.o)

.debug_macinfo
 *(.debug_macinfo)

.debug_weaknames
 *(.debug_weaknames)

.debug_funcnames
 *(.debug_funcnames)

.debug_typenames
 *(.debug_typenames)

.debug_varnames
 *(.debug_varnames)

.debug_alt_sim_info
                0x0000000000000000       0x60
 *(.debug_alt_sim_info)
 .debug_alt_sim_info
                0x0000000000000000       0x30 ../media_computer_HAL_bsp//obj/HAL/src/crt0.o
 .debug_alt_sim_info
                0x0000000000000030       0x30 ../media_computer_HAL_bsp/\libhal_bsp.a(alt_busy_sleep.o)
                0x0000000008000000                __alt_data_end = 0x8000000
                0x0000000008000000                PROVIDE (__alt_stack_pointer, __alt_data_end)
                [!provide]                        PROVIDE (__alt_stack_limit, __alt_stack_base)
                0x000000000000e730                PROVIDE (__alt_heap_start, end)
                0x0000000008000000                PROVIDE (__alt_heap_limit, 0x8000000)
OUTPUT(media_computer_HAL.elf elf32-littlenios2)

.debug_ranges   0x0000000000000000      0x540
 .debug_ranges  0x0000000000000000       0x20 ../media_computer_HAL_bsp//obj/HAL/src/crt0.o
 .debug_ranges  0x0000000000000020       0x10 c:/intelfpga/17.1/nios2eds/bin/gnu/h-x86_64-mingw32/bin/../lib/gcc/nios2-elf/5.3.0/../../../../../H-x86_64-mingw32/nios2-elf/lib\libc.a(lib_a-memcpy.o)
 .debug_ranges  0x0000000000000030       0x30 ../media_computer_HAL_bsp/\libhal_bsp.a(altera_avalon_jtag_uart_init.o)
 .debug_ranges  0x0000000000000060       0x18 ../media_computer_HAL_bsp/\libhal_bsp.a(altera_avalon_jtag_uart_read.o)
 .debug_ranges  0x0000000000000078       0x28 ../media_computer_HAL_bsp/\libhal_bsp.a(alt_irq_entry.o)
 .debug_ranges  0x00000000000000a0       0x10 ../media_computer_HAL_bsp/\libhal_bsp.a(alt_irq_handler.o)
 .debug_ranges  0x00000000000000b0       0x30 ../media_computer_HAL_bsp/\libhal_bsp.a(alt_exception_entry.o)
 .debug_ranges  0x00000000000000e0       0x18 ../media_computer_HAL_bsp/\libhal_bsp.a(alt_instruction_exception_entry.o)
 .debug_ranges  0x00000000000000f8       0x10 c:/intelfpga/17.1/nios2eds/bin/gnu/h-x86_64-mingw32/bin/../lib/gcc/nios2-elf/5.3.0/../../../../../H-x86_64-mingw32/nios2-elf/lib\libc.a(lib_a-atexit.o)
 .debug_ranges  0x0000000000000108       0x10 c:/intelfpga/17.1/nios2eds/bin/gnu/h-x86_64-mingw32/bin/../lib/gcc/nios2-elf/5.3.0/../../../../../H-x86_64-mingw32/nios2-elf/lib\libc.a(lib_a-exit.o)
 .debug_ranges  0x0000000000000118       0x10 c:/intelfpga/17.1/nios2eds/bin/gnu/h-x86_64-mingw32/bin/../lib/gcc/nios2-elf/5.3.0/../../../../../H-x86_64-mingw32/nios2-elf/lib\libc.a(lib_a-memcmp.o)
 .debug_ranges  0x0000000000000128       0x48 c:/intelfpga/17.1/nios2eds/bin/gnu/h-x86_64-mingw32/bin/../lib/gcc/nios2-elf/5.3.0/../../../../../H-x86_64-mingw32/nios2-elf/lib\libc.a(lib_a-putc.o)
 .debug_ranges  0x0000000000000170       0x10 c:/intelfpga/17.1/nios2eds/bin/gnu/h-x86_64-mingw32/bin/../lib/gcc/nios2-elf/5.3.0/../../../../../H-x86_64-mingw32/nios2-elf/lib\libc.a(lib_a-strcmp.o)
 .debug_ranges  0x0000000000000180       0x10 c:/intelfpga/17.1/nios2eds/bin/gnu/h-x86_64-mingw32/bin/../lib/gcc/nios2-elf/5.3.0/../../../../../H-x86_64-mingw32/nios2-elf/lib\libc.a(lib_a-strlen.o)
 .debug_ranges  0x0000000000000190       0x30 c:/intelfpga/17.1/nios2eds/bin/gnu/h-x86_64-mingw32/bin/../lib/gcc/nios2-elf/5.3.0/../../../../../H-x86_64-mingw32/nios2-elf/lib\libc.a(lib_a-wbuf.o)
 .debug_ranges  0x00000000000001c0       0x40 c:/intelfpga/17.1/nios2eds/bin/gnu/h-x86_64-mingw32/bin/../lib/gcc/nios2-elf/5.3.0/../../../../../H-x86_64-mingw32/nios2-elf/lib\libc.a(lib_a-wsetup.o)
 .debug_ranges  0x0000000000000200       0x10 c:/intelfpga/17.1/nios2eds/bin/gnu/h-x86_64-mingw32/bin/../lib/gcc/nios2-elf/5.3.0/../../../../../H-x86_64-mingw32/nios2-elf/lib\libc.a(lib_a-__atexit.o)
 .debug_ranges  0x0000000000000210       0x30 c:/intelfpga/17.1/nios2eds/bin/gnu/h-x86_64-mingw32/bin/../lib/gcc/nios2-elf/5.3.0/../../../../../H-x86_64-mingw32/nios2-elf/lib\libc.a(lib_a-__call_atexit.o)
 .debug_ranges  0x0000000000000240       0x58 c:/intelfpga/17.1/nios2eds/bin/gnu/h-x86_64-mingw32/bin/../lib/gcc/nios2-elf/5.3.0/../../../../../H-x86_64-mingw32/nios2-elf/lib\libc.a(lib_a-fflush.o)
 .debug_ranges  0x0000000000000298       0xc8 c:/intelfpga/17.1/nios2eds/bin/gnu/h-x86_64-mingw32/bin/../lib/gcc/nios2-elf/5.3.0/../../../../../H-x86_64-mingw32/nios2-elf/lib\libc.a(lib_a-findfp.o)
 .debug_ranges  0x0000000000000360       0x18 c:/intelfpga/17.1/nios2eds/bin/gnu/h-x86_64-mingw32/bin/../lib/gcc/nios2-elf/5.3.0/../../../../../H-x86_64-mingw32/nios2-elf/lib\libc.a(lib_a-freer.o)
 .debug_ranges  0x0000000000000378       0x18 c:/intelfpga/17.1/nios2eds/bin/gnu/h-x86_64-mingw32/bin/../lib/gcc/nios2-elf/5.3.0/../../../../../H-x86_64-mingw32/nios2-elf/lib\libc.a(lib_a-fwalk.o)
 .debug_ranges  0x0000000000000390       0x10 c:/intelfpga/17.1/nios2eds/bin/gnu/h-x86_64-mingw32/bin/../lib/gcc/nios2-elf/5.3.0/../../../../../H-x86_64-mingw32/nios2-elf/lib\libc.a(lib_a-makebuf.o)
 .debug_ranges  0x00000000000003a0       0x48 c:/intelfpga/17.1/nios2eds/bin/gnu/h-x86_64-mingw32/bin/../lib/gcc/nios2-elf/5.3.0/../../../../../H-x86_64-mingw32/nios2-elf/lib\libc.a(lib_a-mallocr.o)
 .debug_ranges  0x00000000000003e8       0x10 c:/intelfpga/17.1/nios2eds/bin/gnu/h-x86_64-mingw32/bin/../lib/gcc/nios2-elf/5.3.0/../../../../../H-x86_64-mingw32/nios2-elf/lib\libc.a(lib_a-memset.o)
 .debug_ranges  0x00000000000003f8       0x10 c:/intelfpga/17.1/nios2eds/bin/gnu/h-x86_64-mingw32/bin/../lib/gcc/nios2-elf/5.3.0/../../../../../H-x86_64-mingw32/nios2-elf/lib\libc.a(lib_a-sbrkr.o)
 .debug_ranges  0x0000000000000408       0x30 c:/intelfpga/17.1/nios2eds/bin/gnu/h-x86_64-mingw32/bin/../lib/gcc/nios2-elf/5.3.0/../../../../../H-x86_64-mingw32/nios2-elf/lib\libc.a(lib_a-stdio.o)
 .debug_ranges  0x0000000000000438       0x10 c:/intelfpga/17.1/nios2eds/bin/gnu/h-x86_64-mingw32/bin/../lib/gcc/nios2-elf/5.3.0/../../../../../H-x86_64-mingw32/nios2-elf/lib\libc.a(lib_a-writer.o)
 .debug_ranges  0x0000000000000448       0x10 c:/intelfpga/17.1/nios2eds/bin/gnu/h-x86_64-mingw32/bin/../lib/gcc/nios2-elf/5.3.0/../../../../../H-x86_64-mingw32/nios2-elf/lib\libc.a(closer.o)
 .debug_ranges  0x0000000000000458       0x48 c:/intelfpga/17.1/nios2eds/bin/gnu/h-x86_64-mingw32/bin/../lib/gcc/nios2-elf/5.3.0/../../../../../H-x86_64-mingw32/nios2-elf/lib\libc.a(lib_a-fclose.o)
 .debug_ranges  0x00000000000004a0       0x10 c:/intelfpga/17.1/nios2eds/bin/gnu/h-x86_64-mingw32/bin/../lib/gcc/nios2-elf/5.3.0/../../../../../H-x86_64-mingw32/nios2-elf/lib\libc.a(lib_a-fstatr.o)
 .debug_ranges  0x00000000000004b0       0x10 c:/intelfpga/17.1/nios2eds/bin/gnu/h-x86_64-mingw32/bin/../lib/gcc/nios2-elf/5.3.0/../../../../../H-x86_64-mingw32/nios2-elf/lib\libc.a(lib_a-isattyr.o)
 .debug_ranges  0x00000000000004c0       0x10 c:/intelfpga/17.1/nios2eds/bin/gnu/h-x86_64-mingw32/bin/../lib/gcc/nios2-elf/5.3.0/../../../../../H-x86_64-mingw32/nios2-elf/lib\libc.a(lib_a-lseekr.o)
 .debug_ranges  0x00000000000004d0       0x10 c:/intelfpga/17.1/nios2eds/bin/gnu/h-x86_64-mingw32/bin/../lib/gcc/nios2-elf/5.3.0/../../../../../H-x86_64-mingw32/nios2-elf/lib\libc.a(lib_a-readr.o)
 .debug_ranges  0x00000000000004e0       0x60 c:/intelfpga/17.1/nios2eds/bin/gnu/h-x86_64-mingw32/bin/../lib/gcc/nios2-elf/5.3.0\libgcc.a(lib2-divmod.o)
