
chs_t1_reloj.elf:     file format elf32-littlenios2
chs_t1_reloj.elf
architecture: nios2:r1, flags 0x00000112:
EXEC_P, HAS_SYMS, D_PAGED
start address 0x00000248

Program Header:
    LOAD off    0x00001000 vaddr 0x00000000 paddr 0x00000000 align 2**12
         filesz 0x00000020 memsz 0x00000020 flags r-x
    LOAD off    0x00001020 vaddr 0x00000020 paddr 0x00000020 align 2**12
         filesz 0x00014f90 memsz 0x00014f90 flags r-x
    LOAD off    0x00015fb0 vaddr 0x00014fb0 paddr 0x00016ed4 align 2**12
         filesz 0x00001f24 memsz 0x00001f24 flags rw-
    LOAD off    0x00018df8 vaddr 0x00018df8 paddr 0x00018df8 align 2**12
         filesz 0x00000000 memsz 0x00000178 flags rw-

Sections:
Idx Name          Size      VMA       LMA       File off  Algn
  0 .entry        00000020  00000000  00000000  00001000  2**5
                  CONTENTS, ALLOC, LOAD, READONLY, CODE
  1 .exceptions   00000228  00000020  00000020  00001020  2**2
                  CONTENTS, ALLOC, LOAD, READONLY, CODE
  2 .text         00014800  00000248  00000248  00001248  2**2
                  CONTENTS, ALLOC, LOAD, READONLY, CODE
  3 .rodata       00000568  00014a48  00014a48  00015a48  2**2
                  CONTENTS, ALLOC, LOAD, READONLY, DATA
  4 .rwdata       00001f24  00014fb0  00016ed4  00015fb0  2**2
                  CONTENTS, ALLOC, LOAD, DATA, SMALL_DATA
  5 .bss          00000178  00018df8  00018df8  00018df8  2**2
                  ALLOC, SMALL_DATA
  6 .sdram        00000000  00018f70  00018f70  00017ed4  2**0
                  CONTENTS
  7 .flash_controller 00000000  08000000  08000000  00017ed4  2**0
                  CONTENTS
  8 .onchip_memory 00000000  08800000  08800000  00017ed4  2**0
                  CONTENTS
  9 .comment      00000023  00000000  00000000  00017ed4  2**0
                  CONTENTS, READONLY
 10 .debug_aranges 00000fb0  00000000  00000000  00017ef8  2**3
                  CONTENTS, READONLY, DEBUGGING
 11 .debug_info   0002632a  00000000  00000000  00018ea8  2**0
                  CONTENTS, READONLY, DEBUGGING
 12 .debug_abbrev 00009771  00000000  00000000  0003f1d2  2**0
                  CONTENTS, READONLY, DEBUGGING
 13 .debug_line   0000c669  00000000  00000000  00048943  2**0
                  CONTENTS, READONLY, DEBUGGING
 14 .debug_frame  000030a0  00000000  00000000  00054fac  2**2
                  CONTENTS, READONLY, DEBUGGING
 15 .debug_str    00004c3f  00000000  00000000  0005804c  2**0
                  CONTENTS, READONLY, DEBUGGING
 16 .debug_loc    0001621c  00000000  00000000  0005cc8b  2**0
                  CONTENTS, READONLY, DEBUGGING
 17 .debug_alt_sim_info 00000060  00000000  00000000  00072ea8  2**2
                  CONTENTS, READONLY, DEBUGGING
 18 .debug_ranges 000016a8  00000000  00000000  00072f08  2**3
                  CONTENTS, READONLY, DEBUGGING
 19 .thread_model 00000003  00000000  00000000  00078d4a  2**0
                  CONTENTS, READONLY
 20 .cpu          00000003  00000000  00000000  00078d4d  2**0
                  CONTENTS, READONLY
 21 .qsys         00000001  00000000  00000000  00078d50  2**0
                  CONTENTS, READONLY
 22 .simulation_enabled 00000001  00000000  00000000  00078d51  2**0
                  CONTENTS, READONLY
 23 .sysid_hash   00000004  00000000  00000000  00078d52  2**0
                  CONTENTS, READONLY
 24 .sysid_base   00000004  00000000  00000000  00078d56  2**0
                  CONTENTS, READONLY
 25 .sysid_time   00000004  00000000  00000000  00078d5a  2**0
                  CONTENTS, READONLY
 26 .stderr_dev   00000009  00000000  00000000  00078d5e  2**0
                  CONTENTS, READONLY
 27 .stdin_dev    00000009  00000000  00000000  00078d67  2**0
                  CONTENTS, READONLY
 28 .stdout_dev   00000009  00000000  00000000  00078d70  2**0
                  CONTENTS, READONLY
 29 .sopc_system_name 0000000b  00000000  00000000  00078d79  2**0
                  CONTENTS, READONLY
 30 .quartus_project_dir 00000046  00000000  00000000  00078d84  2**0
                  CONTENTS, READONLY
 31 .jdi          00003a07  00000000  00000000  00078dca  2**0
                  CONTENTS, READONLY
 32 .sopcinfo     000e2959  00000000  00000000  0007c7d1  2**0
                  CONTENTS, READONLY
SYMBOL TABLE:
00000000 l    d  .entry	00000000 .entry
00000020 l    d  .exceptions	00000000 .exceptions
00000248 l    d  .text	00000000 .text
00014a48 l    d  .rodata	00000000 .rodata
00014fb0 l    d  .rwdata	00000000 .rwdata
00018df8 l    d  .bss	00000000 .bss
00018f70 l    d  .sdram	00000000 .sdram
08000000 l    d  .flash_controller	00000000 .flash_controller
08800000 l    d  .onchip_memory	00000000 .onchip_memory
00000000 l    d  .comment	00000000 .comment
00000000 l    d  .debug_aranges	00000000 .debug_aranges
00000000 l    d  .debug_info	00000000 .debug_info
00000000 l    d  .debug_abbrev	00000000 .debug_abbrev
00000000 l    d  .debug_line	00000000 .debug_line
00000000 l    d  .debug_frame	00000000 .debug_frame
00000000 l    d  .debug_str	00000000 .debug_str
00000000 l    d  .debug_loc	00000000 .debug_loc
00000000 l    d  .debug_alt_sim_info	00000000 .debug_alt_sim_info
00000000 l    d  .debug_ranges	00000000 .debug_ranges
00000000 l    df *ABS*	00000000 ../chs_t1_reloj_bsp//obj/HAL/src/crt0.o
00000290 l       .text	00000000 alt_after_alt_main
00000000 l    df *ABS*	00000000 alt_irq_handler.c
00000000 l    df *ABS*	00000000 alt_instruction_exception_entry.c
00000000 l    df *ABS*	00000000 reloj.c
00000000 l    df *ABS*	00000000 lib2-divmod.c
00000000 l    df *ABS*	00000000 sprintf.c
00000000 l    df *ABS*	00000000 vfprintf.c
00014ba6 l     O .rodata	00000010 zeroes.4389
00014bb6 l     O .rodata	00000010 blanks.4388
00000000 l    df *ABS*	00000000 dtoa.c
00003af0 l     F .text	00000200 quorem
00000000 l    df *ABS*	00000000 impure.c
00014ff0 l     O .rwdata	00000424 impure_data
00000000 l    df *ABS*	00000000 locale.c
00015434 l     O .rwdata	00000020 lc_ctype_charset
00015414 l     O .rwdata	00000020 lc_message_charset
00015454 l     O .rwdata	00000038 lconv
00000000 l    df *ABS*	00000000 mallocr.c
00000000 l    df *ABS*	00000000 memchr.c
00000000 l    df *ABS*	00000000 memcpy.c
00000000 l    df *ABS*	00000000 mprec.c
00014be8 l     O .rodata	0000000c p05.2768
00000000 l    df *ABS*	00000000 s_fpclassify.c
00000000 l    df *ABS*	00000000 sbrkr.c
00000000 l    df *ABS*	00000000 strcmp.c
00000000 l    df *ABS*	00000000 strlen.c
00000000 l    df *ABS*	00000000 vfprintf.c
00014d1c l     O .rodata	00000010 blanks.4332
00014d0c l     O .rodata	00000010 zeroes.4333
00000000 l    df *ABS*	00000000 mallocr.c
00000000 l    df *ABS*	00000000 mallocr.c
00000000 l    df *ABS*	00000000 int_errno.c
00000000 l    df *ABS*	00000000 memmove.c
00000000 l    df *ABS*	00000000 memset.c
00000000 l    df *ABS*	00000000 mallocr.c
00000000 l    df *ABS*	00000000 libgcc2.c
00000000 l    df *ABS*	00000000 libgcc2.c
00000000 l    df *ABS*	00000000 adddf3.c
00000000 l    df *ABS*	00000000 divdf3.c
00000000 l    df *ABS*	00000000 eqdf2.c
00000000 l    df *ABS*	00000000 gedf2.c
00000000 l    df *ABS*	00000000 ledf2.c
00000000 l    df *ABS*	00000000 muldf3.c
00000000 l    df *ABS*	00000000 subdf3.c
00000000 l    df *ABS*	00000000 fixdfsi.c
00000000 l    df *ABS*	00000000 floatsidf.c
00000000 l    df *ABS*	00000000 floatunsidf.c
00000000 l    df *ABS*	00000000 libgcc2.c
00000000 l    df *ABS*	00000000 libgcc2.c
00000000 l    df *ABS*	00000000 alt_irq_register.c
00000000 l    df *ABS*	00000000 alt_irq_vars.c
00000000 l    df *ABS*	00000000 alt_load.c
0000c448 l     F .text	00000068 alt_load_section
00000000 l    df *ABS*	00000000 alt_main.c
00000000 l    df *ABS*	00000000 alt_malloc_lock.c
00000000 l    df *ABS*	00000000 alt_printf.c
00000000 l    df *ABS*	00000000 alt_putchar.c
00000000 l    df *ABS*	00000000 alt_sbrk.c
00016ea8 l     O .rwdata	00000004 heap_end
00000000 l    df *ABS*	00000000 alt_sys_init.c
0000c910 l     F .text	00000034 alt_dev_reg
00015894 l     O .rwdata	000000dc flash_controller
00015970 l     O .rwdata	00001060 jtag_uart
000169d0 l     O .rwdata	00000030 audio_config
00016a00 l     O .rwdata	00000030 audio
00016a30 l     O .rwdata	0000002c char_lcd
00016a5c l     O .rwdata	0000002c green_leds
00016a88 l     O .rwdata	0000002c HEX3_HEX0
00016ab4 l     O .rwdata	0000002c HEX7_HEX4
00016ae0 l     O .rwdata	0000002c pushbuttons
00016b0c l     O .rwdata	0000002c red_leds
00016b38 l     O .rwdata	0000002c switches
00016b64 l     O .rwdata	00000038 ps2_key
00016b9c l     O .rwdata	00000038 ps2_mouse
00016bd4 l     O .rwdata	0000002c serial_port
00016c00 l     O .rwdata	00000048 mtl_char_buffer
00016c48 l     O .rwdata	00000054 mtl_pixel_buffer_dma
00016c9c l     O .rwdata	0000002c SD_Card
00000000 l    df *ABS*	00000000 altera_avalon_cfi_flash.c
0000cd50 l     F .text	00000034 alt_flash_device_register
00000000 l    df *ABS*	00000000 altera_avalon_cfi_flash_table.c
0000dba0 l     F .text	00000080 alt_read_16bit_query_entry
00000000 l    df *ABS*	00000000 altera_avalon_jtag_uart_fd.c
00000000 l    df *ABS*	00000000 altera_avalon_jtag_uart_init.c
0000ec48 l     F .text	00000210 altera_avalon_jtag_uart_irq
0000ee58 l     F .text	000000a0 altera_avalon_jtag_uart_timeout
00000000 l    df *ABS*	00000000 altera_avalon_jtag_uart_ioctl.c
00000000 l    df *ABS*	00000000 altera_avalon_jtag_uart_read.c
00000000 l    df *ABS*	00000000 altera_avalon_jtag_uart_write.c
00000000 l    df *ABS*	00000000 altera_avalon_timer_sc.c
0000f490 l     F .text	0000007c alt_avalon_timer_sc_irq
00000000 l    df *ABS*	00000000 altera_up_avalon_character_lcd.c
00000000 l    df *ABS*	00000000 altera_up_avalon_ps2.c
00000000 l    df *ABS*	00000000 altera_up_avalon_rs232.c
00000000 l    df *ABS*	00000000 altera_up_avalon_video_character_buffer_with_dma.c
00000000 l    df *ABS*	00000000 altera_up_avalon_video_pixel_buffer_dma.c
00000000 l    df *ABS*	00000000 alt_alarm_start.c
00000000 l    df *ABS*	00000000 alt_close.c
00011774 l     F .text	0000003c alt_get_errno
00000000 l    df *ABS*	00000000 alt_dcache_flush.c
00000000 l    df *ABS*	00000000 alt_dcache_flush_all.c
00000000 l    df *ABS*	00000000 alt_dev.c
00011940 l     F .text	0000002c alt_dev_null_write
00000000 l    df *ABS*	00000000 alt_dev_llist_insert.c
0001196c l     F .text	0000003c alt_get_errno
00000000 l    df *ABS*	00000000 alt_do_ctors.c
00000000 l    df *ABS*	00000000 alt_do_dtors.c
00000000 l    df *ABS*	00000000 alt_errno.c
00000000 l    df *ABS*	00000000 alt_find_dev.c
00000000 l    df *ABS*	00000000 alt_flash_dev.c
00000000 l    df *ABS*	00000000 alt_icache_flush_all.c
00000000 l    df *ABS*	00000000 alt_io_redirect.c
00011c8c l     F .text	000000c4 alt_open_fd
00000000 l    df *ABS*	00000000 alt_open.c
00011dcc l     F .text	0000003c alt_get_errno
00011e08 l     F .text	000000c4 alt_file_locked
00000000 l    df *ABS*	00000000 alt_release_fd.c
00000000 l    df *ABS*	00000000 alt_tick.c
00000000 l    df *ABS*	00000000 altera_nios2_gen2_irq.c
00000000 l    df *ABS*	00000000 altera_avalon_cfi_flash_amd.c
000125e0 l     F .text	000000cc alt_write_word_amd
000124c4 l     F .text	0000011c alt_wait_for_command_to_complete_amd
00000000 l    df *ABS*	00000000 altera_avalon_cfi_flash_intel.c
000128b8 l     F .text	0000017c alt_unlock_block_intel
00012a34 l     F .text	000000d4 alt_write_word_intel
00000000 l    df *ABS*	00000000 alt_find_file.c
00000000 l    df *ABS*	00000000 alt_get_fd.c
00000000 l    df *ABS*	00000000 alt_icache_flush.c
00000000 l    df *ABS*	00000000 alt_usleep.c
00000000 l    df *ABS*	00000000 alt_busy_sleep.c
00000000 l    df *ABS*	00000000 atexit.c
00000000 l    df *ABS*	00000000 exit.c
00000000 l    df *ABS*	00000000 memcmp.c
00000000 l    df *ABS*	00000000 putc.c
00000000 l    df *ABS*	00000000 wbuf.c
00000000 l    df *ABS*	00000000 wsetup.c
00000000 l    df *ABS*	00000000 __atexit.c
00000000 l    df *ABS*	00000000 __call_atexit.c
00000000 l    df *ABS*	00000000 fflush.c
00000000 l    df *ABS*	00000000 findfp.c
00013984 l     F .text	00000008 __fp_unlock
00013998 l     F .text	0000019c __sinit.part.1
00013b34 l     F .text	00000008 __fp_lock
00000000 l    df *ABS*	00000000 fwalk.c
00000000 l    df *ABS*	00000000 makebuf.c
00000000 l    df *ABS*	00000000 stdio.c
00000000 l    df *ABS*	00000000 writer.c
00000000 l    df *ABS*	00000000 closer.c
00000000 l    df *ABS*	00000000 fclose.c
00000000 l    df *ABS*	00000000 fstatr.c
00000000 l    df *ABS*	00000000 isattyr.c
00000000 l    df *ABS*	00000000 lseekr.c
00000000 l    df *ABS*	00000000 readr.c
00000000 l    df *ABS*	00000000 alt_exit.c
00000000 l    df *ABS*	00000000 alt_fstat.c
00014500 l     F .text	0000003c alt_get_errno
00000000 l    df *ABS*	00000000 alt_isatty.c
000145ec l     F .text	0000003c alt_get_errno
00000000 l    df *ABS*	00000000 alt_lseek.c
000146cc l     F .text	0000003c alt_get_errno
00000000 l    df *ABS*	00000000 alt_read.c
000147dc l     F .text	0000003c alt_get_errno
00000000 l    df *ABS*	00000000 alt_write.c
00014914 l     F .text	0000003c alt_get_errno
00018e38 g     O .bss	00000004 alt_instruction_exception_handler
00006d10 g     F .text	00000074 _mprec_log10
00006dfc g     F .text	0000008c __any_on
000143b8 g     F .text	00000054 _isatty_r
00014bf4 g     O .rodata	00000028 __mprec_tinytens
0000c534 g     F .text	0000007c alt_main
00011068 g     F .text	0000024c alt_up_pixel_buffer_dma_draw_vline
0000d664 g     F .text	00000040 alt_read_query_entry_32bit
0000fcc0 g     F .text	00000060 alt_up_ps2_disable_read_interrupt
00018e70 g     O .bss	00000100 alt_irq
0001440c g     F .text	00000060 _lseek_r
0000ce14 g     F .text	000002a8 alt_flash_cfi_write
00016ed4 g       *ABS*	00000000 __flash_rwdata_start
0000f5f4 g     F .text	00000040 alt_up_character_lcd_send_cmd
0000adf4 g     F .text	00000088 .hidden __eqdf2
0000071c g     F .text	00000054 MTL_fill_screen
00018f70 g       *ABS*	00000000 __alt_heap_start
00014140 g     F .text	0000005c __sseek
00013cd4 g     F .text	00000010 __sinit
00013198 g     F .text	00000140 __swbuf_r
0001063c g     F .text	000000fc alt_up_char_buffer_string
0000fad8 g     F .text	00000034 read_CE_bit
00005378 g     F .text	0000007c _setlocale_r
00013b3c g     F .text	00000068 __sfmoreglue
0000c5d4 g     F .text	00000024 __malloc_unlock
0000fe60 g     F .text	0000009c alt_up_ps2_read_data_byte_timeout
00010354 g     F .text	00000090 alt_up_rs232_read_fd
000004d0 g     F .text	00000060 LCD_cursor
00010570 g     F .text	000000cc alt_up_char_buffer_draw
000089c8 g     F .text	0000015c memmove
00013cbc g     F .text	00000018 _cleanup
00005e8c g     F .text	000000a8 _Balloc
000107d0 g     F .text	00000194 alt_up_pixel_buffer_dma_draw
0000ae7c g     F .text	000000dc .hidden __gtdf2
00012228 g     F .text	00000024 altera_nios2_gen2_irq_init
0000f580 g     F .text	00000074 get_DDRAM_addr
0000d7fc g     F .text	00000050 alt_write_flash_command_32bit_device_16bit_mode
00010794 g     F .text	0000003c alt_up_pixel_buffer_dma_open_dev
00000000 g     F .entry	0000001c __reset
00000858 g     F .text	00000260 draw_clock_digit_dma
00000020 g       *ABS*	00000000 __flash_exceptions_start
0001435c g     F .text	0000005c _fstat_r
0000d308 g     F .text	000002e0 alt_flash_program_block
00018e1c g     O .bss	00000004 errno
000140bc g     F .text	00000008 __seofread
00007294 g     F .text	0000123c ___svfiprintf_internal_r
00018e28 g     O .bss	00000004 alt_argv
0001ee70 g       *ABS*	00000000 _gp
00012de0 g     F .text	00000030 usleep
00016e84 g     O .rwdata	00000004 LCD_display_ptr
00018dfc g     O .bss	00000004 background_color
00010964 g     F .text	0000005c alt_up_pixel_buffer_dma_change_back_buffer_address
00000d30 g     F .text	000001ec draw_clock_dma
00016cf0 g     O .rwdata	00000180 alt_fd_list
00011b0c g     F .text	00000090 alt_find_dev
00005d44 g     F .text	00000148 memcpy
0000f79c g     F .text	00000050 alt_up_character_lcd_write_fd
00000294 g     F .text	0000009c seconds_to_time_t
00010738 g     F .text	0000005c alt_up_char_buffer_clear
0001398c g     F .text	0000000c _cleanup_r
0000c0e0 g     F .text	000000dc .hidden __floatsidf
00011d50 g     F .text	0000007c alt_io_redirect
0000af58 g     F .text	000000f4 .hidden __ltdf2
00014a48 g       *ABS*	00000000 __DTOR_END__
000102e0 g     F .text	00000074 alt_up_rs232_read_data
00012d44 g     F .text	0000009c alt_exception_cause_generated_bad_addr
00006e88 g     F .text	00000074 __fpclassifyd
00006c6c g     F .text	000000a4 __ratio
00016e80 g     O .rwdata	00000004 HEX7_HEX4_ptr
08000000 g       *ABS*	00000000 __alt_mem_flash_controller
00010a20 g     F .text	00000034 alt_up_pixel_buffer_dma_check_swap_buffers_status
0000f050 g     F .text	0000021c altera_avalon_jtag_uart_read
00000530 g     F .text	00000060 LCD_text
00001798 g     F .text	00000064 .hidden __udivsi3
00014628 g     F .text	000000a4 isatty
00014c44 g     O .rodata	000000c8 __mprec_tens
00010e58 g     F .text	00000210 alt_up_pixel_buffer_dma_draw_hline
000053f4 g     F .text	0000000c __locale_charset
00012cb4 g     F .text	00000090 alt_icache_flush
00018e18 g     O .bss	00000004 __malloc_top_pad
00016e98 g     O .rwdata	00000004 __mb_cur_max
00005424 g     F .text	0000000c _localeconv_r
00006298 g     F .text	0000003c __i2b
00006efc g     F .text	00000054 _sbrk_r
000126ac g     F .text	00000080 alt_program_intel
0001137c g     F .text	00000084 helper_plot_pixel
00016e78 g     O .rwdata	00000004 slider_switch_ptr
0001446c g     F .text	00000060 _read_r
00011880 g     F .text	00000078 alt_dcache_flush
00016ebc g     O .rwdata	00000004 alt_max_fd
0001025c g     F .text	00000044 alt_up_rs232_check_parity
0000d5e8 g     F .text	0000003c alt_read_query_entry_8bit
00014258 g     F .text	000000f0 _fclose_r
0000fb0c g     F .text	00000030 read_num_bytes_available
0001272c g     F .text	0000018c alt_erase_block_intel
00013954 g     F .text	00000030 fflush
00018e14 g     O .bss	00000004 __malloc_max_sbrked_mem
0000c2c8 g     F .text	00000180 alt_irq_register
0000fa74 g     F .text	00000034 read_RI_bit
00009c60 g     F .text	000008ac .hidden __adddf3
00006a14 g     F .text	0000010c __b2d
00010a54 g     F .text	00000128 alt_up_pixel_buffer_dma_clear_screen
00009728 g     F .text	00000538 .hidden __umoddi3
00014708 g     F .text	000000d4 lseek
00016e90 g     O .rwdata	00000004 _global_impure_ptr
00016e88 g     O .rwdata	00000004 digit_color
00008c4c g     F .text	00000564 _realloc_r
00018f70 g       *ABS*	00000000 __bss_end
00010b7c g     F .text	000002dc alt_up_pixel_buffer_dma_draw_box
00012120 g     F .text	00000108 alt_tick
000091b0 g     F .text	00000578 .hidden __udivdi3
00014c1c g     O .rodata	00000028 __mprec_bigtens
0000607c g     F .text	00000104 __s2b
0000c1bc g     F .text	000000a8 .hidden __floatunsidf
00006754 g     F .text	00000060 __mcmp
0000fb70 g     F .text	0000002c read_data_byte
00013cf4 g     F .text	00000018 __fp_lock_all
00012084 g     F .text	0000009c alt_alarm_stop
00016e74 g     O .rwdata	00000004 KEY_ptr
0000faa8 g     F .text	00000030 read_RE_bit
00018e20 g     O .bss	00000004 alt_irq_active
000000fc g     F .exceptions	000000d8 alt_irq_handler
00016cc8 g     O .rwdata	00000028 alt_dev_null
0000fa3c g     F .text	00000038 alt_up_character_lcd_cursor_blink_on
0000db04 g     F .text	0000009c alt_set_flash_algorithm_func
0000fd20 g     F .text	00000074 alt_up_ps2_write_data_byte
000118f8 g     F .text	00000048 alt_dcache_flush_all
00006180 g     F .text	00000068 __hi0bits
000112b4 g     F .text	000000c8 alt_up_pixel_buffer_dma_draw_rectangle
00016e7c g     O .rwdata	00000004 HEX3_HEX0_ptr
0000c060 g     F .text	00000080 .hidden __fixdfsi
000012c8 g     F .text	00000094 color_8_to_16_bits
0000d6a4 g     F .text	00000044 alt_write_flash_command_8bit_device_8bit_mode
00016ed4 g       *ABS*	00000000 __ram_rwdata_end
08800000 g       *ABS*	00000000 __alt_mem_onchip_memory
00018e00 g     O .bss	00000004 background_color_8b
00016eb4 g     O .rwdata	00000008 alt_dev_list
00014950 g     F .text	000000f8 write
00013030 g     F .text	000000a0 _putc_r
00014fb0 g     O .rwdata	00000040 hex7seg
00011400 g     F .text	00000248 alt_up_pixel_buffer_dma_draw_line
00014fb0 g       *ABS*	00000000 __ram_rodata_end
0001453c g     F .text	000000b0 fstat
000103e4 g     F .text	00000094 alt_up_rs232_write_fd
0000af58 g     F .text	000000f4 .hidden __ledf2
0000e958 g     F .text	000000d8 alt_check_primary_table
000064cc g     F .text	00000140 __pow5mult
00018e0c g     O .bss	00000004 __nlocale_changed
000017fc g     F .text	00000058 .hidden __umodsi3
0000d148 g     F .text	00000064 alt_flash_cfi_read
0000d89c g     F .text	00000038 alt_write_native_8bit
00018f70 g       *ABS*	00000000 end
00010050 g     F .text	00000098 alt_up_ps2_write_fd
0000d6e8 g     F .text	00000078 alt_write_flash_command_16bit_device_8bit_mode
000104b4 g     F .text	00000080 alt_up_char_buffer_init
0000dc20 g     F .text	000005c8 alt_read_cfi_table
0000eb94 g     F .text	000000b4 altera_avalon_jtag_uart_init
000001d4 g     F .exceptions	00000074 alt_instruction_exception_entry
00014a48 g       *ABS*	00000000 __CTOR_LIST__
08000000 g       *ABS*	00000000 __alt_stack_pointer
0000f50c g     F .text	00000074 alt_avalon_timer_sc_init
0000c264 g     F .text	00000064 .hidden __clzsi2
0000f26c g     F .text	00000224 altera_avalon_jtag_uart_write
0000cd84 g     F .text	00000090 alt_flash_cfi_init
00013ce4 g     F .text	00000004 __sfp_lock_acquire
00005c60 g     F .text	000000e4 memchr
0000f6a8 g     F .text	0000007c alt_up_character_lcd_write
00001854 g     F .text	00000058 _sprintf_r
00000770 g     F .text	00000028 draw_clock_dots_dma
000086b8 g     F .text	00000310 _free_r
0000c5f8 g     F .text	0000022c alt_printf
00005400 g     F .text	00000010 __locale_mb_cur_max
0001355c g     F .text	00000180 __call_exitprocs
00018e08 g     O .bss	00000004 __mlocale_changed
000011d8 g     F .text	000000f0 pushbutton_isr
00016e9c g     O .rwdata	00000004 __malloc_sbrk_base
00000248 g     F .text	0000004c _start
00018e30 g     O .bss	00000004 _alt_tick_rate
0000660c g     F .text	00000148 __lshift
00018e34 g     O .bss	00000004 _alt_nticks
00014818 g     F .text	000000fc read
0000c97c g     F .text	000003d4 alt_sys_init
0000f8ec g     F .text	0000008c alt_up_character_lcd_shift_display
000070c4 g     F .text	000001d0 __ssprint_r
00013444 g     F .text	00000118 __register_exitproc
0000ff6c g     F .text	00000058 alt_up_ps2_clear_fifo
00010220 g     F .text	0000003c alt_up_rs232_get_available_space_in_write_FIFO
00001150 g     F .text	00000088 interval_timer_isr
0000d624 g     F .text	00000040 alt_read_query_entry_16bit
000062d4 g     F .text	000001f8 __multiply
0000f978 g     F .text	0000008c alt_up_character_lcd_erase_pos
0000eef8 g     F .text	00000068 altera_avalon_jtag_uart_close
00014fb0 g       *ABS*	00000000 __ram_rwdata_start
00014a48 g       *ABS*	00000000 __ram_rodata_start
00018e3c g     O .bss	00000028 __malloc_current_mallinfo
0000d940 g     F .text	000001c4 alt_set_flash_width_func
00006b20 g     F .text	0000014c __d2b
0000ea30 g     F .text	00000060 altera_avalon_jtag_uart_read_fd
00012c10 g     F .text	000000a4 alt_get_fd
00012e10 g     F .text	00000158 alt_busy_sleep
00014204 g     F .text	00000054 _close_r
000122b4 g     F .text	00000210 alt_erase_block_amd
00012fb4 g     F .text	0000007c memcmp
0000eaf0 g     F .text	00000050 altera_avalon_jtag_uart_close_fd
00018f70 g       *ABS*	00000000 __alt_stack_base
0000eb40 g     F .text	00000054 altera_avalon_jtag_uart_ioctl_fd
000132f0 g     F .text	00000154 __swsetup_r
0000e1e8 g     F .text	00000770 alt_read_cfi_width
0000a50c g     F .text	000008e8 .hidden __divdf3
00013ba4 g     F .text	00000118 __sfp
00006d84 g     F .text	00000078 __copybits
00000798 g     F .text	000000c0 draw_clock_dots
0001548c g     O .rwdata	00000408 __malloc_av_
00013cf0 g     F .text	00000004 __sinit_lock_release
0000b04c g     F .text	00000718 .hidden __muldf3
00014068 g     F .text	00000054 __sread
00010180 g     F .text	00000060 alt_up_rs232_disable_read_interrupt
00012b08 g     F .text	00000108 alt_find_file
000119a8 g     F .text	000000a4 alt_dev_llist_insert
0000c5b0 g     F .text	00000024 __malloc_lock
0000c860 g     F .text	000000b0 sbrk
00001918 g     F .text	000021d8 ___svfprintf_internal_r
000138f8 g     F .text	0000005c _fflush_r
000084d0 g     F .text	000000c4 _calloc_r
00016ec4 g     O .rwdata	00000008 alt_flash_dev_list
0000d7b0 g     F .text	0000004c alt_write_flash_command_16bit_device_16bit_mode
00018df8 g       *ABS*	00000000 __bss_start
00008b24 g     F .text	00000128 memset
000013fc g     F .text	000002a4 main
0000135c g     F .text	000000a0 slider_switches_isr
00018e2c g     O .bss	00000004 alt_envp
00018e10 g     O .bss	00000004 __malloc_max_total_mem
000109c0 g     F .text	00000060 alt_up_pixel_buffer_dma_swap_buffers
00010534 g     F .text	0000003c alt_up_char_buffer_open_dev
0000ea90 g     F .text	00000060 altera_avalon_jtag_uart_write_fd
000132d8 g     F .text	00000018 __swbuf
00000590 g     F .text	0000002c LCD_cursor_off
0000f860 g     F .text	0000008c alt_up_character_lcd_shift_cursor
0001419c g     F .text	00000008 __sclose
08000000 g       *ABS*	00000000 __alt_heap_limit
00014348 g     F .text	00000014 fclose
0000fefc g     F .text	00000070 alt_up_ps2_read_data_byte
00000330 g     F .text	000001a0 send_time_to_7seg
00003cf0 g     F .text	00001688 _dtoa_r
00005454 g     F .text	0000080c _malloc_r
00018e64 g     O .bss	0000000c time
00016ec0 g     O .rwdata	00000004 alt_errno
0000d84c g     F .text	00000050 alt_write_flash_command_32bit_device_32bit_mode
00013d24 g     F .text	000000c4 _fwalk
0000d1ac g     F .text	0000015c alt_write_value_to_flash
000100e8 g     F .text	0000003c alt_up_ps2_open_dev
0000d8d4 g     F .text	00000038 alt_write_native_16bit
000130d0 g     F .text	000000c8 putc
000016a0 g     F .text	00000084 .hidden __divsi3
0000f66c g     F .text	0000003c alt_up_character_lcd_open_dev
00008594 g     F .text	00000124 _malloc_trim_r
0000fc64 g     F .text	0000005c alt_up_ps2_enable_read_interrupt
00014a48 g       *ABS*	00000000 __CTOR_END__
0000f634 g     F .text	00000038 alt_up_character_lcd_init
00006f50 g     F .text	000000dc strcmp
00014a48 g       *ABS*	00000000 __flash_rodata_start
00014a48 g       *ABS*	00000000 __DTOR_LIST__
00010478 g     F .text	0000003c alt_up_rs232_open_dev
00018df8 g     O .bss	00000004 count
0000adf4 g     F .text	00000088 .hidden __nedf2
0000c944 g     F .text	00000038 alt_irq_init
00012020 g     F .text	00000064 alt_release_fd
0000fb3c g     F .text	00000034 read_data_valid
000018ac g     F .text	0000006c sprintf
0000fa04 g     F .text	00000038 alt_up_character_lcd_cursor_off
00014d2c g     O .rodata	00000100 .hidden __clz_tab
00018e04 g     O .bss	00000004 _PathLocale
0000fdfc g     F .text	00000064 alt_up_ps2_write_data_byte_with_ack
00012f68 g     F .text	00000014 atexit
000141a4 g     F .text	00000060 _write_r
00005430 g     F .text	00000018 setlocale
00016e94 g     O .rwdata	00000004 _impure_ptr
00018e24 g     O .bss	00000004 alt_argc
000136dc g     F .text	0000021c __sflush_r
00011aac g     F .text	00000060 _do_dtors
0000541c g     F .text	00000008 __locale_cjk_lang
00000020 g       .exceptions	00000000 alt_irq_entry
000069b0 g     F .text	00000064 __ulp
00013d0c g     F .text	00000018 __fp_unlock_all
00016eac g     O .rwdata	00000008 alt_fs_list
00010124 g     F .text	0000005c alt_up_rs232_enable_read_interrupt
0000d760 g     F .text	00000050 alt_write_flash_command_32bit_device_8bit_mode
000102a0 g     F .text	00000040 alt_up_rs232_write_data
00000020 g       *ABS*	00000000 __ram_exceptions_start
00005448 g     F .text	0000000c localeconv
00016ed4 g       *ABS*	00000000 _edata
00016e70 g     O .rwdata	00000004 interval_timer_ptr
00018f70 g       *ABS*	00000000 _end
00011b9c g     F .text	00000068 alt_flash_open_dev
00000248 g       *ABS*	00000000 __ram_exceptions_end
0000ef60 g     F .text	000000f0 altera_avalon_jtag_uart_ioctl
000140c4 g     F .text	0000007c __swrite
00016ea0 g     O .rwdata	00000004 __malloc_trim_threshold
000005bc g     F .text	000000a0 send_time_to_lcd_1602
00005410 g     F .text	0000000c __locale_msgcharset
00012f7c g     F .text	00000038 exit
00013de8 g     F .text	000000c4 _fwalk_reent
0000fb9c g     F .text	000000c8 alt_up_ps2_init
000067b4 g     F .text	000001fc __mdiff
00011c04 g     F .text	00000054 alt_flash_close_dev
00001724 g     F .text	00000074 .hidden __modsi3
08000000 g       *ABS*	00000000 __alt_data_end
00000020 g     F .exceptions	00000000 alt_exception
00013ce8 g     F .text	00000004 __sfp_lock_release
00000000 g       *ABS*	00000000 __alt_mem_sdram
0000f724 g     F .text	00000078 alt_up_character_lcd_string
0000065c g     F .text	000000c0 MTL_box
00000f1c g     F .text	00000234 draw_clock
000144cc g     F .text	00000034 _exit
00011648 g     F .text	0000012c alt_alarm_start
00013eac g     F .text	000001bc __smakebuf_r
0000d90c g     F .text	00000034 alt_write_native_32bit
0000fd94 g     F .text	00000068 alt_up_ps2_wait_for_ack
0000702c g     F .text	00000098 strlen
00011ecc g     F .text	00000154 open
0000ae7c g     F .text	000000dc .hidden __gedf2
0000c824 g     F .text	0000003c alt_putchar
0000d0bc g     F .text	0000008c alt_flash_cfi_get_info
00011c58 g     F .text	00000034 alt_icache_flush_all
0000f7ec g     F .text	00000074 alt_up_character_lcd_set_cursor_pos
00016ea4 g     O .rwdata	00000004 alt_priority_mask
0000ffc4 g     F .text	0000008c alt_up_ps2_read_fd
00016e8c g     O .rwdata	00000004 digit_color_8b
0000b764 g     F .text	000008fc .hidden __subdf3
000061e8 g     F .text	000000b0 __lo0bits
00016ecc g     O .rwdata	00000008 alt_alarm_list
00011a4c g     F .text	00000060 _do_ctors
00000ab8 g     F .text	00000278 draw_clock_digit
000101e0 g     F .text	00000040 alt_up_rs232_get_used_space_in_read_FIFO
000117b0 g     F .text	000000d0 close
0001224c g     F .text	00000068 alt_program_amd
0000c4b0 g     F .text	00000084 alt_load
00013cec g     F .text	00000004 __sinit_lock_acquire
00005f5c g     F .text	00000120 __multadd
00005f34 g     F .text	00000028 _Bfree



Disassembly of section .entry:

00000000 <__reset>:
#if NIOS2_ICACHE_SIZE > 0 && defined(ALT_ALLOW_CODE_AT_RESET) && (!defined(ALT_SIM_OPTIMIZE) || defined(NIOS2_ECC_PRESENT))
    /* Assume the instruction cache size is always a power of two. */
#if NIOS2_ICACHE_SIZE > 0x8000
    movhi r2, %hi(NIOS2_ICACHE_SIZE)
#else
    movui r2, NIOS2_ICACHE_SIZE
   0:	00840014 	movui	r2,4096
#endif

0:
    initi r2
   4:	1001483a 	initi	r2
    addi r2, r2, -NIOS2_ICACHE_LINE_SIZE
   8:	10bff804 	addi	r2,r2,-32
    bgt r2, zero, 0b
   c:	00bffd16 	blt	zero,r2,4 <__alt_mem_onchip_memory+0xf7800004>
 * Jump to the _start entry point in the .text section if reset code
 * is allowed or if optimizing for RTL simulation.
 */
#if defined(ALT_ALLOW_CODE_AT_RESET) || defined(ALT_SIM_OPTIMIZE)
    /* Jump to the _start entry point in the .text section. */
    movhi r1, %hi(_start)
  10:	00400034 	movhi	at,0
    ori r1, r1, %lo(_start)
  14:	08409214 	ori	at,at,584
    jmp r1
  18:	0800683a 	jmp	at
  1c:	00000000 	call	0 <__reset>

Disassembly of section .exceptions:

00000020 <alt_exception>:

#else /* ALT_EXCEPTION_STACK disabled */
        /* 
         * Reserve space on normal stack for registers about to be pushed.
         */
        addi  sp, sp, -76
  20:	deffed04 	addi	sp,sp,-76
         * documentation for details).
         *
         * Leave a gap in the stack frame at 4(sp) for the muldiv handler to
         * store zero into.
         */
        stw   ra,  0(sp)
  24:	dfc00015 	stw	ra,0(sp)
        stw   r1,   8(sp)
  28:	d8400215 	stw	at,8(sp)
        stw   r2,  12(sp)
  2c:	d8800315 	stw	r2,12(sp)
        stw   r3,  16(sp)
  30:	d8c00415 	stw	r3,16(sp)
        stw   r4,  20(sp)
  34:	d9000515 	stw	r4,20(sp)
        stw   r5,  24(sp)
  38:	d9400615 	stw	r5,24(sp)
        stw   r6,  28(sp)
  3c:	d9800715 	stw	r6,28(sp)
        stw   r7,  32(sp)
  40:	d9c00815 	stw	r7,32(sp)
        rdctl r5, estatus   /* Read early to avoid usage stall */
  44:	000b307a 	rdctl	r5,estatus
        stw   r8,  36(sp)
  48:	da000915 	stw	r8,36(sp)
        stw   r9,  40(sp)
  4c:	da400a15 	stw	r9,40(sp)
        stw   r10, 44(sp)
  50:	da800b15 	stw	r10,44(sp)
        stw   r11, 48(sp)
  54:	dac00c15 	stw	r11,48(sp)
        stw   r12, 52(sp)
  58:	db000d15 	stw	r12,52(sp)
        stw   r13, 56(sp)
  5c:	db400e15 	stw	r13,56(sp)
        stw   r14, 60(sp)
  60:	db800f15 	stw	r14,60(sp)
        stw   r15, 64(sp)
  64:	dbc01015 	stw	r15,64(sp)
        /*
         * ea-4 contains the address of the instruction being executed
         * when the exception occured. For interrupt exceptions, we will
         * will be re-issue the isntruction. Store it in 72(sp)
         */
        stw   r5,  68(sp)  /* estatus */
  68:	d9401115 	stw	r5,68(sp)
        addi  r15, ea, -4  /* instruction that caused exception */
  6c:	ebffff04 	addi	r15,ea,-4
        stw   r15,  72(sp)
  70:	dbc01215 	stw	r15,72(sp)
#else
        /*
         * Test to see if the exception was a software exception or caused 
         * by an external interrupt, and vector accordingly.
         */
        rdctl r4, ipending
  74:	0009313a 	rdctl	r4,ipending
        andi  r2, r5, 1
  78:	2880004c 	andi	r2,r5,1
        beq   r2, zero, .Lnot_irq
  7c:	10000326 	beq	r2,zero,8c <alt_exception+0x6c>
        beq   r4, zero, .Lnot_irq
  80:	20000226 	beq	r4,zero,8c <alt_exception+0x6c>
        /*
         * Now that all necessary registers have been preserved, call 
         * alt_irq_handler() to process the interrupts.
         */

        call alt_irq_handler
  84:	00000fc0 	call	fc <alt_irq_handler>

        .section .exceptions.irqreturn, "xa"

        br    .Lexception_exit
  88:	00000706 	br	a8 <alt_exception+0x88>
         * upon completion, so we write ea (address of instruction *after*
         * the one where the exception occured) into 72(sp). The actual
         * instruction that caused the exception is written in r2, which these
         * handlers will utilize.
         */
        stw ea, 72(sp) /* EA is PC+4 so will skip over instruction causing exception */
  8c:	df401215 	stw	ea,72(sp)
.Lunknown_16bit:
        addi.n r4, r4, 2 /* Need PC+2 to skip over instruction causing exception */
        stw r4, 72(sp)

#else /* CDX is not Enabled and all instructions are 32bits */
        ldw r2, -4(ea) /* Instruction value that caused exception */
  90:	e8bfff17 	ldw	r2,-4(ea)
         * debugger is present) or go into an infinite loop since the
         * handling behavior is undefined; in that case we will not return here.
         */

        /* Load exception-causing address as first argument (r4) */
        addi   r4, ea, -4
  94:	e93fff04 	addi	r4,ea,-4

        /* Call the instruction-exception entry */
        call   alt_instruction_exception_entry
  98:	00001d40 	call	1d4 <alt_instruction_exception_entry>
         * instruction
         *
         * Return code was 0: Skip. The instruction after the exception is
         * already stored in 72(sp).
         */
        bne   r2, r0, .Lexception_exit
  9c:	1000021e 	bne	r2,zero,a8 <alt_exception+0x88>

        /*
         * Otherwise, modify 72(sp) to re-issue the instruction that caused the
         * exception.
         */
        addi  r15, ea, -4  /* instruction that caused exception */
  a0:	ebffff04 	addi	r15,ea,-4
        stw   r15,  72(sp)
  a4:	dbc01215 	stw	r15,72(sp)
        /* 
         * Restore the saved registers, so that all general purpose registers 
         * have been restored to their state at the time the interrupt occured.
         */

        ldw   r5,  68(sp)
  a8:	d9401117 	ldw	r5,68(sp)
        ldw   ea,  72(sp)  /* This becomes the PC once eret is executed */
  ac:	df401217 	ldw	ea,72(sp)
        ldw   ra,   0(sp)
  b0:	dfc00017 	ldw	ra,0(sp)

        wrctl estatus, r5
  b4:	2801707a 	wrctl	estatus,r5

        ldw   r1,   8(sp)
  b8:	d8400217 	ldw	at,8(sp)
        ldw   r2,  12(sp)
  bc:	d8800317 	ldw	r2,12(sp)
        ldw   r3,  16(sp)
  c0:	d8c00417 	ldw	r3,16(sp)
        ldw   r4,  20(sp)
  c4:	d9000517 	ldw	r4,20(sp)
        ldw   r5,  24(sp)
  c8:	d9400617 	ldw	r5,24(sp)
        ldw   r6,  28(sp)
  cc:	d9800717 	ldw	r6,28(sp)
        ldw   r7,  32(sp)
  d0:	d9c00817 	ldw	r7,32(sp)

#if defined(ALT_EXCEPTION_STACK) && defined(ALT_STACK_CHECK)
        ldw   et, %gprel(alt_exception_old_stack_limit)(gp)
#endif

        ldw   r8,  36(sp)
  d4:	da000917 	ldw	r8,36(sp)
        ldw   r9,  40(sp)
  d8:	da400a17 	ldw	r9,40(sp)
        ldw   r10, 44(sp)
  dc:	da800b17 	ldw	r10,44(sp)
        ldw   r11, 48(sp)
  e0:	dac00c17 	ldw	r11,48(sp)
        ldw   r12, 52(sp)
  e4:	db000d17 	ldw	r12,52(sp)
        ldw   r13, 56(sp)
  e8:	db400e17 	ldw	r13,56(sp)
        ldw   r14, 60(sp)
  ec:	db800f17 	ldw	r14,60(sp)
        ldw   r15, 64(sp)
  f0:	dbc01017 	ldw	r15,64(sp)
        stw   et, %gprel(alt_stack_limit_value)(gp)
        stw   zero, %gprel(alt_exception_old_stack_limit)(gp)
#endif /* ALT_STACK_CHECK */
        ldw   sp,  76(sp)
#else /* ALT_EXCEPTION_STACK disabled */
        addi  sp, sp, 76
  f4:	dec01304 	addi	sp,sp,76

        /*
         * Return to the interrupted instruction.
         */

        eret
  f8:	ef80083a 	eret

000000fc <alt_irq_handler>:
 * instruction is present if the macro ALT_CI_INTERRUPT_VECTOR defined.
 */

void alt_irq_handler (void) __attribute__ ((section (".exceptions")));
void alt_irq_handler (void)
{
  fc:	defff904 	addi	sp,sp,-28
 100:	dfc00615 	stw	ra,24(sp)
 104:	df000515 	stw	fp,20(sp)
 108:	df000504 	addi	fp,sp,20
  
  /*
   * Notify the operating system that we are at interrupt level.
   */ 
  
  ALT_OS_INT_ENTER();
 10c:	0001883a 	nop
#ifndef NIOS2_EIC_PRESENT
static ALT_INLINE alt_u32 ALT_ALWAYS_INLINE alt_irq_pending (void)
{
  alt_u32 active;

  NIOS2_READ_IPENDING (active);
 110:	0005313a 	rdctl	r2,ipending
 114:	e0bffe15 	stw	r2,-8(fp)

  return active;
 118:	e0bffe17 	ldw	r2,-8(fp)
   * Consider the case where the high priority interupt is asserted during
   * the interrupt entry sequence for a lower priority interrupt to see why
   * this is the case.
   */

  active = alt_irq_pending ();
 11c:	e0bffb15 	stw	r2,-20(fp)

  do
  {
    i = 0;
 120:	e03ffd15 	stw	zero,-12(fp)
    mask = 1;
 124:	00800044 	movi	r2,1
 128:	e0bffc15 	stw	r2,-16(fp)
     * called to clear the interrupt condition.
     */

    do
    {
      if (active & mask)
 12c:	e0fffb17 	ldw	r3,-20(fp)
 130:	e0bffc17 	ldw	r2,-16(fp)
 134:	1884703a 	and	r2,r3,r2
 138:	10001526 	beq	r2,zero,190 <alt_irq_handler+0x94>
      { 
#ifdef ALT_ENHANCED_INTERRUPT_API_PRESENT
        alt_irq[i].handler(alt_irq[i].context); 
#else
        alt_irq[i].handler(alt_irq[i].context, i); 
 13c:	008000b4 	movhi	r2,2
 140:	10a39c04 	addi	r2,r2,-29072
 144:	e0fffd17 	ldw	r3,-12(fp)
 148:	180690fa 	slli	r3,r3,3
 14c:	10c5883a 	add	r2,r2,r3
 150:	10c00017 	ldw	r3,0(r2)
 154:	008000b4 	movhi	r2,2
 158:	10a39c04 	addi	r2,r2,-29072
 15c:	e13ffd17 	ldw	r4,-12(fp)
 160:	200890fa 	slli	r4,r4,3
 164:	1105883a 	add	r2,r2,r4
 168:	10800104 	addi	r2,r2,4
 16c:	10800017 	ldw	r2,0(r2)
 170:	e17ffd17 	ldw	r5,-12(fp)
 174:	1009883a 	mov	r4,r2
 178:	183ee83a 	callr	r3
#endif
        break;
 17c:	0001883a 	nop
#ifndef NIOS2_EIC_PRESENT
static ALT_INLINE alt_u32 ALT_ALWAYS_INLINE alt_irq_pending (void)
{
  alt_u32 active;

  NIOS2_READ_IPENDING (active);
 180:	0005313a 	rdctl	r2,ipending
 184:	e0bfff15 	stw	r2,-4(fp)

  return active;
 188:	e0bfff17 	ldw	r2,-4(fp)
 18c:	00000706 	br	1ac <alt_irq_handler+0xb0>
      }
      mask <<= 1;
 190:	e0bffc17 	ldw	r2,-16(fp)
 194:	1085883a 	add	r2,r2,r2
 198:	e0bffc15 	stw	r2,-16(fp)
      i++;
 19c:	e0bffd17 	ldw	r2,-12(fp)
 1a0:	10800044 	addi	r2,r2,1
 1a4:	e0bffd15 	stw	r2,-12(fp)

    } while (1);
 1a8:	003fe006 	br	12c <__alt_mem_onchip_memory+0xf780012c>

    active = alt_irq_pending ();
 1ac:	e0bffb15 	stw	r2,-20(fp)
    
  } while (active);
 1b0:	e0bffb17 	ldw	r2,-20(fp)
 1b4:	103fda1e 	bne	r2,zero,120 <__alt_mem_onchip_memory+0xf7800120>

  /*
   * Notify the operating system that interrupt processing is complete.
   */ 

  ALT_OS_INT_EXIT();
 1b8:	0001883a 	nop
}
 1bc:	0001883a 	nop
 1c0:	e037883a 	mov	sp,fp
 1c4:	dfc00117 	ldw	ra,4(sp)
 1c8:	df000017 	ldw	fp,0(sp)
 1cc:	dec00204 	addi	sp,sp,8
 1d0:	f800283a 	ret

000001d4 <alt_instruction_exception_entry>:
 * that handler if it has been registered. Absent a handler, it will
 * break break or hang as discussed below.
 */
int 
alt_instruction_exception_entry (alt_u32 exception_pc)
{
 1d4:	defffb04 	addi	sp,sp,-20
 1d8:	dfc00415 	stw	ra,16(sp)
 1dc:	df000315 	stw	fp,12(sp)
 1e0:	df000304 	addi	fp,sp,12
 1e4:	e13fff15 	stw	r4,-4(fp)
 * NIOS2_EXCEPTION_CAUSE_NOT_PRESENT. Your handling routine should
 * check the validity of the cause argument before proceeding.
 */
#ifdef NIOS2_HAS_EXTRA_EXCEPTION_INFO
  /* Get exception cause & "badaddr" */
  NIOS2_READ_EXCEPTION(cause);
 1e8:	000531fa 	rdctl	r2,exception
 1ec:	e0bffd15 	stw	r2,-12(fp)
  cause = ( (cause & NIOS2_EXCEPTION_REG_CAUSE_MASK) >>
 1f0:	e0bffd17 	ldw	r2,-12(fp)
 1f4:	10801f0c 	andi	r2,r2,124
 1f8:	1004d0ba 	srli	r2,r2,2
 1fc:	e0bffd15 	stw	r2,-12(fp)
              NIOS2_EXCEPTION_REG_CAUSE_OFST );

  NIOS2_READ_BADADDR(badaddr);
 200:	0005333a 	rdctl	r2,badaddr
 204:	e0bffe15 	stw	r2,-8(fp)
#else
  cause = NIOS2_EXCEPTION_CAUSE_NOT_PRESENT;
  badaddr = 0;
#endif /* NIOS2_HAS_EXTRA_EXCEPTION_INFO */

  if(alt_instruction_exception_handler) {
 208:	d0a7f217 	ldw	r2,-24632(gp)
 20c:	10000726 	beq	r2,zero,22c <alt_instruction_exception_entry+0x58>
     * Call handler. Its return value indicates whether the exception-causing
     * instruction should be re-issued. The code that called us,
     * alt_eceptions_entry.S, will look at this value and adjust the ea
     * register as necessary
     */
    return alt_instruction_exception_handler(cause, exception_pc, badaddr);
 210:	d0a7f217 	ldw	r2,-24632(gp)
 214:	e0fffd17 	ldw	r3,-12(fp)
 218:	e1bffe17 	ldw	r6,-8(fp)
 21c:	e17fff17 	ldw	r5,-4(fp)
 220:	1809883a 	mov	r4,r3
 224:	103ee83a 	callr	r2
 228:	00000206 	br	234 <alt_instruction_exception_entry+0x60>
   *    (a peripheral which negates its interrupt output before its
   *    interrupt handler has been executed will cause spurious interrupts)
   */
  else {
#ifdef NIOS2_HAS_DEBUG_STUB
    NIOS2_BREAK();
 22c:	003da03a 	break	0
      ;
#endif /* NIOS2_HAS_DEBUG_STUB */
  }

  /* We should not get here. Remove compiler warning. */
  return NIOS2_EXCEPTION_RETURN_REISSUE_INST;
 230:	0005883a 	mov	r2,zero
}
 234:	e037883a 	mov	sp,fp
 238:	dfc00117 	ldw	ra,4(sp)
 23c:	df000017 	ldw	fp,0(sp)
 240:	dec00204 	addi	sp,sp,8
 244:	f800283a 	ret

Disassembly of section .text:

00000248 <_start>:

    /* Assume the data cache size is always a power of two. */
#if NIOS2_DCACHE_SIZE > 0x8000
    movhi r2, %hi(NIOS2_DCACHE_SIZE)
#else
    movui r2, NIOS2_DCACHE_SIZE
     248:	00820014 	movui	r2,2048
#endif

0:
    initd 0(r2)
     24c:	10000033 	initd	0(r2)
#ifdef NIOS2_ECC_PRESENT
    addi r2, r2, -4
#else
    addi r2, r2, -NIOS2_DCACHE_LINE_SIZE
     250:	10bff804 	addi	r2,r2,-32
#endif
    bgt r2, zero, 0b
     254:	00bffd16 	blt	zero,r2,24c <__alt_mem_onchip_memory+0xf780024c>

    /*
     * Now that the caches are initialized, set up the stack pointer and global pointer.
     * The values provided by the linker are assumed to be correctly aligned.
     */
    movhi sp, %hi(__alt_stack_pointer)
     258:	06c20034 	movhi	sp,2048
    ori sp, sp, %lo(__alt_stack_pointer)
     25c:	dec00014 	ori	sp,sp,0
    movhi gp, %hi(_gp)
     260:	06800074 	movhi	gp,1
    ori gp, gp, %lo(_gp)
     264:	d6bb9c14 	ori	gp,gp,61040
 */
#ifndef ALT_SIM_OPTIMIZE
    /* Log that the BSS is about to be cleared. */
    ALT_LOG_PUTS(alt_log_msg_bss)

    movhi r2, %hi(__bss_start)
     268:	00800074 	movhi	r2,1
    ori r2, r2, %lo(__bss_start)
     26c:	10a37e14 	ori	r2,r2,36344

    movhi r3, %hi(__bss_end)
     270:	00c00074 	movhi	r3,1
    ori r3, r3, %lo(__bss_end)
     274:	18e3dc14 	ori	r3,r3,36720

    beq r2, r3, 1f
     278:	10c00326 	beq	r2,r3,288 <_start+0x40>

0:
    stw zero, (r2)
     27c:	10000015 	stw	zero,0(r2)
    addi r2, r2, 4
     280:	10800104 	addi	r2,r2,4
    bltu r2, r3, 0b
     284:	10fffd36 	bltu	r2,r3,27c <__alt_mem_onchip_memory+0xf780027c>
     * section aren't defined until alt_load() has been called).
     */
    mov   et, zero
#endif

    call alt_load
     288:	000c4b00 	call	c4b0 <alt_load>

    /* Log that alt_main is about to be called. */
    ALT_LOG_PUTS(alt_log_msg_alt_main)

    /* Call the C entry point. It should never return. */
    call alt_main
     28c:	000c5340 	call	c534 <alt_main>

00000290 <alt_after_alt_main>:

    /* Wait in infinite loop in case alt_main does return. */
alt_after_alt_main:
    br alt_after_alt_main
     290:	003fff06 	br	290 <__alt_mem_onchip_memory+0xf7800290>

00000294 <seconds_to_time_t>:


/* Convierte el tiempo en segundos a la estructura time_t
 */
void seconds_to_time_t(int seconds, struct time_t* time)
{
     294:	defffb04 	addi	sp,sp,-20
     298:	dfc00415 	stw	ra,16(sp)
     29c:	df000315 	stw	fp,12(sp)
     2a0:	df000304 	addi	fp,sp,12
     2a4:	e13ffe15 	stw	r4,-8(fp)
     2a8:	e17fff15 	stw	r5,-4(fp)
	int resto;

	time->hours = seconds / 3600;
     2ac:	e0bffe17 	ldw	r2,-8(fp)
     2b0:	01438404 	movi	r5,3600
     2b4:	1009883a 	mov	r4,r2
     2b8:	00016a00 	call	16a0 <__divsi3>
     2bc:	1007883a 	mov	r3,r2
     2c0:	e0bfff17 	ldw	r2,-4(fp)
     2c4:	10c00015 	stw	r3,0(r2)
	resto = seconds % 3600;
     2c8:	e0bffe17 	ldw	r2,-8(fp)
     2cc:	01438404 	movi	r5,3600
     2d0:	1009883a 	mov	r4,r2
     2d4:	00017240 	call	1724 <__modsi3>
     2d8:	e0bffd15 	stw	r2,-12(fp)

	time->minutes = resto / 60;
     2dc:	e0bffd17 	ldw	r2,-12(fp)
     2e0:	01400f04 	movi	r5,60
     2e4:	1009883a 	mov	r4,r2
     2e8:	00016a00 	call	16a0 <__divsi3>
     2ec:	1007883a 	mov	r3,r2
     2f0:	e0bfff17 	ldw	r2,-4(fp)
     2f4:	10c00115 	stw	r3,4(r2)
	resto = resto % 60;
     2f8:	e0bffd17 	ldw	r2,-12(fp)
     2fc:	01400f04 	movi	r5,60
     300:	1009883a 	mov	r4,r2
     304:	00017240 	call	1724 <__modsi3>
     308:	e0bffd15 	stw	r2,-12(fp)

	time->seconds = resto;
     30c:	e0bfff17 	ldw	r2,-4(fp)
     310:	e0fffd17 	ldw	r3,-12(fp)
     314:	10c00215 	stw	r3,8(r2)
}
     318:	0001883a 	nop
     31c:	e037883a 	mov	sp,fp
     320:	dfc00117 	ldw	ra,4(sp)
     324:	df000017 	ldw	fp,0(sp)
     328:	dec00204 	addi	sp,sp,8
     32c:	f800283a 	ret

00000330 <send_time_to_7seg>:

/* Realiza la conversión de la estructura time_t a siete segmentos.
 * Y lo envía por el registro correspondiente.
 */
void send_time_to_7seg(struct time_t* time)
{
     330:	defffa04 	addi	sp,sp,-24
     334:	dfc00515 	stw	ra,20(sp)
     338:	df000415 	stw	fp,16(sp)
     33c:	dc000315 	stw	r16,12(sp)
     340:	df000404 	addi	fp,sp,16
     344:	e13ffe15 	stw	r4,-8(fp)
	int pattern7_4 = 0x0000;  // Patrón en HEX7 a HEX4
     348:	e03ffc15 	stw	zero,-16(fp)
	int pattern3_1 = 0x0000;  // Patrón en HEX3 a HEX0
     34c:	e03ffd15 	stw	zero,-12(fp)

	pattern7_4 = (hex7seg[time->hours / 10] << 24) | (hex7seg[time->hours % 10] << 16) |
     350:	e0bffe17 	ldw	r2,-8(fp)
     354:	10800017 	ldw	r2,0(r2)
     358:	01400284 	movi	r5,10
     35c:	1009883a 	mov	r4,r2
     360:	00016a00 	call	16a0 <__divsi3>
     364:	1007883a 	mov	r3,r2
     368:	00800074 	movhi	r2,1
     36c:	1093ec04 	addi	r2,r2,20400
     370:	18c7883a 	add	r3,r3,r3
     374:	18c7883a 	add	r3,r3,r3
     378:	10c5883a 	add	r2,r2,r3
     37c:	10800017 	ldw	r2,0(r2)
     380:	1020963a 	slli	r16,r2,24
     384:	e0bffe17 	ldw	r2,-8(fp)
     388:	10800017 	ldw	r2,0(r2)
     38c:	01400284 	movi	r5,10
     390:	1009883a 	mov	r4,r2
     394:	00017240 	call	1724 <__modsi3>
     398:	1007883a 	mov	r3,r2
     39c:	00800074 	movhi	r2,1
     3a0:	1093ec04 	addi	r2,r2,20400
     3a4:	18c7883a 	add	r3,r3,r3
     3a8:	18c7883a 	add	r3,r3,r3
     3ac:	10c5883a 	add	r2,r2,r3
     3b0:	10800017 	ldw	r2,0(r2)
     3b4:	1004943a 	slli	r2,r2,16
     3b8:	80a0b03a 	or	r16,r16,r2
				 (hex7seg[time->minutes / 10] << 8) | (hex7seg[time->minutes % 10]);
     3bc:	e0bffe17 	ldw	r2,-8(fp)
     3c0:	10800117 	ldw	r2,4(r2)
     3c4:	01400284 	movi	r5,10
     3c8:	1009883a 	mov	r4,r2
     3cc:	00016a00 	call	16a0 <__divsi3>
     3d0:	1007883a 	mov	r3,r2
     3d4:	00800074 	movhi	r2,1
     3d8:	1093ec04 	addi	r2,r2,20400
     3dc:	18c7883a 	add	r3,r3,r3
     3e0:	18c7883a 	add	r3,r3,r3
     3e4:	10c5883a 	add	r2,r2,r3
     3e8:	10800017 	ldw	r2,0(r2)
     3ec:	1004923a 	slli	r2,r2,8
void send_time_to_7seg(struct time_t* time)
{
	int pattern7_4 = 0x0000;  // Patrón en HEX7 a HEX4
	int pattern3_1 = 0x0000;  // Patrón en HEX3 a HEX0

	pattern7_4 = (hex7seg[time->hours / 10] << 24) | (hex7seg[time->hours % 10] << 16) |
     3f0:	80a0b03a 	or	r16,r16,r2
				 (hex7seg[time->minutes / 10] << 8) | (hex7seg[time->minutes % 10]);
     3f4:	e0bffe17 	ldw	r2,-8(fp)
     3f8:	10800117 	ldw	r2,4(r2)
     3fc:	01400284 	movi	r5,10
     400:	1009883a 	mov	r4,r2
     404:	00017240 	call	1724 <__modsi3>
     408:	1007883a 	mov	r3,r2
     40c:	00800074 	movhi	r2,1
     410:	1093ec04 	addi	r2,r2,20400
     414:	18c7883a 	add	r3,r3,r3
     418:	18c7883a 	add	r3,r3,r3
     41c:	10c5883a 	add	r2,r2,r3
     420:	10800017 	ldw	r2,0(r2)
void send_time_to_7seg(struct time_t* time)
{
	int pattern7_4 = 0x0000;  // Patrón en HEX7 a HEX4
	int pattern3_1 = 0x0000;  // Patrón en HEX3 a HEX0

	pattern7_4 = (hex7seg[time->hours / 10] << 24) | (hex7seg[time->hours % 10] << 16) |
     424:	8084b03a 	or	r2,r16,r2
     428:	e0bffc15 	stw	r2,-16(fp)
				 (hex7seg[time->minutes / 10] << 8) | (hex7seg[time->minutes % 10]);
	pattern3_1 = (hex7seg[time->seconds / 10] << 24) | (hex7seg[time->seconds % 10] << 16);
     42c:	e0bffe17 	ldw	r2,-8(fp)
     430:	10800217 	ldw	r2,8(r2)
     434:	01400284 	movi	r5,10
     438:	1009883a 	mov	r4,r2
     43c:	00016a00 	call	16a0 <__divsi3>
     440:	1007883a 	mov	r3,r2
     444:	00800074 	movhi	r2,1
     448:	1093ec04 	addi	r2,r2,20400
     44c:	18c7883a 	add	r3,r3,r3
     450:	18c7883a 	add	r3,r3,r3
     454:	10c5883a 	add	r2,r2,r3
     458:	10800017 	ldw	r2,0(r2)
     45c:	1020963a 	slli	r16,r2,24
     460:	e0bffe17 	ldw	r2,-8(fp)
     464:	10800217 	ldw	r2,8(r2)
     468:	01400284 	movi	r5,10
     46c:	1009883a 	mov	r4,r2
     470:	00017240 	call	1724 <__modsi3>
     474:	1007883a 	mov	r3,r2
     478:	00800074 	movhi	r2,1
     47c:	1093ec04 	addi	r2,r2,20400
     480:	18c7883a 	add	r3,r3,r3
     484:	18c7883a 	add	r3,r3,r3
     488:	10c5883a 	add	r2,r2,r3
     48c:	10800017 	ldw	r2,0(r2)
     490:	1004943a 	slli	r2,r2,16
     494:	8084b03a 	or	r2,r16,r2
     498:	e0bffd15 	stw	r2,-12(fp)

	*(HEX3_HEX0_ptr) = pattern3_1;  // Copia del patrón en HEX3 a HEX0
     49c:	d0a00317 	ldw	r2,-32756(gp)
     4a0:	e0fffd17 	ldw	r3,-12(fp)
     4a4:	10c00015 	stw	r3,0(r2)
	*(HEX7_HEX4_ptr) = pattern7_4;  // Copia del patrón en HEX7 a HEX4
     4a8:	d0a00417 	ldw	r2,-32752(gp)
     4ac:	e0fffc17 	ldw	r3,-16(fp)
     4b0:	10c00015 	stw	r3,0(r2)
}
     4b4:	0001883a 	nop
     4b8:	e6ffff04 	addi	sp,fp,-4
     4bc:	dfc00217 	ldw	ra,8(sp)
     4c0:	df000117 	ldw	fp,4(sp)
     4c4:	dc000017 	ldw	r16,0(sp)
     4c8:	dec00304 	addi	sp,sp,12
     4cc:	f800283a 	ret

000004d0 <LCD_cursor>:


/* Rutina para mover el cursor de la LCD
 */
void LCD_cursor(int x, int y)
{
     4d0:	defffc04 	addi	sp,sp,-16
     4d4:	df000315 	stw	fp,12(sp)
     4d8:	df000304 	addi	fp,sp,12
     4dc:	e13ffe15 	stw	r4,-8(fp)
     4e0:	e17fff15 	stw	r5,-4(fp)
  	char instruction = x;
     4e4:	e0bffe17 	ldw	r2,-8(fp)
     4e8:	e0bffd05 	stb	r2,-12(fp)
	if (y != 0) instruction |= 0x40;	// set bit 6 for bottom row
     4ec:	e0bfff17 	ldw	r2,-4(fp)
     4f0:	10000326 	beq	r2,zero,500 <LCD_cursor+0x30>
     4f4:	e0bffd03 	ldbu	r2,-12(fp)
     4f8:	10801014 	ori	r2,r2,64
     4fc:	e0bffd05 	stb	r2,-12(fp)
	instruction |= 0x80;				// need to set bit 7 to set the cursor location
     500:	e0fffd03 	ldbu	r3,-12(fp)
     504:	00bfe004 	movi	r2,-128
     508:	1884b03a 	or	r2,r3,r2
     50c:	e0bffd05 	stb	r2,-12(fp)
	*(LCD_display_ptr) = instruction;	// write to the LCD instruction register
     510:	d0a00517 	ldw	r2,-32748(gp)
     514:	e0fffd03 	ldbu	r3,-12(fp)
     518:	10c00005 	stb	r3,0(r2)
}
     51c:	0001883a 	nop
     520:	e037883a 	mov	sp,fp
     524:	df000017 	ldw	fp,0(sp)
     528:	dec00104 	addi	sp,sp,4
     52c:	f800283a 	ret

00000530 <LCD_text>:


/* Rutina encargada de enviar un string a la LCD
 */
void LCD_text(char * text_ptr)
{
     530:	defffe04 	addi	sp,sp,-8
     534:	df000115 	stw	fp,4(sp)
     538:	df000104 	addi	fp,sp,4
     53c:	e13fff15 	stw	r4,-4(fp)
	while ( *(text_ptr) )
     540:	00000806 	br	564 <LCD_text+0x34>
	{
		*(LCD_display_ptr + 1) = *(text_ptr);	// write to the LCD data register
     544:	d0a00517 	ldw	r2,-32748(gp)
     548:	10800044 	addi	r2,r2,1
     54c:	e0ffff17 	ldw	r3,-4(fp)
     550:	18c00003 	ldbu	r3,0(r3)
     554:	10c00005 	stb	r3,0(r2)
		++text_ptr;
     558:	e0bfff17 	ldw	r2,-4(fp)
     55c:	10800044 	addi	r2,r2,1
     560:	e0bfff15 	stw	r2,-4(fp)

/* Rutina encargada de enviar un string a la LCD
 */
void LCD_text(char * text_ptr)
{
	while ( *(text_ptr) )
     564:	e0bfff17 	ldw	r2,-4(fp)
     568:	10800003 	ldbu	r2,0(r2)
     56c:	10803fcc 	andi	r2,r2,255
     570:	1080201c 	xori	r2,r2,128
     574:	10bfe004 	addi	r2,r2,-128
     578:	103ff21e 	bne	r2,zero,544 <__alt_mem_onchip_memory+0xf7800544>
	{
		*(LCD_display_ptr + 1) = *(text_ptr);	// write to the LCD data register
		++text_ptr;
	}
}
     57c:	0001883a 	nop
     580:	e037883a 	mov	sp,fp
     584:	df000017 	ldw	fp,0(sp)
     588:	dec00104 	addi	sp,sp,4
     58c:	f800283a 	ret

00000590 <LCD_cursor_off>:


/* Rutina para apagar el cursor de la LCD
 */
void LCD_cursor_off(void)
{
     590:	deffff04 	addi	sp,sp,-4
     594:	df000015 	stw	fp,0(sp)
     598:	d839883a 	mov	fp,sp
  	*(LCD_display_ptr) = 0x0C;	// turn off the LCD cursor
     59c:	d0a00517 	ldw	r2,-32748(gp)
     5a0:	00c00304 	movi	r3,12
     5a4:	10c00005 	stb	r3,0(r2)
}
     5a8:	0001883a 	nop
     5ac:	e037883a 	mov	sp,fp
     5b0:	df000017 	ldw	fp,0(sp)
     5b4:	dec00104 	addi	sp,sp,4
     5b8:	f800283a 	ret

000005bc <send_time_to_lcd_1602>:


/* Escribe la hora en la primera línea del LCD de 16x2 caracteres
 */
void send_time_to_lcd_1602(struct time_t* time)
{
     5bc:	defff204 	addi	sp,sp,-56
     5c0:	dfc00d15 	stw	ra,52(sp)
     5c4:	df000c15 	stw	fp,48(sp)
     5c8:	df000c04 	addi	fp,sp,48
     5cc:	e13fff15 	stw	r4,-4(fp)
	char reloj_txt[40] = "";
     5d0:	e03ff515 	stw	zero,-44(fp)
     5d4:	e03ff615 	stw	zero,-40(fp)
     5d8:	e03ff715 	stw	zero,-36(fp)
     5dc:	e03ff815 	stw	zero,-32(fp)
     5e0:	e03ff915 	stw	zero,-28(fp)
     5e4:	e03ffa15 	stw	zero,-24(fp)
     5e8:	e03ffb15 	stw	zero,-20(fp)
     5ec:	e03ffc15 	stw	zero,-16(fp)
     5f0:	e03ffd15 	stw	zero,-12(fp)
     5f4:	e03ffe15 	stw	zero,-8(fp)

	sprintf(reloj_txt, "    %02d:%02d:%02d    ", time->hours, time->minutes, time->seconds);
     5f8:	e0bfff17 	ldw	r2,-4(fp)
     5fc:	10c00017 	ldw	r3,0(r2)
     600:	e0bfff17 	ldw	r2,-4(fp)
     604:	11000117 	ldw	r4,4(r2)
     608:	e0bfff17 	ldw	r2,-4(fp)
     60c:	10800217 	ldw	r2,8(r2)
     610:	d8800015 	stw	r2,0(sp)
     614:	200f883a 	mov	r7,r4
     618:	180d883a 	mov	r6,r3
     61c:	01400074 	movhi	r5,1
     620:	29529204 	addi	r5,r5,19016
     624:	e13ff504 	addi	r4,fp,-44
     628:	00018ac0 	call	18ac <sprintf>

	LCD_cursor(0,0);			// set LCD cursor location to top row
     62c:	000b883a 	mov	r5,zero
     630:	0009883a 	mov	r4,zero
     634:	00004d00 	call	4d0 <LCD_cursor>
	LCD_text(reloj_txt);
     638:	e13ff504 	addi	r4,fp,-44
     63c:	00005300 	call	530 <LCD_text>
	LCD_cursor_off();			// turn off the LCD cursor
     640:	00005900 	call	590 <LCD_cursor_off>
}
     644:	0001883a 	nop
     648:	e037883a 	mov	sp,fp
     64c:	dfc00117 	ldw	ra,4(sp)
     650:	df000017 	ldw	fp,0(sp)
     654:	dec00204 	addi	sp,sp,8
     658:	f800283a 	ret

0000065c <MTL_box>:


void MTL_box(int x1, int y1, int x2, int y2, short pixel_color)
{
     65c:	defff504 	addi	sp,sp,-44
     660:	df000a15 	stw	fp,40(sp)
     664:	df000a04 	addi	fp,sp,40
     668:	e13ffb15 	stw	r4,-20(fp)
     66c:	e17ffc15 	stw	r5,-16(fp)
     670:	e1bffd15 	stw	r6,-12(fp)
     674:	e1fffe15 	stw	r7,-8(fp)
     678:	e0800117 	ldw	r2,4(fp)
     67c:	e0bfff0d 	sth	r2,-4(fp)
	int offset, row, col;
	int SRAM_BASE_SIN_CACHE = (SRAM_BASE + 0x080000000);  //Activando el bit más significativo se elude la cache de datos
     680:	00a24034 	movhi	r2,35072
     684:	e0bff815 	stw	r2,-32(fp)
  	volatile short * pixel_buffer = (short *) SRAM_BASE_SIN_CACHE;	// MTL pixel buffer
     688:	e0bff817 	ldw	r2,-32(fp)
     68c:	e0bff915 	stw	r2,-28(fp)

  	/* se asume que las coordenadas del rectangulo son correctas */
	for (row = y1; row <= y2; row++)
     690:	e0bffc17 	ldw	r2,-16(fp)
     694:	e0bff615 	stw	r2,-40(fp)
     698:	00001806 	br	6fc <MTL_box+0xa0>
	{
		col = x1;
     69c:	e0bffb17 	ldw	r2,-20(fp)
     6a0:	e0bff715 	stw	r2,-36(fp)
		while (col <= x2)
     6a4:	00000f06 	br	6e4 <MTL_box+0x88>
		{
			offset = (row << 9) + col;
     6a8:	e0bff617 	ldw	r2,-40(fp)
     6ac:	1006927a 	slli	r3,r2,9
     6b0:	e0bff717 	ldw	r2,-36(fp)
     6b4:	1885883a 	add	r2,r3,r2
     6b8:	e0bffa15 	stw	r2,-24(fp)
			*(pixel_buffer + offset) = pixel_color;	//procesa mitad direcciones
     6bc:	e0bffa17 	ldw	r2,-24(fp)
     6c0:	1085883a 	add	r2,r2,r2
     6c4:	1007883a 	mov	r3,r2
     6c8:	e0bff917 	ldw	r2,-28(fp)
     6cc:	10c5883a 	add	r2,r2,r3
     6d0:	e0ffff0b 	ldhu	r3,-4(fp)
     6d4:	10c0000d 	sth	r3,0(r2)
			++col;
     6d8:	e0bff717 	ldw	r2,-36(fp)
     6dc:	10800044 	addi	r2,r2,1
     6e0:	e0bff715 	stw	r2,-36(fp)

  	/* se asume que las coordenadas del rectangulo son correctas */
	for (row = y1; row <= y2; row++)
	{
		col = x1;
		while (col <= x2)
     6e4:	e0bff717 	ldw	r2,-36(fp)
     6e8:	e0fffd17 	ldw	r3,-12(fp)
     6ec:	18bfee0e 	bge	r3,r2,6a8 <__alt_mem_onchip_memory+0xf78006a8>
	int offset, row, col;
	int SRAM_BASE_SIN_CACHE = (SRAM_BASE + 0x080000000);  //Activando el bit más significativo se elude la cache de datos
  	volatile short * pixel_buffer = (short *) SRAM_BASE_SIN_CACHE;	// MTL pixel buffer

  	/* se asume que las coordenadas del rectangulo son correctas */
	for (row = y1; row <= y2; row++)
     6f0:	e0bff617 	ldw	r2,-40(fp)
     6f4:	10800044 	addi	r2,r2,1
     6f8:	e0bff615 	stw	r2,-40(fp)
     6fc:	e0bff617 	ldw	r2,-40(fp)
     700:	e0fffe17 	ldw	r3,-8(fp)
     704:	18bfe50e 	bge	r3,r2,69c <__alt_mem_onchip_memory+0xf780069c>
			offset = (row << 9) + col;
			*(pixel_buffer + offset) = pixel_color;	//procesa mitad direcciones
			++col;
		}
	}
}
     708:	0001883a 	nop
     70c:	e037883a 	mov	sp,fp
     710:	df000017 	ldw	fp,0(sp)
     714:	dec00104 	addi	sp,sp,4
     718:	f800283a 	ret

0000071c <MTL_fill_screen>:


void MTL_fill_screen(int color) {
     71c:	defffc04 	addi	sp,sp,-16
     720:	dfc00315 	stw	ra,12(sp)
     724:	df000215 	stw	fp,8(sp)
     728:	df000204 	addi	fp,sp,8
     72c:	e13fff15 	stw	r4,-4(fp)
	MTL_box(0, 0, 399, 239,	color);
     730:	e0bfff17 	ldw	r2,-4(fp)
     734:	10bfffcc 	andi	r2,r2,65535
     738:	10a0001c 	xori	r2,r2,32768
     73c:	10a00004 	addi	r2,r2,-32768
     740:	d8800015 	stw	r2,0(sp)
     744:	01c03bc4 	movi	r7,239
     748:	018063c4 	movi	r6,399
     74c:	000b883a 	mov	r5,zero
     750:	0009883a 	mov	r4,zero
     754:	000065c0 	call	65c <MTL_box>
}
     758:	0001883a 	nop
     75c:	e037883a 	mov	sp,fp
     760:	dfc00117 	ldw	ra,4(sp)
     764:	df000017 	ldw	fp,0(sp)
     768:	dec00204 	addi	sp,sp,8
     76c:	f800283a 	ret

00000770 <draw_clock_dots_dma>:


/* Dibuja los dos puntos en la coordenada seleccionada
 */
void draw_clock_dots_dma(int x, int y)
{
     770:	defffd04 	addi	sp,sp,-12
     774:	df000215 	stw	fp,8(sp)
     778:	df000204 	addi	fp,sp,8
     77c:	e13ffe15 	stw	r4,-8(fp)
     780:	e17fff15 	stw	r5,-4(fp)

}
     784:	0001883a 	nop
     788:	e037883a 	mov	sp,fp
     78c:	df000017 	ldw	fp,0(sp)
     790:	dec00104 	addi	sp,sp,4
     794:	f800283a 	ret

00000798 <draw_clock_dots>:


/* Dibuja los dos puntos en la coordenada seleccionada
 */
void draw_clock_dots(int x, int y)
{
     798:	defffb04 	addi	sp,sp,-20
     79c:	dfc00415 	stw	ra,16(sp)
     7a0:	df000315 	stw	fp,12(sp)
     7a4:	df000304 	addi	fp,sp,12
     7a8:	e13ffe15 	stw	r4,-8(fp)
     7ac:	e17fff15 	stw	r5,-4(fp)
	MTL_box(  // Punto superior
     7b0:	e0bffe17 	ldw	r2,-8(fp)
     7b4:	10c00204 	addi	r3,r2,8
     7b8:	e0bfff17 	ldw	r2,-4(fp)
     7bc:	11000584 	addi	r4,r2,22
     7c0:	e0bffe17 	ldw	r2,-8(fp)
     7c4:	114003c4 	addi	r5,r2,15
     7c8:	e0bfff17 	ldw	r2,-4(fp)
     7cc:	11800744 	addi	r6,r2,29
     7d0:	d0a00617 	ldw	r2,-32744(gp)
     7d4:	10bfffcc 	andi	r2,r2,65535
     7d8:	10a0001c 	xori	r2,r2,32768
     7dc:	10a00004 	addi	r2,r2,-32768
     7e0:	d8800015 	stw	r2,0(sp)
     7e4:	300f883a 	mov	r7,r6
     7e8:	280d883a 	mov	r6,r5
     7ec:	200b883a 	mov	r5,r4
     7f0:	1809883a 	mov	r4,r3
     7f4:	000065c0 	call	65c <MTL_box>
		y + CLOCK_DOTS_Y_HIGH,
		x + CLOCK_DOTS_X_PADDING + CLOCK_DOTS_SIZE,
		y + CLOCK_DOTS_Y_HIGH + CLOCK_DOTS_SIZE,
		digit_color);

	MTL_box(  // Punto inferior
     7f8:	e0bffe17 	ldw	r2,-8(fp)
     7fc:	10c00204 	addi	r3,r2,8
     800:	e0bfff17 	ldw	r2,-4(fp)
     804:	11000a84 	addi	r4,r2,42
     808:	e0bffe17 	ldw	r2,-8(fp)
     80c:	114003c4 	addi	r5,r2,15
     810:	e0bfff17 	ldw	r2,-4(fp)
     814:	11800c44 	addi	r6,r2,49
     818:	d0a00617 	ldw	r2,-32744(gp)
     81c:	10bfffcc 	andi	r2,r2,65535
     820:	10a0001c 	xori	r2,r2,32768
     824:	10a00004 	addi	r2,r2,-32768
     828:	d8800015 	stw	r2,0(sp)
     82c:	300f883a 	mov	r7,r6
     830:	280d883a 	mov	r6,r5
     834:	200b883a 	mov	r5,r4
     838:	1809883a 	mov	r4,r3
     83c:	000065c0 	call	65c <MTL_box>
		x + CLOCK_DOTS_X_PADDING,
		y + CLOCK_DOTS_Y_LOW,
		x + CLOCK_DOTS_X_PADDING + CLOCK_DOTS_SIZE,
		y + CLOCK_DOTS_Y_LOW + CLOCK_DOTS_SIZE,
		digit_color);
}
     840:	0001883a 	nop
     844:	e037883a 	mov	sp,fp
     848:	dfc00117 	ldw	ra,4(sp)
     84c:	df000017 	ldw	fp,0(sp)
     850:	dec00204 	addi	sp,sp,8
     854:	f800283a 	ret

00000858 <draw_clock_digit_dma>:
/* Dibuja el dígito de reloj dado en las coordenadas especificadas.
 * El formato de paso los dígitos es igual al de un display de 7 segmentos real
 */
void draw_clock_digit_dma(int code, int x, int y,
					  alt_up_pixel_buffer_dma_dev *pixel_buffer_dev)
{
     858:	defff704 	addi	sp,sp,-36
     85c:	dfc00815 	stw	ra,32(sp)
     860:	df000715 	stw	fp,28(sp)
     864:	df000704 	addi	fp,sp,28
     868:	e13ffc15 	stw	r4,-16(fp)
     86c:	e17ffd15 	stw	r5,-12(fp)
     870:	e1bffe15 	stw	r6,-8(fp)
     874:	e1ffff15 	stw	r7,-4(fp)
	// Formato: pixel_buffer, x0, y0, x1, y1, color, backbuffer

	/* &: operación AND lógica. Si el bit correspondiente del 7 segmentos hay que
	encenderlo, su correspondiente if será true y dibuja el segmento. */

	if (code & 0x01) {  // Si se debe encender el segmento A
     878:	e0bffc17 	ldw	r2,-16(fp)
     87c:	1080004c 	andi	r2,r2,1
     880:	10000f26 	beq	r2,zero,8c0 <draw_clock_digit_dma+0x68>
		alt_up_pixel_buffer_dma_draw_box(pixel_buffer_dev,
     884:	e0bffd17 	ldw	r2,-12(fp)
     888:	11000304 	addi	r4,r2,12
     88c:	e0bffd17 	ldw	r2,-12(fp)
     890:	11400944 	addi	r5,r2,37
     894:	e0bffe17 	ldw	r2,-8(fp)
     898:	108001c4 	addi	r2,r2,7
     89c:	d0e00617 	ldw	r3,-32744(gp)
     8a0:	d8000215 	stw	zero,8(sp)
     8a4:	d8c00115 	stw	r3,4(sp)
     8a8:	d8800015 	stw	r2,0(sp)
     8ac:	280f883a 	mov	r7,r5
     8b0:	e1bffe17 	ldw	r6,-8(fp)
     8b4:	200b883a 	mov	r5,r4
     8b8:	e13fff17 	ldw	r4,-4(fp)
     8bc:	0010b7c0 	call	10b7c <alt_up_pixel_buffer_dma_draw_box>
			y,
			x + CLOCK_SEGMENT_WIDTH + CLOCK_DIGIT_X_PADDING + CLOCK_SEGMENT_HEIGHT,
			y + CLOCK_SEGMENT_WIDTH,
			digit_color, 0);
	}
	if (code & 0x02) {  // Si se debe encender el segmento B
     8c0:	e0bffc17 	ldw	r2,-16(fp)
     8c4:	1080008c 	andi	r2,r2,2
     8c8:	10001126 	beq	r2,zero,910 <draw_clock_digit_dma+0xb8>
		alt_up_pixel_buffer_dma_draw_box(pixel_buffer_dev,
     8cc:	e0bffd17 	ldw	r2,-12(fp)
     8d0:	11000944 	addi	r4,r2,37
     8d4:	e0bffe17 	ldw	r2,-8(fp)
     8d8:	114001c4 	addi	r5,r2,7
     8dc:	e0bffd17 	ldw	r2,-12(fp)
     8e0:	11800b04 	addi	r6,r2,44
     8e4:	e0bffe17 	ldw	r2,-8(fp)
     8e8:	10800804 	addi	r2,r2,32
     8ec:	d0e00617 	ldw	r3,-32744(gp)
     8f0:	d8000215 	stw	zero,8(sp)
     8f4:	d8c00115 	stw	r3,4(sp)
     8f8:	d8800015 	stw	r2,0(sp)
     8fc:	300f883a 	mov	r7,r6
     900:	280d883a 	mov	r6,r5
     904:	200b883a 	mov	r5,r4
     908:	e13fff17 	ldw	r4,-4(fp)
     90c:	0010b7c0 	call	10b7c <alt_up_pixel_buffer_dma_draw_box>
			y + CLOCK_SEGMENT_WIDTH,
			x + 2 * CLOCK_SEGMENT_WIDTH + CLOCK_DIGIT_X_PADDING + CLOCK_SEGMENT_HEIGHT,
			y + CLOCK_SEGMENT_WIDTH + CLOCK_SEGMENT_HEIGHT,
			digit_color, 0);
	}
	if (code & 0x04) {  // Si se debe encender el segmento C
     910:	e0bffc17 	ldw	r2,-16(fp)
     914:	1080010c 	andi	r2,r2,4
     918:	10001126 	beq	r2,zero,960 <draw_clock_digit_dma+0x108>
		alt_up_pixel_buffer_dma_draw_box(pixel_buffer_dev,
     91c:	e0bffd17 	ldw	r2,-12(fp)
     920:	11000944 	addi	r4,r2,37
     924:	e0bffe17 	ldw	r2,-8(fp)
     928:	114009c4 	addi	r5,r2,39
     92c:	e0bffd17 	ldw	r2,-12(fp)
     930:	11800b04 	addi	r6,r2,44
     934:	e0bffe17 	ldw	r2,-8(fp)
     938:	10801004 	addi	r2,r2,64
     93c:	d0e00617 	ldw	r3,-32744(gp)
     940:	d8000215 	stw	zero,8(sp)
     944:	d8c00115 	stw	r3,4(sp)
     948:	d8800015 	stw	r2,0(sp)
     94c:	300f883a 	mov	r7,r6
     950:	280d883a 	mov	r6,r5
     954:	200b883a 	mov	r5,r4
     958:	e13fff17 	ldw	r4,-4(fp)
     95c:	0010b7c0 	call	10b7c <alt_up_pixel_buffer_dma_draw_box>
			y + 2 * CLOCK_SEGMENT_WIDTH + CLOCK_SEGMENT_HEIGHT,
			x + 2 * CLOCK_SEGMENT_WIDTH + CLOCK_DIGIT_X_PADDING + CLOCK_SEGMENT_HEIGHT,
			y + 2 * CLOCK_SEGMENT_WIDTH + 2 * CLOCK_SEGMENT_HEIGHT,
			digit_color, 0);
	}
	if (code & 0x08) {  // Si se debe encender el segmento D
     960:	e0bffc17 	ldw	r2,-16(fp)
     964:	1080020c 	andi	r2,r2,8
     968:	10001126 	beq	r2,zero,9b0 <draw_clock_digit_dma+0x158>
		alt_up_pixel_buffer_dma_draw_box(pixel_buffer_dev,
     96c:	e0bffd17 	ldw	r2,-12(fp)
     970:	11000304 	addi	r4,r2,12
     974:	e0bffe17 	ldw	r2,-8(fp)
     978:	11401004 	addi	r5,r2,64
     97c:	e0bffd17 	ldw	r2,-12(fp)
     980:	11800944 	addi	r6,r2,37
     984:	e0bffe17 	ldw	r2,-8(fp)
     988:	108011c4 	addi	r2,r2,71
     98c:	d0e00617 	ldw	r3,-32744(gp)
     990:	d8000215 	stw	zero,8(sp)
     994:	d8c00115 	stw	r3,4(sp)
     998:	d8800015 	stw	r2,0(sp)
     99c:	300f883a 	mov	r7,r6
     9a0:	280d883a 	mov	r6,r5
     9a4:	200b883a 	mov	r5,r4
     9a8:	e13fff17 	ldw	r4,-4(fp)
     9ac:	0010b7c0 	call	10b7c <alt_up_pixel_buffer_dma_draw_box>
			y + 2 * CLOCK_SEGMENT_HEIGHT + 2 * CLOCK_SEGMENT_WIDTH,
			x + CLOCK_SEGMENT_WIDTH + CLOCK_DIGIT_X_PADDING + CLOCK_SEGMENT_HEIGHT,
			y + 2 * CLOCK_SEGMENT_HEIGHT + 3 * CLOCK_SEGMENT_WIDTH,
			digit_color, 0);
	}
	if (code & 0x10) {  // Si se debe encender el segmento E
     9b0:	e0bffc17 	ldw	r2,-16(fp)
     9b4:	1080040c 	andi	r2,r2,16
     9b8:	10001126 	beq	r2,zero,a00 <draw_clock_digit_dma+0x1a8>
		alt_up_pixel_buffer_dma_draw_box(pixel_buffer_dev,
     9bc:	e0bffd17 	ldw	r2,-12(fp)
     9c0:	11000144 	addi	r4,r2,5
     9c4:	e0bffe17 	ldw	r2,-8(fp)
     9c8:	114009c4 	addi	r5,r2,39
     9cc:	e0bffd17 	ldw	r2,-12(fp)
     9d0:	11800304 	addi	r6,r2,12
     9d4:	e0bffe17 	ldw	r2,-8(fp)
     9d8:	10801004 	addi	r2,r2,64
     9dc:	d0e00617 	ldw	r3,-32744(gp)
     9e0:	d8000215 	stw	zero,8(sp)
     9e4:	d8c00115 	stw	r3,4(sp)
     9e8:	d8800015 	stw	r2,0(sp)
     9ec:	300f883a 	mov	r7,r6
     9f0:	280d883a 	mov	r6,r5
     9f4:	200b883a 	mov	r5,r4
     9f8:	e13fff17 	ldw	r4,-4(fp)
     9fc:	0010b7c0 	call	10b7c <alt_up_pixel_buffer_dma_draw_box>
			y + 2 * CLOCK_SEGMENT_WIDTH + CLOCK_SEGMENT_HEIGHT,
			x + CLOCK_SEGMENT_WIDTH + CLOCK_DIGIT_X_PADDING,
			y + 2 * CLOCK_SEGMENT_WIDTH + 2 * CLOCK_SEGMENT_HEIGHT,
			digit_color, 0);
	}
	if (code & 0x20) {  // Si se debe encender el segmento F
     a00:	e0bffc17 	ldw	r2,-16(fp)
     a04:	1080080c 	andi	r2,r2,32
     a08:	10001126 	beq	r2,zero,a50 <draw_clock_digit_dma+0x1f8>
		alt_up_pixel_buffer_dma_draw_box(pixel_buffer_dev,
     a0c:	e0bffd17 	ldw	r2,-12(fp)
     a10:	11000144 	addi	r4,r2,5
     a14:	e0bffe17 	ldw	r2,-8(fp)
     a18:	114001c4 	addi	r5,r2,7
     a1c:	e0bffd17 	ldw	r2,-12(fp)
     a20:	11800304 	addi	r6,r2,12
     a24:	e0bffe17 	ldw	r2,-8(fp)
     a28:	10800804 	addi	r2,r2,32
     a2c:	d0e00617 	ldw	r3,-32744(gp)
     a30:	d8000215 	stw	zero,8(sp)
     a34:	d8c00115 	stw	r3,4(sp)
     a38:	d8800015 	stw	r2,0(sp)
     a3c:	300f883a 	mov	r7,r6
     a40:	280d883a 	mov	r6,r5
     a44:	200b883a 	mov	r5,r4
     a48:	e13fff17 	ldw	r4,-4(fp)
     a4c:	0010b7c0 	call	10b7c <alt_up_pixel_buffer_dma_draw_box>
			y + CLOCK_SEGMENT_WIDTH,
			x + CLOCK_SEGMENT_WIDTH + CLOCK_DIGIT_X_PADDING,
			y + CLOCK_SEGMENT_WIDTH + CLOCK_SEGMENT_HEIGHT,
			digit_color, 0);
	}
	if (code & 0x40) {  // Si se debe encender el segmento G
     a50:	e0bffc17 	ldw	r2,-16(fp)
     a54:	1080100c 	andi	r2,r2,64
     a58:	10001126 	beq	r2,zero,aa0 <draw_clock_digit_dma+0x248>
		alt_up_pixel_buffer_dma_draw_box(pixel_buffer_dev,
     a5c:	e0bffd17 	ldw	r2,-12(fp)
     a60:	11000304 	addi	r4,r2,12
     a64:	e0bffe17 	ldw	r2,-8(fp)
     a68:	11400804 	addi	r5,r2,32
     a6c:	e0bffd17 	ldw	r2,-12(fp)
     a70:	11800944 	addi	r6,r2,37
     a74:	e0bffe17 	ldw	r2,-8(fp)
     a78:	108009c4 	addi	r2,r2,39
     a7c:	d0e00617 	ldw	r3,-32744(gp)
     a80:	d8000215 	stw	zero,8(sp)
     a84:	d8c00115 	stw	r3,4(sp)
     a88:	d8800015 	stw	r2,0(sp)
     a8c:	300f883a 	mov	r7,r6
     a90:	280d883a 	mov	r6,r5
     a94:	200b883a 	mov	r5,r4
     a98:	e13fff17 	ldw	r4,-4(fp)
     a9c:	0010b7c0 	call	10b7c <alt_up_pixel_buffer_dma_draw_box>
			y + CLOCK_SEGMENT_WIDTH + CLOCK_SEGMENT_HEIGHT,
			x + CLOCK_SEGMENT_WIDTH + CLOCK_DIGIT_X_PADDING + CLOCK_SEGMENT_HEIGHT,
			y + 2 * CLOCK_SEGMENT_WIDTH + CLOCK_SEGMENT_HEIGHT,
			digit_color, 0);
	}
}
     aa0:	0001883a 	nop
     aa4:	e037883a 	mov	sp,fp
     aa8:	dfc00117 	ldw	ra,4(sp)
     aac:	df000017 	ldw	fp,0(sp)
     ab0:	dec00204 	addi	sp,sp,8
     ab4:	f800283a 	ret

00000ab8 <draw_clock_digit>:

/* Dibuja el dígito de reloj dado en las coordenadas especificadas.
 * El formato de paso los dígitos es igual al de un display de 7 segmentos real
 */
void draw_clock_digit(int code, int x, int y)
{	
     ab8:	defffa04 	addi	sp,sp,-24
     abc:	dfc00515 	stw	ra,20(sp)
     ac0:	df000415 	stw	fp,16(sp)
     ac4:	df000404 	addi	fp,sp,16
     ac8:	e13ffd15 	stw	r4,-12(fp)
     acc:	e17ffe15 	stw	r5,-8(fp)
     ad0:	e1bfff15 	stw	r6,-4(fp)
	// Formato: pixel_buffer, x0, y0, x1, y1, color, backbuffer

	/* &: operación AND lógica. Si el bit correspondiente del 7 segmentos hay que 
	encenderlo, su correspondiente if será true y dibuja el segmento. */

	if (code & 0x01) {  // Si se debe encender el segmento A
     ad4:	e0bffd17 	ldw	r2,-12(fp)
     ad8:	1080004c 	andi	r2,r2,1
     adc:	10001026 	beq	r2,zero,b20 <draw_clock_digit+0x68>
		MTL_box(
     ae0:	e0bffe17 	ldw	r2,-8(fp)
     ae4:	10c00304 	addi	r3,r2,12
     ae8:	e0bffe17 	ldw	r2,-8(fp)
     aec:	11000944 	addi	r4,r2,37
     af0:	e0bfff17 	ldw	r2,-4(fp)
     af4:	114001c4 	addi	r5,r2,7
     af8:	d0a00617 	ldw	r2,-32744(gp)
     afc:	10bfffcc 	andi	r2,r2,65535
     b00:	10a0001c 	xori	r2,r2,32768
     b04:	10a00004 	addi	r2,r2,-32768
     b08:	d8800015 	stw	r2,0(sp)
     b0c:	280f883a 	mov	r7,r5
     b10:	200d883a 	mov	r6,r4
     b14:	e17fff17 	ldw	r5,-4(fp)
     b18:	1809883a 	mov	r4,r3
     b1c:	000065c0 	call	65c <MTL_box>
			y, 
			x + CLOCK_SEGMENT_WIDTH + CLOCK_DIGIT_X_PADDING + CLOCK_SEGMENT_HEIGHT, 
			y + CLOCK_SEGMENT_WIDTH,
			digit_color);
	}
	if (code & 0x02) {  // Si se debe encender el segmento B
     b20:	e0bffd17 	ldw	r2,-12(fp)
     b24:	1080008c 	andi	r2,r2,2
     b28:	10001226 	beq	r2,zero,b74 <draw_clock_digit+0xbc>
		MTL_box(
     b2c:	e0bffe17 	ldw	r2,-8(fp)
     b30:	10c00944 	addi	r3,r2,37
     b34:	e0bfff17 	ldw	r2,-4(fp)
     b38:	110001c4 	addi	r4,r2,7
     b3c:	e0bffe17 	ldw	r2,-8(fp)
     b40:	11400b04 	addi	r5,r2,44
     b44:	e0bfff17 	ldw	r2,-4(fp)
     b48:	11800804 	addi	r6,r2,32
     b4c:	d0a00617 	ldw	r2,-32744(gp)
     b50:	10bfffcc 	andi	r2,r2,65535
     b54:	10a0001c 	xori	r2,r2,32768
     b58:	10a00004 	addi	r2,r2,-32768
     b5c:	d8800015 	stw	r2,0(sp)
     b60:	300f883a 	mov	r7,r6
     b64:	280d883a 	mov	r6,r5
     b68:	200b883a 	mov	r5,r4
     b6c:	1809883a 	mov	r4,r3
     b70:	000065c0 	call	65c <MTL_box>
			y + CLOCK_SEGMENT_WIDTH, 
			x + 2 * CLOCK_SEGMENT_WIDTH + CLOCK_DIGIT_X_PADDING + CLOCK_SEGMENT_HEIGHT, 
			y + CLOCK_SEGMENT_WIDTH + CLOCK_SEGMENT_HEIGHT,
			digit_color);
	}
	if (code & 0x04) {  // Si se debe encender el segmento C
     b74:	e0bffd17 	ldw	r2,-12(fp)
     b78:	1080010c 	andi	r2,r2,4
     b7c:	10001226 	beq	r2,zero,bc8 <draw_clock_digit+0x110>
		MTL_box(
     b80:	e0bffe17 	ldw	r2,-8(fp)
     b84:	10c00944 	addi	r3,r2,37
     b88:	e0bfff17 	ldw	r2,-4(fp)
     b8c:	110009c4 	addi	r4,r2,39
     b90:	e0bffe17 	ldw	r2,-8(fp)
     b94:	11400b04 	addi	r5,r2,44
     b98:	e0bfff17 	ldw	r2,-4(fp)
     b9c:	11801004 	addi	r6,r2,64
     ba0:	d0a00617 	ldw	r2,-32744(gp)
     ba4:	10bfffcc 	andi	r2,r2,65535
     ba8:	10a0001c 	xori	r2,r2,32768
     bac:	10a00004 	addi	r2,r2,-32768
     bb0:	d8800015 	stw	r2,0(sp)
     bb4:	300f883a 	mov	r7,r6
     bb8:	280d883a 	mov	r6,r5
     bbc:	200b883a 	mov	r5,r4
     bc0:	1809883a 	mov	r4,r3
     bc4:	000065c0 	call	65c <MTL_box>
			y + 2 * CLOCK_SEGMENT_WIDTH + CLOCK_SEGMENT_HEIGHT, 
			x + 2 * CLOCK_SEGMENT_WIDTH + CLOCK_DIGIT_X_PADDING + CLOCK_SEGMENT_HEIGHT, 
			y + 2 * CLOCK_SEGMENT_WIDTH + 2 * CLOCK_SEGMENT_HEIGHT,
			digit_color);
	}
	if (code & 0x08) {  // Si se debe encender el segmento D
     bc8:	e0bffd17 	ldw	r2,-12(fp)
     bcc:	1080020c 	andi	r2,r2,8
     bd0:	10001226 	beq	r2,zero,c1c <draw_clock_digit+0x164>
		MTL_box(
     bd4:	e0bffe17 	ldw	r2,-8(fp)
     bd8:	10c00304 	addi	r3,r2,12
     bdc:	e0bfff17 	ldw	r2,-4(fp)
     be0:	11001004 	addi	r4,r2,64
     be4:	e0bffe17 	ldw	r2,-8(fp)
     be8:	11400944 	addi	r5,r2,37
     bec:	e0bfff17 	ldw	r2,-4(fp)
     bf0:	118011c4 	addi	r6,r2,71
     bf4:	d0a00617 	ldw	r2,-32744(gp)
     bf8:	10bfffcc 	andi	r2,r2,65535
     bfc:	10a0001c 	xori	r2,r2,32768
     c00:	10a00004 	addi	r2,r2,-32768
     c04:	d8800015 	stw	r2,0(sp)
     c08:	300f883a 	mov	r7,r6
     c0c:	280d883a 	mov	r6,r5
     c10:	200b883a 	mov	r5,r4
     c14:	1809883a 	mov	r4,r3
     c18:	000065c0 	call	65c <MTL_box>
			y + 2 * CLOCK_SEGMENT_HEIGHT + 2 * CLOCK_SEGMENT_WIDTH, 
			x + CLOCK_SEGMENT_WIDTH + CLOCK_DIGIT_X_PADDING + CLOCK_SEGMENT_HEIGHT, 
			y + 2 * CLOCK_SEGMENT_HEIGHT + 3 * CLOCK_SEGMENT_WIDTH,
			digit_color);
	}
	if (code & 0x10) {  // Si se debe encender el segmento E
     c1c:	e0bffd17 	ldw	r2,-12(fp)
     c20:	1080040c 	andi	r2,r2,16
     c24:	10001226 	beq	r2,zero,c70 <draw_clock_digit+0x1b8>
		MTL_box(
     c28:	e0bffe17 	ldw	r2,-8(fp)
     c2c:	10c00144 	addi	r3,r2,5
     c30:	e0bfff17 	ldw	r2,-4(fp)
     c34:	110009c4 	addi	r4,r2,39
     c38:	e0bffe17 	ldw	r2,-8(fp)
     c3c:	11400304 	addi	r5,r2,12
     c40:	e0bfff17 	ldw	r2,-4(fp)
     c44:	11801004 	addi	r6,r2,64
     c48:	d0a00617 	ldw	r2,-32744(gp)
     c4c:	10bfffcc 	andi	r2,r2,65535
     c50:	10a0001c 	xori	r2,r2,32768
     c54:	10a00004 	addi	r2,r2,-32768
     c58:	d8800015 	stw	r2,0(sp)
     c5c:	300f883a 	mov	r7,r6
     c60:	280d883a 	mov	r6,r5
     c64:	200b883a 	mov	r5,r4
     c68:	1809883a 	mov	r4,r3
     c6c:	000065c0 	call	65c <MTL_box>
			y + 2 * CLOCK_SEGMENT_WIDTH + CLOCK_SEGMENT_HEIGHT, 
			x + CLOCK_SEGMENT_WIDTH + CLOCK_DIGIT_X_PADDING, 
			y + 2 * CLOCK_SEGMENT_WIDTH + 2 * CLOCK_SEGMENT_HEIGHT,
			digit_color);
	}
	if (code & 0x20) {  // Si se debe encender el segmento F
     c70:	e0bffd17 	ldw	r2,-12(fp)
     c74:	1080080c 	andi	r2,r2,32
     c78:	10001226 	beq	r2,zero,cc4 <draw_clock_digit+0x20c>
		MTL_box(
     c7c:	e0bffe17 	ldw	r2,-8(fp)
     c80:	10c00144 	addi	r3,r2,5
     c84:	e0bfff17 	ldw	r2,-4(fp)
     c88:	110001c4 	addi	r4,r2,7
     c8c:	e0bffe17 	ldw	r2,-8(fp)
     c90:	11400304 	addi	r5,r2,12
     c94:	e0bfff17 	ldw	r2,-4(fp)
     c98:	11800804 	addi	r6,r2,32
     c9c:	d0a00617 	ldw	r2,-32744(gp)
     ca0:	10bfffcc 	andi	r2,r2,65535
     ca4:	10a0001c 	xori	r2,r2,32768
     ca8:	10a00004 	addi	r2,r2,-32768
     cac:	d8800015 	stw	r2,0(sp)
     cb0:	300f883a 	mov	r7,r6
     cb4:	280d883a 	mov	r6,r5
     cb8:	200b883a 	mov	r5,r4
     cbc:	1809883a 	mov	r4,r3
     cc0:	000065c0 	call	65c <MTL_box>
			y + CLOCK_SEGMENT_WIDTH, 
			x + CLOCK_SEGMENT_WIDTH + CLOCK_DIGIT_X_PADDING, 
			y + CLOCK_SEGMENT_WIDTH + CLOCK_SEGMENT_HEIGHT,
			digit_color);
	}
	if (code & 0x40) {  // Si se debe encender el segmento G
     cc4:	e0bffd17 	ldw	r2,-12(fp)
     cc8:	1080100c 	andi	r2,r2,64
     ccc:	10001226 	beq	r2,zero,d18 <draw_clock_digit+0x260>
		MTL_box(
     cd0:	e0bffe17 	ldw	r2,-8(fp)
     cd4:	10c00304 	addi	r3,r2,12
     cd8:	e0bfff17 	ldw	r2,-4(fp)
     cdc:	11000804 	addi	r4,r2,32
     ce0:	e0bffe17 	ldw	r2,-8(fp)
     ce4:	11400944 	addi	r5,r2,37
     ce8:	e0bfff17 	ldw	r2,-4(fp)
     cec:	118009c4 	addi	r6,r2,39
     cf0:	d0a00617 	ldw	r2,-32744(gp)
     cf4:	10bfffcc 	andi	r2,r2,65535
     cf8:	10a0001c 	xori	r2,r2,32768
     cfc:	10a00004 	addi	r2,r2,-32768
     d00:	d8800015 	stw	r2,0(sp)
     d04:	300f883a 	mov	r7,r6
     d08:	280d883a 	mov	r6,r5
     d0c:	200b883a 	mov	r5,r4
     d10:	1809883a 	mov	r4,r3
     d14:	000065c0 	call	65c <MTL_box>
			y + CLOCK_SEGMENT_WIDTH + CLOCK_SEGMENT_HEIGHT, 
			x + CLOCK_SEGMENT_WIDTH + CLOCK_DIGIT_X_PADDING + CLOCK_SEGMENT_HEIGHT, 
			y + 2 * CLOCK_SEGMENT_WIDTH + CLOCK_SEGMENT_HEIGHT,
			digit_color);
	}
}
     d18:	0001883a 	nop
     d1c:	e037883a 	mov	sp,fp
     d20:	dfc00117 	ldw	ra,4(sp)
     d24:	df000017 	ldw	fp,0(sp)
     d28:	dec00204 	addi	sp,sp,8
     d2c:	f800283a 	ret

00000d30 <draw_clock_dma>:


/* Función encargada de dibujar el reloj en la pantalla MTL.
 */
void draw_clock_dma(struct time_t * time, alt_up_pixel_buffer_dma_dev *pixel_buffer_dev)
{
     d30:	defff304 	addi	sp,sp,-52
     d34:	dfc00c15 	stw	ra,48(sp)
     d38:	df000b15 	stw	fp,44(sp)
     d3c:	df000b04 	addi	fp,sp,44
     d40:	e13ffe15 	stw	r4,-8(fp)
     d44:	e17fff15 	stw	r5,-4(fp)
	int digit_codes[] = {hex7seg[time->hours / 10], hex7seg[time->hours % 10],
     d48:	e0bffe17 	ldw	r2,-8(fp)
     d4c:	10800017 	ldw	r2,0(r2)
     d50:	01400284 	movi	r5,10
     d54:	1009883a 	mov	r4,r2
     d58:	00016a00 	call	16a0 <__divsi3>
     d5c:	1007883a 	mov	r3,r2
     d60:	00800074 	movhi	r2,1
     d64:	1093ec04 	addi	r2,r2,20400
     d68:	18c7883a 	add	r3,r3,r3
     d6c:	18c7883a 	add	r3,r3,r3
     d70:	10c5883a 	add	r2,r2,r3
     d74:	10800017 	ldw	r2,0(r2)
     d78:	e0bff815 	stw	r2,-32(fp)
     d7c:	e0bffe17 	ldw	r2,-8(fp)
     d80:	10800017 	ldw	r2,0(r2)
     d84:	01400284 	movi	r5,10
     d88:	1009883a 	mov	r4,r2
     d8c:	00017240 	call	1724 <__modsi3>
     d90:	1007883a 	mov	r3,r2
     d94:	00800074 	movhi	r2,1
     d98:	1093ec04 	addi	r2,r2,20400
     d9c:	18c7883a 	add	r3,r3,r3
     da0:	18c7883a 	add	r3,r3,r3
     da4:	10c5883a 	add	r2,r2,r3
     da8:	10800017 	ldw	r2,0(r2)
     dac:	e0bff915 	stw	r2,-28(fp)
						 hex7seg[time->minutes / 10], hex7seg[time->minutes % 10],
     db0:	e0bffe17 	ldw	r2,-8(fp)
     db4:	10800117 	ldw	r2,4(r2)
     db8:	01400284 	movi	r5,10
     dbc:	1009883a 	mov	r4,r2
     dc0:	00016a00 	call	16a0 <__divsi3>
     dc4:	1007883a 	mov	r3,r2
     dc8:	00800074 	movhi	r2,1
     dcc:	1093ec04 	addi	r2,r2,20400
     dd0:	18c7883a 	add	r3,r3,r3
     dd4:	18c7883a 	add	r3,r3,r3
     dd8:	10c5883a 	add	r2,r2,r3
     ddc:	10800017 	ldw	r2,0(r2)

/* Función encargada de dibujar el reloj en la pantalla MTL.
 */
void draw_clock_dma(struct time_t * time, alt_up_pixel_buffer_dma_dev *pixel_buffer_dev)
{
	int digit_codes[] = {hex7seg[time->hours / 10], hex7seg[time->hours % 10],
     de0:	e0bffa15 	stw	r2,-24(fp)
						 hex7seg[time->minutes / 10], hex7seg[time->minutes % 10],
     de4:	e0bffe17 	ldw	r2,-8(fp)
     de8:	10800117 	ldw	r2,4(r2)
     dec:	01400284 	movi	r5,10
     df0:	1009883a 	mov	r4,r2
     df4:	00017240 	call	1724 <__modsi3>
     df8:	1007883a 	mov	r3,r2
     dfc:	00800074 	movhi	r2,1
     e00:	1093ec04 	addi	r2,r2,20400
     e04:	18c7883a 	add	r3,r3,r3
     e08:	18c7883a 	add	r3,r3,r3
     e0c:	10c5883a 	add	r2,r2,r3
     e10:	10800017 	ldw	r2,0(r2)

/* Función encargada de dibujar el reloj en la pantalla MTL.
 */
void draw_clock_dma(struct time_t * time, alt_up_pixel_buffer_dma_dev *pixel_buffer_dev)
{
	int digit_codes[] = {hex7seg[time->hours / 10], hex7seg[time->hours % 10],
     e14:	e0bffb15 	stw	r2,-20(fp)
						 hex7seg[time->minutes / 10], hex7seg[time->minutes % 10],
						 hex7seg[time->seconds / 10], hex7seg[time->seconds % 10]};
     e18:	e0bffe17 	ldw	r2,-8(fp)
     e1c:	10800217 	ldw	r2,8(r2)
     e20:	01400284 	movi	r5,10
     e24:	1009883a 	mov	r4,r2
     e28:	00016a00 	call	16a0 <__divsi3>
     e2c:	1007883a 	mov	r3,r2
     e30:	00800074 	movhi	r2,1
     e34:	1093ec04 	addi	r2,r2,20400
     e38:	18c7883a 	add	r3,r3,r3
     e3c:	18c7883a 	add	r3,r3,r3
     e40:	10c5883a 	add	r2,r2,r3
     e44:	10800017 	ldw	r2,0(r2)

/* Función encargada de dibujar el reloj en la pantalla MTL.
 */
void draw_clock_dma(struct time_t * time, alt_up_pixel_buffer_dma_dev *pixel_buffer_dev)
{
	int digit_codes[] = {hex7seg[time->hours / 10], hex7seg[time->hours % 10],
     e48:	e0bffc15 	stw	r2,-16(fp)
						 hex7seg[time->minutes / 10], hex7seg[time->minutes % 10],
						 hex7seg[time->seconds / 10], hex7seg[time->seconds % 10]};
     e4c:	e0bffe17 	ldw	r2,-8(fp)
     e50:	10800217 	ldw	r2,8(r2)
     e54:	01400284 	movi	r5,10
     e58:	1009883a 	mov	r4,r2
     e5c:	00017240 	call	1724 <__modsi3>
     e60:	1007883a 	mov	r3,r2
     e64:	00800074 	movhi	r2,1
     e68:	1093ec04 	addi	r2,r2,20400
     e6c:	18c7883a 	add	r3,r3,r3
     e70:	18c7883a 	add	r3,r3,r3
     e74:	10c5883a 	add	r2,r2,r3
     e78:	10800017 	ldw	r2,0(r2)

/* Función encargada de dibujar el reloj en la pantalla MTL.
 */
void draw_clock_dma(struct time_t * time, alt_up_pixel_buffer_dma_dev *pixel_buffer_dev)
{
	int digit_codes[] = {hex7seg[time->hours / 10], hex7seg[time->hours % 10],
     e7c:	e0bffd15 	stw	r2,-12(fp)
	// 		   CLOCK_FIRST_DIGIT_X + 2 * CLOCK_DIGIT_WIDTH + 1 * CLOCK_DOTS_WIDTH,
	// 		   CLOCK_FIRST_DIGIT_X + 3 * CLOCK_DIGIT_WIDTH + 1 * CLOCK_DOTS_WIDTH,
	// 		   CLOCK_FIRST_DIGIT_X + 4 * CLOCK_DIGIT_WIDTH + 2 * CLOCK_DOTS_WIDTH,
	// 		   CLOCK_FIRST_DIGIT_X + 5 * CLOCK_DIGIT_WIDTH + 2 * CLOCK_DOTS_WIDTH}

	int x = 0;
     e80:	e03ff615 	stw	zero,-40(fp)
	int y = CLOCK_FIRST_DIGIT_Y;
     e84:	00801544 	movi	r2,85
     e88:	e0bff715 	stw	r2,-36(fp)

	// dibuja los seis dígitos
	for (int i = 0; i < 6; i++)
     e8c:	e03ff515 	stw	zero,-44(fp)
     e90:	00001906 	br	ef8 <draw_clock_dma+0x1c8>
	{
		x = CLOCK_FIRST_DIGIT_X + i * CLOCK_DIGIT_WIDTH + (i/2) * CLOCK_DOTS_WIDTH;
     e94:	e0bff517 	ldw	r2,-44(fp)
     e98:	10800ca4 	muli	r2,r2,50
     e9c:	10c00644 	addi	r3,r2,25
     ea0:	e0bff517 	ldw	r2,-44(fp)
     ea4:	1008d7fa 	srli	r4,r2,31
     ea8:	2085883a 	add	r2,r4,r2
     eac:	1005d07a 	srai	r2,r2,1
     eb0:	10800664 	muli	r2,r2,25
     eb4:	1885883a 	add	r2,r3,r2
     eb8:	e0bff615 	stw	r2,-40(fp)
		draw_clock_digit_dma(digit_codes[i], x, y, pixel_buffer_dev);
     ebc:	e0bff517 	ldw	r2,-44(fp)
     ec0:	1085883a 	add	r2,r2,r2
     ec4:	1085883a 	add	r2,r2,r2
     ec8:	e0fff504 	addi	r3,fp,-44
     ecc:	1885883a 	add	r2,r3,r2
     ed0:	10800304 	addi	r2,r2,12
     ed4:	10800017 	ldw	r2,0(r2)
     ed8:	e1ffff17 	ldw	r7,-4(fp)
     edc:	e1bff717 	ldw	r6,-36(fp)
     ee0:	e17ff617 	ldw	r5,-40(fp)
     ee4:	1009883a 	mov	r4,r2
     ee8:	00008580 	call	858 <draw_clock_digit_dma>

	int x = 0;
	int y = CLOCK_FIRST_DIGIT_Y;

	// dibuja los seis dígitos
	for (int i = 0; i < 6; i++)
     eec:	e0bff517 	ldw	r2,-44(fp)
     ef0:	10800044 	addi	r2,r2,1
     ef4:	e0bff515 	stw	r2,-44(fp)
     ef8:	e0bff517 	ldw	r2,-44(fp)
     efc:	10800190 	cmplti	r2,r2,6
     f00:	103fe41e 	bne	r2,zero,e94 <__alt_mem_onchip_memory+0xf7800e94>
	// dibuja los dos pares de puntos
	// x = CLOCK_FIRST_DIGIT_X + 2 * CLOCK_DIGIT_WIDTH;
	// draw_clock_dots(x, y);
	// x = CLOCK_FIRST_DIGIT_X + 4 * CLOCK_DIGIT_WIDTH + CLOCK_DOTS_WIDTH;
	// draw_clock_dots(x, y);
}
     f04:	0001883a 	nop
     f08:	e037883a 	mov	sp,fp
     f0c:	dfc00117 	ldw	ra,4(sp)
     f10:	df000017 	ldw	fp,0(sp)
     f14:	dec00204 	addi	sp,sp,8
     f18:	f800283a 	ret

00000f1c <draw_clock>:


void draw_clock(struct time_t * time)
{
     f1c:	defff304 	addi	sp,sp,-52
     f20:	dfc00c15 	stw	ra,48(sp)
     f24:	df000b15 	stw	fp,44(sp)
     f28:	df000b04 	addi	fp,sp,44
     f2c:	e13fff15 	stw	r4,-4(fp)
	int digit_codes[] = {hex7seg[time->hours / 10], hex7seg[time->hours % 10],
     f30:	e0bfff17 	ldw	r2,-4(fp)
     f34:	10800017 	ldw	r2,0(r2)
     f38:	01400284 	movi	r5,10
     f3c:	1009883a 	mov	r4,r2
     f40:	00016a00 	call	16a0 <__divsi3>
     f44:	1007883a 	mov	r3,r2
     f48:	00800074 	movhi	r2,1
     f4c:	1093ec04 	addi	r2,r2,20400
     f50:	18c7883a 	add	r3,r3,r3
     f54:	18c7883a 	add	r3,r3,r3
     f58:	10c5883a 	add	r2,r2,r3
     f5c:	10800017 	ldw	r2,0(r2)
     f60:	e0bff915 	stw	r2,-28(fp)
     f64:	e0bfff17 	ldw	r2,-4(fp)
     f68:	10800017 	ldw	r2,0(r2)
     f6c:	01400284 	movi	r5,10
     f70:	1009883a 	mov	r4,r2
     f74:	00017240 	call	1724 <__modsi3>
     f78:	1007883a 	mov	r3,r2
     f7c:	00800074 	movhi	r2,1
     f80:	1093ec04 	addi	r2,r2,20400
     f84:	18c7883a 	add	r3,r3,r3
     f88:	18c7883a 	add	r3,r3,r3
     f8c:	10c5883a 	add	r2,r2,r3
     f90:	10800017 	ldw	r2,0(r2)
     f94:	e0bffa15 	stw	r2,-24(fp)
						 hex7seg[time->minutes / 10], hex7seg[time->minutes % 10],
     f98:	e0bfff17 	ldw	r2,-4(fp)
     f9c:	10800117 	ldw	r2,4(r2)
     fa0:	01400284 	movi	r5,10
     fa4:	1009883a 	mov	r4,r2
     fa8:	00016a00 	call	16a0 <__divsi3>
     fac:	1007883a 	mov	r3,r2
     fb0:	00800074 	movhi	r2,1
     fb4:	1093ec04 	addi	r2,r2,20400
     fb8:	18c7883a 	add	r3,r3,r3
     fbc:	18c7883a 	add	r3,r3,r3
     fc0:	10c5883a 	add	r2,r2,r3
     fc4:	10800017 	ldw	r2,0(r2)
}


void draw_clock(struct time_t * time)
{
	int digit_codes[] = {hex7seg[time->hours / 10], hex7seg[time->hours % 10],
     fc8:	e0bffb15 	stw	r2,-20(fp)
						 hex7seg[time->minutes / 10], hex7seg[time->minutes % 10],
     fcc:	e0bfff17 	ldw	r2,-4(fp)
     fd0:	10800117 	ldw	r2,4(r2)
     fd4:	01400284 	movi	r5,10
     fd8:	1009883a 	mov	r4,r2
     fdc:	00017240 	call	1724 <__modsi3>
     fe0:	1007883a 	mov	r3,r2
     fe4:	00800074 	movhi	r2,1
     fe8:	1093ec04 	addi	r2,r2,20400
     fec:	18c7883a 	add	r3,r3,r3
     ff0:	18c7883a 	add	r3,r3,r3
     ff4:	10c5883a 	add	r2,r2,r3
     ff8:	10800017 	ldw	r2,0(r2)
}


void draw_clock(struct time_t * time)
{
	int digit_codes[] = {hex7seg[time->hours / 10], hex7seg[time->hours % 10],
     ffc:	e0bffc15 	stw	r2,-16(fp)
						 hex7seg[time->minutes / 10], hex7seg[time->minutes % 10],
						 hex7seg[time->seconds / 10], hex7seg[time->seconds % 10]};
    1000:	e0bfff17 	ldw	r2,-4(fp)
    1004:	10800217 	ldw	r2,8(r2)
    1008:	01400284 	movi	r5,10
    100c:	1009883a 	mov	r4,r2
    1010:	00016a00 	call	16a0 <__divsi3>
    1014:	1007883a 	mov	r3,r2
    1018:	00800074 	movhi	r2,1
    101c:	1093ec04 	addi	r2,r2,20400
    1020:	18c7883a 	add	r3,r3,r3
    1024:	18c7883a 	add	r3,r3,r3
    1028:	10c5883a 	add	r2,r2,r3
    102c:	10800017 	ldw	r2,0(r2)
}


void draw_clock(struct time_t * time)
{
	int digit_codes[] = {hex7seg[time->hours / 10], hex7seg[time->hours % 10],
    1030:	e0bffd15 	stw	r2,-12(fp)
						 hex7seg[time->minutes / 10], hex7seg[time->minutes % 10],
						 hex7seg[time->seconds / 10], hex7seg[time->seconds % 10]};
    1034:	e0bfff17 	ldw	r2,-4(fp)
    1038:	10800217 	ldw	r2,8(r2)
    103c:	01400284 	movi	r5,10
    1040:	1009883a 	mov	r4,r2
    1044:	00017240 	call	1724 <__modsi3>
    1048:	1007883a 	mov	r3,r2
    104c:	00800074 	movhi	r2,1
    1050:	1093ec04 	addi	r2,r2,20400
    1054:	18c7883a 	add	r3,r3,r3
    1058:	18c7883a 	add	r3,r3,r3
    105c:	10c5883a 	add	r2,r2,r3
    1060:	10800017 	ldw	r2,0(r2)
}


void draw_clock(struct time_t * time)
{
	int digit_codes[] = {hex7seg[time->hours / 10], hex7seg[time->hours % 10],
    1064:	e0bffe15 	stw	r2,-8(fp)
	// 		   CLOCK_FIRST_DIGIT_X + 2 * CLOCK_DIGIT_WIDTH + 1 * CLOCK_DOTS_WIDTH,
	// 		   CLOCK_FIRST_DIGIT_X + 3 * CLOCK_DIGIT_WIDTH + 1 * CLOCK_DOTS_WIDTH,
	// 		   CLOCK_FIRST_DIGIT_X + 4 * CLOCK_DIGIT_WIDTH + 2 * CLOCK_DOTS_WIDTH,
	// 		   CLOCK_FIRST_DIGIT_X + 5 * CLOCK_DIGIT_WIDTH + 2 * CLOCK_DOTS_WIDTH}

	int x = 0;
    1068:	e03ff715 	stw	zero,-36(fp)
	int y = CLOCK_FIRST_DIGIT_Y;
    106c:	00801544 	movi	r2,85
    1070:	e0bff815 	stw	r2,-32(fp)

	MTL_box(CLOCK_FIRST_DIGIT_X, CLOCK_FIRST_DIGIT_Y,
    1074:	d0a7e317 	ldw	r2,-24692(gp)
    1078:	10bfffcc 	andi	r2,r2,65535
    107c:	10a0001c 	xori	r2,r2,32768
    1080:	10a00004 	addi	r2,r2,-32768
    1084:	d8800015 	stw	r2,0(sp)
    1088:	01c02704 	movi	r7,156
    108c:	01805d84 	movi	r6,374
    1090:	01401544 	movi	r5,85
    1094:	01000644 	movi	r4,25
    1098:	000065c0 	call	65c <MTL_box>
			399-CLOCK_FIRST_DIGIT_X, CLOCK_FIRST_DIGIT_Y + CLOCK_DIGIT_HEIGHT,
			background_color);

	// dibuja los seis dígitos
	for (int i = 0; i < 6; i++)
    109c:	e03ff615 	stw	zero,-40(fp)
    10a0:	00001806 	br	1104 <draw_clock+0x1e8>
	{
		x = CLOCK_FIRST_DIGIT_X + i * CLOCK_DIGIT_WIDTH + (i/2) * CLOCK_DOTS_WIDTH;
    10a4:	e0bff617 	ldw	r2,-40(fp)
    10a8:	10800ca4 	muli	r2,r2,50
    10ac:	10c00644 	addi	r3,r2,25
    10b0:	e0bff617 	ldw	r2,-40(fp)
    10b4:	1008d7fa 	srli	r4,r2,31
    10b8:	2085883a 	add	r2,r4,r2
    10bc:	1005d07a 	srai	r2,r2,1
    10c0:	10800664 	muli	r2,r2,25
    10c4:	1885883a 	add	r2,r3,r2
    10c8:	e0bff715 	stw	r2,-36(fp)
		draw_clock_digit(digit_codes[i], x, y);
    10cc:	e0bff617 	ldw	r2,-40(fp)
    10d0:	1085883a 	add	r2,r2,r2
    10d4:	1085883a 	add	r2,r2,r2
    10d8:	e0fff604 	addi	r3,fp,-40
    10dc:	1885883a 	add	r2,r3,r2
    10e0:	10800304 	addi	r2,r2,12
    10e4:	10800017 	ldw	r2,0(r2)
    10e8:	e1bff817 	ldw	r6,-32(fp)
    10ec:	e17ff717 	ldw	r5,-36(fp)
    10f0:	1009883a 	mov	r4,r2
    10f4:	0000ab80 	call	ab8 <draw_clock_digit>
	MTL_box(CLOCK_FIRST_DIGIT_X, CLOCK_FIRST_DIGIT_Y,
			399-CLOCK_FIRST_DIGIT_X, CLOCK_FIRST_DIGIT_Y + CLOCK_DIGIT_HEIGHT,
			background_color);

	// dibuja los seis dígitos
	for (int i = 0; i < 6; i++)
    10f8:	e0bff617 	ldw	r2,-40(fp)
    10fc:	10800044 	addi	r2,r2,1
    1100:	e0bff615 	stw	r2,-40(fp)
    1104:	e0bff617 	ldw	r2,-40(fp)
    1108:	10800190 	cmplti	r2,r2,6
    110c:	103fe51e 	bne	r2,zero,10a4 <__alt_mem_onchip_memory+0xf78010a4>
		x = CLOCK_FIRST_DIGIT_X + i * CLOCK_DIGIT_WIDTH + (i/2) * CLOCK_DOTS_WIDTH;
		draw_clock_digit(digit_codes[i], x, y);
	}

	// dibuja los dos pares de puntos
	x = CLOCK_FIRST_DIGIT_X + 2 * CLOCK_DIGIT_WIDTH;
    1110:	00801f44 	movi	r2,125
    1114:	e0bff715 	stw	r2,-36(fp)
	draw_clock_dots(x, y);
    1118:	e17ff817 	ldw	r5,-32(fp)
    111c:	e13ff717 	ldw	r4,-36(fp)
    1120:	00007980 	call	798 <draw_clock_dots>
	x = CLOCK_FIRST_DIGIT_X + 4 * CLOCK_DIGIT_WIDTH + CLOCK_DOTS_WIDTH;
    1124:	00803e84 	movi	r2,250
    1128:	e0bff715 	stw	r2,-36(fp)
	draw_clock_dots(x, y);
    112c:	e17ff817 	ldw	r5,-32(fp)
    1130:	e13ff717 	ldw	r4,-36(fp)
    1134:	00007980 	call	798 <draw_clock_dots>
}
    1138:	0001883a 	nop
    113c:	e037883a 	mov	sp,fp
    1140:	dfc00117 	ldw	ra,4(sp)
    1144:	df000017 	ldw	fp,0(sp)
    1148:	dec00204 	addi	sp,sp,8
    114c:	f800283a 	ret

00001150 <interval_timer_isr>:

/* Rutina de interrupción del timer. Se activa una vez por segundo
 */
void interval_timer_isr()
{
    1150:	defffe04 	addi	sp,sp,-8
    1154:	dfc00115 	stw	ra,4(sp)
    1158:	df000015 	stw	fp,0(sp)
    115c:	d839883a 	mov	fp,sp

	*(interval_timer_ptr) = 0;  		// Elimina la interrución
    1160:	d0a00017 	ldw	r2,-32768(gp)
    1164:	10000015 	stw	zero,0(r2)

	count++; 							// Incrementa la cuenta del timer.
    1168:	d0a7e217 	ldw	r2,-24696(gp)
    116c:	10800044 	addi	r2,r2,1
    1170:	d0a7e215 	stw	r2,-24696(gp)
	if (count >= 86400) {count = 0;}  	// Reset si es igual o mayor a 24 horas
    1174:	d0e7e217 	ldw	r3,-24696(gp)
    1178:	00800074 	movhi	r2,1
    117c:	10945fc4 	addi	r2,r2,20863
    1180:	10c0010e 	bge	r2,r3,1188 <interval_timer_isr+0x38>
    1184:	d027e215 	stw	zero,-24696(gp)

	seconds_to_time_t(count, &time);  	// Actualiza la estructura
    1188:	d0a7e217 	ldw	r2,-24696(gp)
    118c:	014000b4 	movhi	r5,2
    1190:	29639904 	addi	r5,r5,-29084
    1194:	1009883a 	mov	r4,r2
    1198:	00002940 	call	294 <seconds_to_time_t>
	send_time_to_7seg(&time);  			// Envía el reloj por los displays de 7 segmentos
    119c:	010000b4 	movhi	r4,2
    11a0:	21239904 	addi	r4,r4,-29084
    11a4:	00003300 	call	330 <send_time_to_7seg>
	send_time_to_lcd_1602(&time);		// Envía el reloj por el LCD
    11a8:	010000b4 	movhi	r4,2
    11ac:	21239904 	addi	r4,r4,-29084
    11b0:	00005bc0 	call	5bc <send_time_to_lcd_1602>
	draw_clock(&time);
    11b4:	010000b4 	movhi	r4,2
    11b8:	21239904 	addi	r4,r4,-29084
    11bc:	0000f1c0 	call	f1c <draw_clock>

	return;
    11c0:	0001883a 	nop
}
    11c4:	e037883a 	mov	sp,fp
    11c8:	dfc00117 	ldw	ra,4(sp)
    11cc:	df000017 	ldw	fp,0(sp)
    11d0:	dec00204 	addi	sp,sp,8
    11d4:	f800283a 	ret

000011d8 <pushbutton_isr>:


/* Rutina de interrupción de los pulsadores.
 */
void pushbutton_isr( )
{
    11d8:	defffd04 	addi	sp,sp,-12
    11dc:	dfc00215 	stw	ra,8(sp)
    11e0:	df000115 	stw	fp,4(sp)
    11e4:	df000104 	addi	fp,sp,4
	int press;

	press = *(KEY_ptr + 3);  			// Lee el registro de los pulsadores
    11e8:	d0a00117 	ldw	r2,-32764(gp)
    11ec:	10800317 	ldw	r2,12(r2)
    11f0:	e0bfff15 	stw	r2,-4(fp)
	*(KEY_ptr + 3) = 0;      			// Elimina la interrupción
    11f4:	d0a00117 	ldw	r2,-32764(gp)
    11f8:	10800304 	addi	r2,r2,12
    11fc:	10000015 	stw	zero,0(r2)

	if (press & 0x4) {  // Se ha pulsado el KEY2 (0100)
    1200:	e0bfff17 	ldw	r2,-4(fp)
    1204:	1080010c 	andi	r2,r2,4
    1208:	10000c26 	beq	r2,zero,123c <pushbutton_isr+0x64>
		count += 60;
    120c:	d0a7e217 	ldw	r2,-24696(gp)
    1210:	10800f04 	addi	r2,r2,60
    1214:	d0a7e215 	stw	r2,-24696(gp)
		if (count >= 86400) {count = count % 60;}  // si >24 horas, no perder segundos
    1218:	d0e7e217 	ldw	r3,-24696(gp)
    121c:	00800074 	movhi	r2,1
    1220:	10945fc4 	addi	r2,r2,20863
    1224:	10c0050e 	bge	r2,r3,123c <pushbutton_isr+0x64>
    1228:	d0a7e217 	ldw	r2,-24696(gp)
    122c:	01400f04 	movi	r5,60
    1230:	1009883a 	mov	r4,r2
    1234:	00017240 	call	1724 <__modsi3>
    1238:	d0a7e215 	stw	r2,-24696(gp)
    }
	if (press & 0x8) {  // Se ha pulsado el KEY3 (1000)
    123c:	e0bfff17 	ldw	r2,-4(fp)
    1240:	1080020c 	andi	r2,r2,8
    1244:	10000c26 	beq	r2,zero,1278 <pushbutton_isr+0xa0>
    	count += 3600;
    1248:	d0a7e217 	ldw	r2,-24696(gp)
    124c:	10838404 	addi	r2,r2,3600
    1250:	d0a7e215 	stw	r2,-24696(gp)
		if (count >= 86400) {count = count % 3600;}  // si >24 horas no perder mins y segs
    1254:	d0e7e217 	ldw	r3,-24696(gp)
    1258:	00800074 	movhi	r2,1
    125c:	10945fc4 	addi	r2,r2,20863
    1260:	10c0050e 	bge	r2,r3,1278 <pushbutton_isr+0xa0>
    1264:	d0a7e217 	ldw	r2,-24696(gp)
    1268:	01438404 	movi	r5,3600
    126c:	1009883a 	mov	r4,r2
    1270:	00017240 	call	1724 <__modsi3>
    1274:	d0a7e215 	stw	r2,-24696(gp)
 	}

	seconds_to_time_t(count, &time);  	// Actualiza la estructura
    1278:	d0a7e217 	ldw	r2,-24696(gp)
    127c:	014000b4 	movhi	r5,2
    1280:	29639904 	addi	r5,r5,-29084
    1284:	1009883a 	mov	r4,r2
    1288:	00002940 	call	294 <seconds_to_time_t>
	send_time_to_7seg(&time);  			// Envía el reloj por los displays de 7 segmentos
    128c:	010000b4 	movhi	r4,2
    1290:	21239904 	addi	r4,r4,-29084
    1294:	00003300 	call	330 <send_time_to_7seg>
	send_time_to_lcd_1602(&time);		// Envía el reloj por el LCD
    1298:	010000b4 	movhi	r4,2
    129c:	21239904 	addi	r4,r4,-29084
    12a0:	00005bc0 	call	5bc <send_time_to_lcd_1602>
	draw_clock(&time);
    12a4:	010000b4 	movhi	r4,2
    12a8:	21239904 	addi	r4,r4,-29084
    12ac:	0000f1c0 	call	f1c <draw_clock>

	return;
    12b0:	0001883a 	nop
}
    12b4:	e037883a 	mov	sp,fp
    12b8:	dfc00117 	ldw	ra,4(sp)
    12bc:	df000017 	ldw	fp,0(sp)
    12c0:	dec00204 	addi	sp,sp,8
    12c4:	f800283a 	ret

000012c8 <color_8_to_16_bits>:


int color_8_to_16_bits(int color_8bits) {
    12c8:	defffc04 	addi	sp,sp,-16
    12cc:	df000315 	stw	fp,12(sp)
    12d0:	df000304 	addi	fp,sp,12
    12d4:	e13fff15 	stw	r4,-4(fp)

	int r = 0;
    12d8:	e03ffd15 	stw	zero,-12(fp)

	for (int i = 0; i < 8; i++) {
    12dc:	e03ffe15 	stw	zero,-8(fp)
    12e0:	00001606 	br	133c <color_8_to_16_bits+0x74>
		r |= ((color_8bits & (1 << i)) << i) | ((color_8bits & (1 << i)) << (i + 1));
    12e4:	00c00044 	movi	r3,1
    12e8:	e0bffe17 	ldw	r2,-8(fp)
    12ec:	1886983a 	sll	r3,r3,r2
    12f0:	e0bfff17 	ldw	r2,-4(fp)
    12f4:	1886703a 	and	r3,r3,r2
    12f8:	e0bffe17 	ldw	r2,-8(fp)
    12fc:	1886983a 	sll	r3,r3,r2
    1300:	01000044 	movi	r4,1
    1304:	e0bffe17 	ldw	r2,-8(fp)
    1308:	2088983a 	sll	r4,r4,r2
    130c:	e0bfff17 	ldw	r2,-4(fp)
    1310:	2088703a 	and	r4,r4,r2
    1314:	e0bffe17 	ldw	r2,-8(fp)
    1318:	10800044 	addi	r2,r2,1
    131c:	2084983a 	sll	r2,r4,r2
    1320:	1884b03a 	or	r2,r3,r2
    1324:	e0fffd17 	ldw	r3,-12(fp)
    1328:	1884b03a 	or	r2,r3,r2
    132c:	e0bffd15 	stw	r2,-12(fp)

int color_8_to_16_bits(int color_8bits) {

	int r = 0;

	for (int i = 0; i < 8; i++) {
    1330:	e0bffe17 	ldw	r2,-8(fp)
    1334:	10800044 	addi	r2,r2,1
    1338:	e0bffe15 	stw	r2,-8(fp)
    133c:	e0bffe17 	ldw	r2,-8(fp)
    1340:	10800210 	cmplti	r2,r2,8
    1344:	103fe71e 	bne	r2,zero,12e4 <__alt_mem_onchip_memory+0xf78012e4>
		r |= ((color_8bits & (1 << i)) << i) | ((color_8bits & (1 << i)) << (i + 1));
	}
	return r;
    1348:	e0bffd17 	ldw	r2,-12(fp)
}
    134c:	e037883a 	mov	sp,fp
    1350:	df000017 	ldw	fp,0(sp)
    1354:	dec00104 	addi	sp,sp,4
    1358:	f800283a 	ret

0000135c <slider_switches_isr>:


/* Rutina de interrupción del slider. Se activa una vez por segundo
 */
void slider_switches_isr()
{
    135c:	defffd04 	addi	sp,sp,-12
    1360:	dfc00215 	stw	ra,8(sp)
    1364:	df000115 	stw	fp,4(sp)
    1368:	df000104 	addi	fp,sp,4
	int slider;

	slider = *(slider_switch_ptr + 3);  			// Lee el registro de los pulsadores
    136c:	d0a00217 	ldw	r2,-32760(gp)
    1370:	10800317 	ldw	r2,12(r2)
    1374:	e0bfff15 	stw	r2,-4(fp)
	*(slider_switch_ptr + 3) = 0;      			// Elimina la interrupción
    1378:	d0a00217 	ldw	r2,-32760(gp)
    137c:	10800304 	addi	r2,r2,12
    1380:	10000015 	stw	zero,0(r2)

	background_color_8b = (slider >> 8) ^ background_color_8b;
    1384:	e0bfff17 	ldw	r2,-4(fp)
    1388:	1007d23a 	srai	r3,r2,8
    138c:	d0a7e417 	ldw	r2,-24688(gp)
    1390:	1884f03a 	xor	r2,r3,r2
    1394:	d0a7e415 	stw	r2,-24688(gp)
	background_color = color_8_to_16_bits(background_color_8b);
    1398:	d0a7e417 	ldw	r2,-24688(gp)
    139c:	1009883a 	mov	r4,r2
    13a0:	00012c80 	call	12c8 <color_8_to_16_bits>
    13a4:	d0a7e315 	stw	r2,-24692(gp)

	digit_color_8b = (slider & 0xFF) ^ digit_color_8b;
    13a8:	e0bfff17 	ldw	r2,-4(fp)
    13ac:	10c03fcc 	andi	r3,r2,255
    13b0:	d0a00717 	ldw	r2,-32740(gp)
    13b4:	1884f03a 	xor	r2,r3,r2
    13b8:	d0a00715 	stw	r2,-32740(gp)
	digit_color = color_8_to_16_bits(digit_color_8b);
    13bc:	d0a00717 	ldw	r2,-32740(gp)
    13c0:	1009883a 	mov	r4,r2
    13c4:	00012c80 	call	12c8 <color_8_to_16_bits>
    13c8:	d0a00615 	stw	r2,-32744(gp)

    MTL_fill_screen(background_color);
    13cc:	d0a7e317 	ldw	r2,-24692(gp)
    13d0:	1009883a 	mov	r4,r2
    13d4:	000071c0 	call	71c <MTL_fill_screen>
	draw_clock(&time);
    13d8:	010000b4 	movhi	r4,2
    13dc:	21239904 	addi	r4,r4,-29084
    13e0:	0000f1c0 	call	f1c <draw_clock>

	return;
    13e4:	0001883a 	nop
}
    13e8:	e037883a 	mov	sp,fp
    13ec:	dfc00117 	ldw	ra,4(sp)
    13f0:	df000017 	ldw	fp,0(sp)
    13f4:	dec00204 	addi	sp,sp,8
    13f8:	f800283a 	ret

000013fc <main>:


/* Función principal
 */
int main(void)
{
    13fc:	deffde04 	addi	sp,sp,-136
    1400:	dfc02115 	stw	ra,132(sp)
    1404:	df002015 	stw	fp,128(sp)
    1408:	df002004 	addi	fp,sp,128
	int counter_init = 50000000;  // Valor del contador. 1/(50 MHz)ï¿½(50 M)= 1 s
    140c:	0080bef4 	movhi	r2,763
    1410:	10bc2004 	addi	r2,r2,-3968
    1414:	e0bfe015 	stw	r2,-128(fp)

	char text_bottom_row[40] = "J. Del Pino Mena";
    1418:	00910834 	movhi	r2,17440
    141c:	108b9284 	addi	r2,r2,11850
    1420:	e0bfe215 	stw	r2,-120(fp)
    1424:	00940834 	movhi	r2,20512
    1428:	109b1944 	addi	r2,r2,27749
    142c:	e0bfe315 	stw	r2,-116(fp)
    1430:	00881bf4 	movhi	r2,8303
    1434:	109b9a44 	addi	r2,r2,28265
    1438:	e0bfe415 	stw	r2,-112(fp)
    143c:	00985bb4 	movhi	r2,24942
    1440:	10995344 	addi	r2,r2,25933
    1444:	e0bfe515 	stw	r2,-108(fp)
    1448:	e03fe615 	stw	zero,-104(fp)
    144c:	e03fe715 	stw	zero,-100(fp)
    1450:	e03fe815 	stw	zero,-96(fp)
    1454:	e03fe915 	stw	zero,-92(fp)
    1458:	e03fea15 	stw	zero,-88(fp)
    145c:	e03feb15 	stw	zero,-84(fp)

	char MTL_text_title[40] = "State-of-the-art clock\0";
    1460:	00800074 	movhi	r2,1
    1464:	1092c504 	addi	r2,r2,19220
    1468:	10c00017 	ldw	r3,0(r2)
    146c:	e0ffec15 	stw	r3,-80(fp)
    1470:	10c00117 	ldw	r3,4(r2)
    1474:	e0ffed15 	stw	r3,-76(fp)
    1478:	10c00217 	ldw	r3,8(r2)
    147c:	e0ffee15 	stw	r3,-72(fp)
    1480:	10c00317 	ldw	r3,12(r2)
    1484:	e0ffef15 	stw	r3,-68(fp)
    1488:	10c00417 	ldw	r3,16(r2)
    148c:	e0fff015 	stw	r3,-64(fp)
    1490:	10800517 	ldw	r2,20(r2)
    1494:	e0bff115 	stw	r2,-60(fp)
    1498:	e03ff215 	stw	zero,-56(fp)
    149c:	e03ff315 	stw	zero,-52(fp)
    14a0:	e03ff415 	stw	zero,-48(fp)
    14a4:	e03ff515 	stw	zero,-44(fp)
	char MTL_text_name[40] = "Juan Del Pino Mena\0";
    14a8:	00800074 	movhi	r2,1
    14ac:	1092cf04 	addi	r2,r2,19260
    14b0:	10c00017 	ldw	r3,0(r2)
    14b4:	e0fff615 	stw	r3,-40(fp)
    14b8:	10c00117 	ldw	r3,4(r2)
    14bc:	e0fff715 	stw	r3,-36(fp)
    14c0:	10c00217 	ldw	r3,8(r2)
    14c4:	e0fff815 	stw	r3,-32(fp)
    14c8:	10c00317 	ldw	r3,12(r2)
    14cc:	e0fff915 	stw	r3,-28(fp)
    14d0:	10800417 	ldw	r2,16(r2)
    14d4:	e0bffa15 	stw	r2,-24(fp)
    14d8:	e03ffb15 	stw	zero,-20(fp)
    14dc:	e03ffc15 	stw	zero,-16(fp)
    14e0:	e03ffd15 	stw	zero,-12(fp)
    14e4:	e03ffe15 	stw	zero,-8(fp)
    14e8:	e03fff15 	stw	zero,-4(fp)
	alt_up_char_buffer_dev *char_buffer_dev_MTL;


	/* WELCOME */

	alt_printf("TAREA 1 - RELOJ\n");
    14ec:	01000074 	movhi	r4,1
    14f0:	21129804 	addi	r4,r4,19040
    14f4:	000c5f80 	call	c5f8 <alt_printf>
	alt_printf("CHS - 2022\n");
    14f8:	01000074 	movhi	r4,1
    14fc:	21129d04 	addi	r4,r4,19060
    1500:	000c5f80 	call	c5f8 <alt_printf>
	alt_printf("Juan Del Pino Mena\n");
    1504:	01000074 	movhi	r4,1
    1508:	2112a004 	addi	r4,r4,19072
    150c:	000c5f80 	call	c5f8 <alt_printf>


	/* INICIALIZACION DE LA CUENTA */

	LCD_cursor(0,1);			// set LCD cursor location to bottom row
    1510:	01400044 	movi	r5,1
    1514:	0009883a 	mov	r4,zero
    1518:	00004d00 	call	4d0 <LCD_cursor>
	LCD_text(text_bottom_row);
    151c:	e0bfe204 	addi	r2,fp,-120
    1520:	1009883a 	mov	r4,r2
    1524:	00005300 	call	530 <LCD_text>
	LCD_cursor_off();			// turn off the LCD cursor
    1528:	00005900 	call	590 <LCD_cursor_off>

	// Inicializa los atributos de la estructura a nulos
	seconds_to_time_t(0, &time);
    152c:	014000b4 	movhi	r5,2
    1530:	29639904 	addi	r5,r5,-29084
    1534:	0009883a 	mov	r4,zero
    1538:	00002940 	call	294 <seconds_to_time_t>

	// borra el contenido del LCD y del siete segmentos
	send_time_to_7seg(&time);
    153c:	010000b4 	movhi	r4,2
    1540:	21239904 	addi	r4,r4,-29084
    1544:	00003300 	call	330 <send_time_to_7seg>
	send_time_to_lcd_1602(&time);
    1548:	010000b4 	movhi	r4,2
    154c:	21239904 	addi	r4,r4,-29084
    1550:	00005bc0 	call	5bc <send_time_to_lcd_1602>


	/* CONFIGURACIÓN DE INTERRUPCIONES */

	*(interval_timer_ptr + 0x2) = (counter_init & 0xFFFF); 			// copia parte baja
    1554:	d0a00017 	ldw	r2,-32768(gp)
    1558:	10800204 	addi	r2,r2,8
    155c:	e0ffe017 	ldw	r3,-128(fp)
    1560:	18ffffcc 	andi	r3,r3,65535
    1564:	10c00015 	stw	r3,0(r2)
	*(interval_timer_ptr + 0x3) = (counter_init >> 16) & 0xFFFF;  	// copia parte alta
    1568:	d0a00017 	ldw	r2,-32768(gp)
    156c:	10800304 	addi	r2,r2,12
    1570:	e0ffe017 	ldw	r3,-128(fp)
    1574:	1806d43a 	srli	r3,r3,16
    1578:	10c00015 	stw	r3,0(r2)

	// Comienzo del timer y las interrupciones.
	*(interval_timer_ptr + 1) = 0x7;	// STOP = 0, START = 1, CONT = 1, ITO = 1
    157c:	d0a00017 	ldw	r2,-32768(gp)
    1580:	10800104 	addi	r2,r2,4
    1584:	00c001c4 	movi	r3,7
    1588:	10c00015 	stw	r3,0(r2)
	alt_irq_register(TIMER_IRQ, NULL, interval_timer_isr);  // Habilita int. timer
    158c:	01800034 	movhi	r6,0
    1590:	31845404 	addi	r6,r6,4432
    1594:	000b883a 	mov	r5,zero
    1598:	0009883a 	mov	r4,zero
    159c:	000c2c80 	call	c2c8 <alt_irq_register>

	// Pulsadores
	*(KEY_ptr + 2) = 0xE;  	// Máscara de los pulsadores (keys 3210: 1110) (el 0 es reset)
    15a0:	d0a00117 	ldw	r2,-32764(gp)
    15a4:	10800204 	addi	r2,r2,8
    15a8:	00c00384 	movi	r3,14
    15ac:	10c00015 	stw	r3,0(r2)
	*(KEY_ptr + 3) = 0;		// Registro de los pulsadores a cero
    15b0:	d0a00117 	ldw	r2,-32764(gp)
    15b4:	10800304 	addi	r2,r2,12
    15b8:	10000015 	stw	zero,0(r2)
	alt_irq_register(PUSHBUTTONS_IRQ, NULL, pushbutton_isr);  // Habilitar int. pulsadores
    15bc:	01800034 	movhi	r6,0
    15c0:	31847604 	addi	r6,r6,4568
    15c4:	000b883a 	mov	r5,zero
    15c8:	01000044 	movi	r4,1
    15cc:	000c2c80 	call	c2c8 <alt_irq_register>

	// Sliders
	*(slider_switch_ptr + 2) = 0xFFFF; // Máscara de los pulsadores (keys 3210: 1110) (el 0 es reset)
    15d0:	d0a00217 	ldw	r2,-32760(gp)
    15d4:	10800204 	addi	r2,r2,8
    15d8:	00ffffd4 	movui	r3,65535
    15dc:	10c00015 	stw	r3,0(r2)
	*(slider_switch_ptr + 3) = 0;		 // Registro de los sliders a cero
    15e0:	d0a00217 	ldw	r2,-32760(gp)
    15e4:	10800304 	addi	r2,r2,12
    15e8:	10000015 	stw	zero,0(r2)
	alt_irq_register(SWITCHES_IRQ, NULL, slider_switches_isr);  // Habilitar int. pulsadores
    15ec:	01800034 	movhi	r6,0
    15f0:	3184d704 	addi	r6,r6,4956
    15f4:	000b883a 	mov	r5,zero
    15f8:	01000084 	movi	r4,2
    15fc:	000c2c80 	call	c2c8 <alt_irq_register>
	/* INICIALIZACIÓN DE LA PANTALLA MTL */

	/* BUFFER DE CARACTERES */

	// output text message in the middle of the MTL monitor
	char_buffer_dev_MTL = alt_up_char_buffer_open_dev("/dev/mtl_char_buffer");
    1600:	01000074 	movhi	r4,1
    1604:	2112a504 	addi	r4,r4,19092
    1608:	00105340 	call	10534 <alt_up_char_buffer_open_dev>
    160c:	e0bfe115 	stw	r2,-124(fp)
	if (char_buffer_dev_MTL == NULL) {
    1610:	e0bfe117 	ldw	r2,-124(fp)
    1614:	1000051e 	bne	r2,zero,162c <main+0x230>
		alt_printf("Error: could not open MTL character buffer device\n");
    1618:	01000074 	movhi	r4,1
    161c:	2112ab04 	addi	r4,r4,19116
    1620:	000c5f80 	call	c5f8 <alt_printf>
		return -1;  // error
    1624:	00bfffc4 	movi	r2,-1
    1628:	00001806 	br	168c <main+0x290>
	} else {
		alt_printf("Opened MTL character buffer device\n");
    162c:	01000074 	movhi	r4,1
    1630:	2112b804 	addi	r4,r4,19168
    1634:	000c5f80 	call	c5f8 <alt_printf>
	}

	// Borra el buffer de caracteres de texto
	alt_up_char_buffer_clear(char_buffer_dev_MTL);
    1638:	e13fe117 	ldw	r4,-124(fp)
    163c:	00107380 	call	10738 <alt_up_char_buffer_clear>

	// Dibujar el nombre del alumno en la pantalla.
	// Sólo es necesario llamarlo una vez porque se guarda en foreground.
    alt_up_char_buffer_string(char_buffer_dev_MTL, MTL_text_title, 14, 4);
    1640:	e0bfec04 	addi	r2,fp,-80
    1644:	01c00104 	movi	r7,4
    1648:	01800384 	movi	r6,14
    164c:	100b883a 	mov	r5,r2
    1650:	e13fe117 	ldw	r4,-124(fp)
    1654:	001063c0 	call	1063c <alt_up_char_buffer_string>
    alt_up_char_buffer_string(char_buffer_dev_MTL, MTL_text_name, 16, 25);
    1658:	e0bff604 	addi	r2,fp,-40
    165c:	01c00644 	movi	r7,25
    1660:	01800404 	movi	r6,16
    1664:	100b883a 	mov	r5,r2
    1668:	e13fe117 	ldw	r4,-124(fp)
    166c:	001063c0 	call	1063c <alt_up_char_buffer_string>

    MTL_fill_screen(background_color);
    1670:	d0a7e317 	ldw	r2,-24692(gp)
    1674:	1009883a 	mov	r4,r2
    1678:	000071c0 	call	71c <MTL_fill_screen>

	// espera a que el buffer se libre
	// while (alt_up_pixel_buffer_dma_check_swap_buffers_status(pixel_buffer_dev_MTL));*/


	alt_printf("Main finish\n");
    167c:	01000074 	movhi	r4,1
    1680:	2112c104 	addi	r4,r4,19204
    1684:	000c5f80 	call	c5f8 <alt_printf>
			}
			
			// Swap buffer, para checkear si la pantalla se ha dibujado. 
			alt_up_pixel_buffer_dma_swap_buffers(pixel_buffer_dev_MTL);
		}*/
	}
    1688:	003fff06 	br	1688 <__alt_mem_onchip_memory+0xf7801688>
}
    168c:	e037883a 	mov	sp,fp
    1690:	dfc00117 	ldw	ra,4(sp)
    1694:	df000017 	ldw	fp,0(sp)
    1698:	dec00204 	addi	sp,sp,8
    169c:	f800283a 	ret

000016a0 <__divsi3>:
    16a0:	20001b16 	blt	r4,zero,1710 <__divsi3+0x70>
    16a4:	000f883a 	mov	r7,zero
    16a8:	28001616 	blt	r5,zero,1704 <__divsi3+0x64>
    16ac:	200d883a 	mov	r6,r4
    16b0:	29001a2e 	bgeu	r5,r4,171c <__divsi3+0x7c>
    16b4:	00800804 	movi	r2,32
    16b8:	00c00044 	movi	r3,1
    16bc:	00000106 	br	16c4 <__divsi3+0x24>
    16c0:	10000d26 	beq	r2,zero,16f8 <__divsi3+0x58>
    16c4:	294b883a 	add	r5,r5,r5
    16c8:	10bfffc4 	addi	r2,r2,-1
    16cc:	18c7883a 	add	r3,r3,r3
    16d0:	293ffb36 	bltu	r5,r4,16c0 <__alt_mem_onchip_memory+0xf78016c0>
    16d4:	0005883a 	mov	r2,zero
    16d8:	18000726 	beq	r3,zero,16f8 <__divsi3+0x58>
    16dc:	0005883a 	mov	r2,zero
    16e0:	31400236 	bltu	r6,r5,16ec <__divsi3+0x4c>
    16e4:	314dc83a 	sub	r6,r6,r5
    16e8:	10c4b03a 	or	r2,r2,r3
    16ec:	1806d07a 	srli	r3,r3,1
    16f0:	280ad07a 	srli	r5,r5,1
    16f4:	183ffa1e 	bne	r3,zero,16e0 <__alt_mem_onchip_memory+0xf78016e0>
    16f8:	38000126 	beq	r7,zero,1700 <__divsi3+0x60>
    16fc:	0085c83a 	sub	r2,zero,r2
    1700:	f800283a 	ret
    1704:	014bc83a 	sub	r5,zero,r5
    1708:	39c0005c 	xori	r7,r7,1
    170c:	003fe706 	br	16ac <__alt_mem_onchip_memory+0xf78016ac>
    1710:	0109c83a 	sub	r4,zero,r4
    1714:	01c00044 	movi	r7,1
    1718:	003fe306 	br	16a8 <__alt_mem_onchip_memory+0xf78016a8>
    171c:	00c00044 	movi	r3,1
    1720:	003fee06 	br	16dc <__alt_mem_onchip_memory+0xf78016dc>

00001724 <__modsi3>:
    1724:	20001716 	blt	r4,zero,1784 <__modsi3+0x60>
    1728:	000f883a 	mov	r7,zero
    172c:	2005883a 	mov	r2,r4
    1730:	28001216 	blt	r5,zero,177c <__modsi3+0x58>
    1734:	2900162e 	bgeu	r5,r4,1790 <__modsi3+0x6c>
    1738:	01800804 	movi	r6,32
    173c:	00c00044 	movi	r3,1
    1740:	00000106 	br	1748 <__modsi3+0x24>
    1744:	30000a26 	beq	r6,zero,1770 <__modsi3+0x4c>
    1748:	294b883a 	add	r5,r5,r5
    174c:	31bfffc4 	addi	r6,r6,-1
    1750:	18c7883a 	add	r3,r3,r3
    1754:	293ffb36 	bltu	r5,r4,1744 <__alt_mem_onchip_memory+0xf7801744>
    1758:	18000526 	beq	r3,zero,1770 <__modsi3+0x4c>
    175c:	1806d07a 	srli	r3,r3,1
    1760:	11400136 	bltu	r2,r5,1768 <__modsi3+0x44>
    1764:	1145c83a 	sub	r2,r2,r5
    1768:	280ad07a 	srli	r5,r5,1
    176c:	183ffb1e 	bne	r3,zero,175c <__alt_mem_onchip_memory+0xf780175c>
    1770:	38000126 	beq	r7,zero,1778 <__modsi3+0x54>
    1774:	0085c83a 	sub	r2,zero,r2
    1778:	f800283a 	ret
    177c:	014bc83a 	sub	r5,zero,r5
    1780:	003fec06 	br	1734 <__alt_mem_onchip_memory+0xf7801734>
    1784:	0109c83a 	sub	r4,zero,r4
    1788:	01c00044 	movi	r7,1
    178c:	003fe706 	br	172c <__alt_mem_onchip_memory+0xf780172c>
    1790:	00c00044 	movi	r3,1
    1794:	003ff106 	br	175c <__alt_mem_onchip_memory+0xf780175c>

00001798 <__udivsi3>:
    1798:	200d883a 	mov	r6,r4
    179c:	2900152e 	bgeu	r5,r4,17f4 <__udivsi3+0x5c>
    17a0:	28001416 	blt	r5,zero,17f4 <__udivsi3+0x5c>
    17a4:	00800804 	movi	r2,32
    17a8:	00c00044 	movi	r3,1
    17ac:	00000206 	br	17b8 <__udivsi3+0x20>
    17b0:	10000e26 	beq	r2,zero,17ec <__udivsi3+0x54>
    17b4:	28000516 	blt	r5,zero,17cc <__udivsi3+0x34>
    17b8:	294b883a 	add	r5,r5,r5
    17bc:	10bfffc4 	addi	r2,r2,-1
    17c0:	18c7883a 	add	r3,r3,r3
    17c4:	293ffa36 	bltu	r5,r4,17b0 <__alt_mem_onchip_memory+0xf78017b0>
    17c8:	18000826 	beq	r3,zero,17ec <__udivsi3+0x54>
    17cc:	0005883a 	mov	r2,zero
    17d0:	31400236 	bltu	r6,r5,17dc <__udivsi3+0x44>
    17d4:	314dc83a 	sub	r6,r6,r5
    17d8:	10c4b03a 	or	r2,r2,r3
    17dc:	1806d07a 	srli	r3,r3,1
    17e0:	280ad07a 	srli	r5,r5,1
    17e4:	183ffa1e 	bne	r3,zero,17d0 <__alt_mem_onchip_memory+0xf78017d0>
    17e8:	f800283a 	ret
    17ec:	0005883a 	mov	r2,zero
    17f0:	f800283a 	ret
    17f4:	00c00044 	movi	r3,1
    17f8:	003ff406 	br	17cc <__alt_mem_onchip_memory+0xf78017cc>

000017fc <__umodsi3>:
    17fc:	2005883a 	mov	r2,r4
    1800:	2900122e 	bgeu	r5,r4,184c <__umodsi3+0x50>
    1804:	28001116 	blt	r5,zero,184c <__umodsi3+0x50>
    1808:	01800804 	movi	r6,32
    180c:	00c00044 	movi	r3,1
    1810:	00000206 	br	181c <__umodsi3+0x20>
    1814:	30000c26 	beq	r6,zero,1848 <__umodsi3+0x4c>
    1818:	28000516 	blt	r5,zero,1830 <__umodsi3+0x34>
    181c:	294b883a 	add	r5,r5,r5
    1820:	31bfffc4 	addi	r6,r6,-1
    1824:	18c7883a 	add	r3,r3,r3
    1828:	293ffa36 	bltu	r5,r4,1814 <__alt_mem_onchip_memory+0xf7801814>
    182c:	18000626 	beq	r3,zero,1848 <__umodsi3+0x4c>
    1830:	1806d07a 	srli	r3,r3,1
    1834:	11400136 	bltu	r2,r5,183c <__umodsi3+0x40>
    1838:	1145c83a 	sub	r2,r2,r5
    183c:	280ad07a 	srli	r5,r5,1
    1840:	183ffb1e 	bne	r3,zero,1830 <__alt_mem_onchip_memory+0xf7801830>
    1844:	f800283a 	ret
    1848:	f800283a 	ret
    184c:	00c00044 	movi	r3,1
    1850:	003ff706 	br	1830 <__alt_mem_onchip_memory+0xf7801830>

00001854 <_sprintf_r>:
    1854:	deffe404 	addi	sp,sp,-112
    1858:	2807883a 	mov	r3,r5
    185c:	dfc01a15 	stw	ra,104(sp)
    1860:	d9c01b15 	stw	r7,108(sp)
    1864:	00a00034 	movhi	r2,32768
    1868:	10bfffc4 	addi	r2,r2,-1
    186c:	02008204 	movi	r8,520
    1870:	d8800215 	stw	r2,8(sp)
    1874:	d8800515 	stw	r2,20(sp)
    1878:	d9c01b04 	addi	r7,sp,108
    187c:	d80b883a 	mov	r5,sp
    1880:	00bfffc4 	movi	r2,-1
    1884:	d8c00015 	stw	r3,0(sp)
    1888:	d8c00415 	stw	r3,16(sp)
    188c:	da00030d 	sth	r8,12(sp)
    1890:	d880038d 	sth	r2,14(sp)
    1894:	00019180 	call	1918 <___svfprintf_internal_r>
    1898:	d8c00017 	ldw	r3,0(sp)
    189c:	18000005 	stb	zero,0(r3)
    18a0:	dfc01a17 	ldw	ra,104(sp)
    18a4:	dec01c04 	addi	sp,sp,112
    18a8:	f800283a 	ret

000018ac <sprintf>:
    18ac:	deffe304 	addi	sp,sp,-116
    18b0:	2007883a 	mov	r3,r4
    18b4:	dfc01a15 	stw	ra,104(sp)
    18b8:	d9801b15 	stw	r6,108(sp)
    18bc:	d9c01c15 	stw	r7,112(sp)
    18c0:	01000074 	movhi	r4,1
    18c4:	211ba504 	addi	r4,r4,28308
    18c8:	21000017 	ldw	r4,0(r4)
    18cc:	00a00034 	movhi	r2,32768
    18d0:	10bfffc4 	addi	r2,r2,-1
    18d4:	280d883a 	mov	r6,r5
    18d8:	02008204 	movi	r8,520
    18dc:	d8800215 	stw	r2,8(sp)
    18e0:	d8800515 	stw	r2,20(sp)
    18e4:	d9c01b04 	addi	r7,sp,108
    18e8:	d80b883a 	mov	r5,sp
    18ec:	00bfffc4 	movi	r2,-1
    18f0:	d8c00015 	stw	r3,0(sp)
    18f4:	d8c00415 	stw	r3,16(sp)
    18f8:	da00030d 	sth	r8,12(sp)
    18fc:	d880038d 	sth	r2,14(sp)
    1900:	00019180 	call	1918 <___svfprintf_internal_r>
    1904:	d8c00017 	ldw	r3,0(sp)
    1908:	18000005 	stb	zero,0(r3)
    190c:	dfc01a17 	ldw	ra,104(sp)
    1910:	dec01d04 	addi	sp,sp,116
    1914:	f800283a 	ret

00001918 <___svfprintf_internal_r>:
    1918:	deffb704 	addi	sp,sp,-292
    191c:	dfc04815 	stw	ra,288(sp)
    1920:	ddc04615 	stw	r23,280(sp)
    1924:	d9402c15 	stw	r5,176(sp)
    1928:	d9003915 	stw	r4,228(sp)
    192c:	302f883a 	mov	r23,r6
    1930:	d9c02d15 	stw	r7,180(sp)
    1934:	df004715 	stw	fp,284(sp)
    1938:	dd804515 	stw	r22,276(sp)
    193c:	dd404415 	stw	r21,272(sp)
    1940:	dd004315 	stw	r20,268(sp)
    1944:	dcc04215 	stw	r19,264(sp)
    1948:	dc804115 	stw	r18,260(sp)
    194c:	dc404015 	stw	r17,256(sp)
    1950:	dc003f15 	stw	r16,252(sp)
    1954:	00054240 	call	5424 <_localeconv_r>
    1958:	10800017 	ldw	r2,0(r2)
    195c:	1009883a 	mov	r4,r2
    1960:	d8803415 	stw	r2,208(sp)
    1964:	000702c0 	call	702c <strlen>
    1968:	d8c02c17 	ldw	r3,176(sp)
    196c:	d8803815 	stw	r2,224(sp)
    1970:	1880030b 	ldhu	r2,12(r3)
    1974:	1080200c 	andi	r2,r2,128
    1978:	10000226 	beq	r2,zero,1984 <___svfprintf_internal_r+0x6c>
    197c:	18800417 	ldw	r2,16(r3)
    1980:	10067f26 	beq	r2,zero,3380 <___svfprintf_internal_r+0x1a68>
    1984:	dcc03917 	ldw	r19,228(sp)
    1988:	d8c00404 	addi	r3,sp,16
    198c:	05400074 	movhi	r21,1
    1990:	d9001e04 	addi	r4,sp,120
    1994:	ad52e984 	addi	r21,r21,19366
    1998:	d8c01e15 	stw	r3,120(sp)
    199c:	d8002015 	stw	zero,128(sp)
    19a0:	d8001f15 	stw	zero,124(sp)
    19a4:	d8003315 	stw	zero,204(sp)
    19a8:	d8003615 	stw	zero,216(sp)
    19ac:	d8003715 	stw	zero,220(sp)
    19b0:	1811883a 	mov	r8,r3
    19b4:	d8003a15 	stw	zero,232(sp)
    19b8:	d8003b15 	stw	zero,236(sp)
    19bc:	d8002f15 	stw	zero,188(sp)
    19c0:	d9002815 	stw	r4,160(sp)
    19c4:	b8800007 	ldb	r2,0(r23)
    19c8:	10026726 	beq	r2,zero,2368 <___svfprintf_internal_r+0xa50>
    19cc:	00c00944 	movi	r3,37
    19d0:	b821883a 	mov	r16,r23
    19d4:	10c0021e 	bne	r2,r3,19e0 <___svfprintf_internal_r+0xc8>
    19d8:	00001406 	br	1a2c <___svfprintf_internal_r+0x114>
    19dc:	10c00326 	beq	r2,r3,19ec <___svfprintf_internal_r+0xd4>
    19e0:	84000044 	addi	r16,r16,1
    19e4:	80800007 	ldb	r2,0(r16)
    19e8:	103ffc1e 	bne	r2,zero,19dc <__alt_mem_onchip_memory+0xf78019dc>
    19ec:	85e3c83a 	sub	r17,r16,r23
    19f0:	88000e26 	beq	r17,zero,1a2c <___svfprintf_internal_r+0x114>
    19f4:	d8c02017 	ldw	r3,128(sp)
    19f8:	d8801f17 	ldw	r2,124(sp)
    19fc:	45c00015 	stw	r23,0(r8)
    1a00:	1c47883a 	add	r3,r3,r17
    1a04:	10800044 	addi	r2,r2,1
    1a08:	d8c02015 	stw	r3,128(sp)
    1a0c:	44400115 	stw	r17,4(r8)
    1a10:	d8801f15 	stw	r2,124(sp)
    1a14:	00c001c4 	movi	r3,7
    1a18:	18809716 	blt	r3,r2,1c78 <___svfprintf_internal_r+0x360>
    1a1c:	42000204 	addi	r8,r8,8
    1a20:	d9402f17 	ldw	r5,188(sp)
    1a24:	2c4b883a 	add	r5,r5,r17
    1a28:	d9402f15 	stw	r5,188(sp)
    1a2c:	80800007 	ldb	r2,0(r16)
    1a30:	10009826 	beq	r2,zero,1c94 <___svfprintf_internal_r+0x37c>
    1a34:	84400047 	ldb	r17,1(r16)
    1a38:	00bfffc4 	movi	r2,-1
    1a3c:	85c00044 	addi	r23,r16,1
    1a40:	d8002785 	stb	zero,158(sp)
    1a44:	0007883a 	mov	r3,zero
    1a48:	000f883a 	mov	r7,zero
    1a4c:	d8802915 	stw	r2,164(sp)
    1a50:	d8003115 	stw	zero,196(sp)
    1a54:	0025883a 	mov	r18,zero
    1a58:	01401604 	movi	r5,88
    1a5c:	01800244 	movi	r6,9
    1a60:	02800a84 	movi	r10,42
    1a64:	02401b04 	movi	r9,108
    1a68:	bdc00044 	addi	r23,r23,1
    1a6c:	88bff804 	addi	r2,r17,-32
    1a70:	2882f036 	bltu	r5,r2,2634 <___svfprintf_internal_r+0xd1c>
    1a74:	100490ba 	slli	r2,r2,2
    1a78:	01000034 	movhi	r4,0
    1a7c:	2106a304 	addi	r4,r4,6796
    1a80:	1105883a 	add	r2,r2,r4
    1a84:	10800017 	ldw	r2,0(r2)
    1a88:	1000683a 	jmp	r2
    1a8c:	0000259c 	xori	zero,zero,150
    1a90:	00002634 	movhi	zero,152
    1a94:	00002634 	movhi	zero,152
    1a98:	00002590 	cmplti	zero,zero,150
    1a9c:	00002634 	movhi	zero,152
    1aa0:	00002634 	movhi	zero,152
    1aa4:	00002634 	movhi	zero,152
    1aa8:	00002634 	movhi	zero,152
    1aac:	00002634 	movhi	zero,152
    1ab0:	00002634 	movhi	zero,152
    1ab4:	00001cf0 	cmpltui	zero,zero,115
    1ab8:	000024cc 	andi	zero,zero,147
    1abc:	00002634 	movhi	zero,152
    1ac0:	00001c00 	call	1c0 <alt_irq_handler+0xc4>
    1ac4:	00001d18 	cmpnei	zero,zero,116
    1ac8:	00002634 	movhi	zero,152
    1acc:	00001d8c 	andi	zero,zero,118
    1ad0:	00001d58 	cmpnei	zero,zero,117
    1ad4:	00001d58 	cmpnei	zero,zero,117
    1ad8:	00001d58 	cmpnei	zero,zero,117
    1adc:	00001d58 	cmpnei	zero,zero,117
    1ae0:	00001d58 	cmpnei	zero,zero,117
    1ae4:	00001d58 	cmpnei	zero,zero,117
    1ae8:	00001d58 	cmpnei	zero,zero,117
    1aec:	00001d58 	cmpnei	zero,zero,117
    1af0:	00001d58 	cmpnei	zero,zero,117
    1af4:	00002634 	movhi	zero,152
    1af8:	00002634 	movhi	zero,152
    1afc:	00002634 	movhi	zero,152
    1b00:	00002634 	movhi	zero,152
    1b04:	00002634 	movhi	zero,152
    1b08:	00002634 	movhi	zero,152
    1b0c:	00002634 	movhi	zero,152
    1b10:	00002634 	movhi	zero,152
    1b14:	00002634 	movhi	zero,152
    1b18:	00002634 	movhi	zero,152
    1b1c:	00001e44 	movi	zero,121
    1b20:	00001d98 	cmpnei	zero,zero,118
    1b24:	00002634 	movhi	zero,152
    1b28:	00001d98 	cmpnei	zero,zero,118
    1b2c:	00002634 	movhi	zero,152
    1b30:	00002634 	movhi	zero,152
    1b34:	00002634 	movhi	zero,152
    1b38:	00002634 	movhi	zero,152
    1b3c:	00001e38 	rdprs	zero,zero,120
    1b40:	00002634 	movhi	zero,152
    1b44:	00002634 	movhi	zero,152
    1b48:	00001f00 	call	1f0 <alt_instruction_exception_entry+0x1c>
    1b4c:	00002634 	movhi	zero,152
    1b50:	00002634 	movhi	zero,152
    1b54:	00002634 	movhi	zero,152
    1b58:	00002634 	movhi	zero,152
    1b5c:	00002634 	movhi	zero,152
    1b60:	00002370 	cmpltui	zero,zero,141
    1b64:	00002634 	movhi	zero,152
    1b68:	00002634 	movhi	zero,152
    1b6c:	000023d0 	cmplti	zero,zero,143
    1b70:	00002634 	movhi	zero,152
    1b74:	00002634 	movhi	zero,152
    1b78:	00002634 	movhi	zero,152
    1b7c:	00002634 	movhi	zero,152
    1b80:	00002634 	movhi	zero,152
    1b84:	00002634 	movhi	zero,152
    1b88:	00002634 	movhi	zero,152
    1b8c:	00002634 	movhi	zero,152
    1b90:	00002634 	movhi	zero,152
    1b94:	00002634 	movhi	zero,152
    1b98:	00002480 	call	248 <_start>
    1b9c:	000025bc 	xorhi	zero,zero,150
    1ba0:	00001d98 	cmpnei	zero,zero,118
    1ba4:	00001d98 	cmpnei	zero,zero,118
    1ba8:	00001d98 	cmpnei	zero,zero,118
    1bac:	00002610 	cmplti	zero,zero,152
    1bb0:	000025bc 	xorhi	zero,zero,150
    1bb4:	00002634 	movhi	zero,152
    1bb8:	00002634 	movhi	zero,152
    1bbc:	000025cc 	andi	zero,zero,151
    1bc0:	00002634 	movhi	zero,152
    1bc4:	000025dc 	xori	zero,zero,151
    1bc8:	000024bc 	xorhi	zero,zero,146
    1bcc:	00001c0c 	andi	zero,zero,112
    1bd0:	000024dc 	xori	zero,zero,147
    1bd4:	00002634 	movhi	zero,152
    1bd8:	000024e8 	cmpgeui	zero,zero,147
    1bdc:	00002634 	movhi	zero,152
    1be0:	00002544 	movi	zero,149
    1be4:	00002634 	movhi	zero,152
    1be8:	00002634 	movhi	zero,152
    1bec:	00002554 	movui	zero,149
    1bf0:	d9003117 	ldw	r4,196(sp)
    1bf4:	d8802d15 	stw	r2,180(sp)
    1bf8:	0109c83a 	sub	r4,zero,r4
    1bfc:	d9003115 	stw	r4,196(sp)
    1c00:	94800114 	ori	r18,r18,4
    1c04:	bc400007 	ldb	r17,0(r23)
    1c08:	003f9706 	br	1a68 <__alt_mem_onchip_memory+0xf7801a68>
    1c0c:	00800c04 	movi	r2,48
    1c10:	d9002d17 	ldw	r4,180(sp)
    1c14:	d9402917 	ldw	r5,164(sp)
    1c18:	d8802705 	stb	r2,156(sp)
    1c1c:	00801e04 	movi	r2,120
    1c20:	d8802745 	stb	r2,157(sp)
    1c24:	d8002785 	stb	zero,158(sp)
    1c28:	20c00104 	addi	r3,r4,4
    1c2c:	25000017 	ldw	r20,0(r4)
    1c30:	002d883a 	mov	r22,zero
    1c34:	90800094 	ori	r2,r18,2
    1c38:	28028616 	blt	r5,zero,2654 <___svfprintf_internal_r+0xd3c>
    1c3c:	00bfdfc4 	movi	r2,-129
    1c40:	90a4703a 	and	r18,r18,r2
    1c44:	d8c02d15 	stw	r3,180(sp)
    1c48:	94800094 	ori	r18,r18,2
    1c4c:	a002731e 	bne	r20,zero,261c <___svfprintf_internal_r+0xd04>
    1c50:	00800074 	movhi	r2,1
    1c54:	1092e204 	addi	r2,r2,19336
    1c58:	d8803a15 	stw	r2,232(sp)
    1c5c:	04401e04 	movi	r17,120
    1c60:	d8c02917 	ldw	r3,164(sp)
    1c64:	0039883a 	mov	fp,zero
    1c68:	1801d526 	beq	r3,zero,23c0 <___svfprintf_internal_r+0xaa8>
    1c6c:	0029883a 	mov	r20,zero
    1c70:	002d883a 	mov	r22,zero
    1c74:	0001f106 	br	243c <___svfprintf_internal_r+0xb24>
    1c78:	d9402c17 	ldw	r5,176(sp)
    1c7c:	d9801e04 	addi	r6,sp,120
    1c80:	9809883a 	mov	r4,r19
    1c84:	00070c40 	call	70c4 <__ssprint_r>
    1c88:	1000081e 	bne	r2,zero,1cac <___svfprintf_internal_r+0x394>
    1c8c:	da000404 	addi	r8,sp,16
    1c90:	003f6306 	br	1a20 <__alt_mem_onchip_memory+0xf7801a20>
    1c94:	d8802017 	ldw	r2,128(sp)
    1c98:	10000426 	beq	r2,zero,1cac <___svfprintf_internal_r+0x394>
    1c9c:	d9402c17 	ldw	r5,176(sp)
    1ca0:	d9003917 	ldw	r4,228(sp)
    1ca4:	d9801e04 	addi	r6,sp,120
    1ca8:	00070c40 	call	70c4 <__ssprint_r>
    1cac:	d8802c17 	ldw	r2,176(sp)
    1cb0:	10c0030b 	ldhu	r3,12(r2)
    1cb4:	d8802f17 	ldw	r2,188(sp)
    1cb8:	18c0100c 	andi	r3,r3,64
    1cbc:	1805f51e 	bne	r3,zero,3494 <___svfprintf_internal_r+0x1b7c>
    1cc0:	dfc04817 	ldw	ra,288(sp)
    1cc4:	df004717 	ldw	fp,284(sp)
    1cc8:	ddc04617 	ldw	r23,280(sp)
    1ccc:	dd804517 	ldw	r22,276(sp)
    1cd0:	dd404417 	ldw	r21,272(sp)
    1cd4:	dd004317 	ldw	r20,268(sp)
    1cd8:	dcc04217 	ldw	r19,264(sp)
    1cdc:	dc804117 	ldw	r18,260(sp)
    1ce0:	dc404017 	ldw	r17,256(sp)
    1ce4:	dc003f17 	ldw	r16,252(sp)
    1ce8:	dec04904 	addi	sp,sp,292
    1cec:	f800283a 	ret
    1cf0:	d8802d17 	ldw	r2,180(sp)
    1cf4:	d9002d17 	ldw	r4,180(sp)
    1cf8:	10800017 	ldw	r2,0(r2)
    1cfc:	d8803115 	stw	r2,196(sp)
    1d00:	20800104 	addi	r2,r4,4
    1d04:	d9003117 	ldw	r4,196(sp)
    1d08:	203fb916 	blt	r4,zero,1bf0 <__alt_mem_onchip_memory+0xf7801bf0>
    1d0c:	d8802d15 	stw	r2,180(sp)
    1d10:	bc400007 	ldb	r17,0(r23)
    1d14:	003f5406 	br	1a68 <__alt_mem_onchip_memory+0xf7801a68>
    1d18:	bc400007 	ldb	r17,0(r23)
    1d1c:	bac00044 	addi	r11,r23,1
    1d20:	8a873926 	beq	r17,r10,3a08 <___svfprintf_internal_r+0x20f0>
    1d24:	88bff404 	addi	r2,r17,-48
    1d28:	0009883a 	mov	r4,zero
    1d2c:	30868836 	bltu	r6,r2,3750 <___svfprintf_internal_r+0x1e38>
    1d30:	5c400007 	ldb	r17,0(r11)
    1d34:	210002a4 	muli	r4,r4,10
    1d38:	5dc00044 	addi	r23,r11,1
    1d3c:	b817883a 	mov	r11,r23
    1d40:	2089883a 	add	r4,r4,r2
    1d44:	88bff404 	addi	r2,r17,-48
    1d48:	30bff92e 	bgeu	r6,r2,1d30 <__alt_mem_onchip_memory+0xf7801d30>
    1d4c:	2005d716 	blt	r4,zero,34ac <___svfprintf_internal_r+0x1b94>
    1d50:	d9002915 	stw	r4,164(sp)
    1d54:	003f4506 	br	1a6c <__alt_mem_onchip_memory+0xf7801a6c>
    1d58:	b809883a 	mov	r4,r23
    1d5c:	d8003115 	stw	zero,196(sp)
    1d60:	88bff404 	addi	r2,r17,-48
    1d64:	0017883a 	mov	r11,zero
    1d68:	24400007 	ldb	r17,0(r4)
    1d6c:	5ac002a4 	muli	r11,r11,10
    1d70:	bdc00044 	addi	r23,r23,1
    1d74:	b809883a 	mov	r4,r23
    1d78:	12d7883a 	add	r11,r2,r11
    1d7c:	88bff404 	addi	r2,r17,-48
    1d80:	30bff92e 	bgeu	r6,r2,1d68 <__alt_mem_onchip_memory+0xf7801d68>
    1d84:	dac03115 	stw	r11,196(sp)
    1d88:	003f3806 	br	1a6c <__alt_mem_onchip_memory+0xf7801a6c>
    1d8c:	94802014 	ori	r18,r18,128
    1d90:	bc400007 	ldb	r17,0(r23)
    1d94:	003f3406 	br	1a68 <__alt_mem_onchip_memory+0xf7801a68>
    1d98:	18c03fcc 	andi	r3,r3,255
    1d9c:	1807471e 	bne	r3,zero,3abc <___svfprintf_internal_r+0x21a4>
    1da0:	9080020c 	andi	r2,r18,8
    1da4:	10047d26 	beq	r2,zero,2f9c <___svfprintf_internal_r+0x1684>
    1da8:	d8c02d17 	ldw	r3,180(sp)
    1dac:	d9002d17 	ldw	r4,180(sp)
    1db0:	d9402d17 	ldw	r5,180(sp)
    1db4:	18c00017 	ldw	r3,0(r3)
    1db8:	21000117 	ldw	r4,4(r4)
    1dbc:	29400204 	addi	r5,r5,8
    1dc0:	d8c03615 	stw	r3,216(sp)
    1dc4:	d9003715 	stw	r4,220(sp)
    1dc8:	d9402d15 	stw	r5,180(sp)
    1dcc:	d9003617 	ldw	r4,216(sp)
    1dd0:	d9403717 	ldw	r5,220(sp)
    1dd4:	da003e15 	stw	r8,248(sp)
    1dd8:	04000044 	movi	r16,1
    1ddc:	0006e880 	call	6e88 <__fpclassifyd>
    1de0:	da003e17 	ldw	r8,248(sp)
    1de4:	14044b1e 	bne	r2,r16,2f14 <___svfprintf_internal_r+0x15fc>
    1de8:	d9003617 	ldw	r4,216(sp)
    1dec:	d9403717 	ldw	r5,220(sp)
    1df0:	000d883a 	mov	r6,zero
    1df4:	000f883a 	mov	r7,zero
    1df8:	000af580 	call	af58 <__ledf2>
    1dfc:	da003e17 	ldw	r8,248(sp)
    1e00:	1005f316 	blt	r2,zero,35d0 <___svfprintf_internal_r+0x1cb8>
    1e04:	df002783 	ldbu	fp,158(sp)
    1e08:	008011c4 	movi	r2,71
    1e0c:	1445590e 	bge	r2,r17,3374 <___svfprintf_internal_r+0x1a5c>
    1e10:	04000074 	movhi	r16,1
    1e14:	8412da04 	addi	r16,r16,19304
    1e18:	00c000c4 	movi	r3,3
    1e1c:	00bfdfc4 	movi	r2,-129
    1e20:	d8c02a15 	stw	r3,168(sp)
    1e24:	90a4703a 	and	r18,r18,r2
    1e28:	d8c02e15 	stw	r3,184(sp)
    1e2c:	d8002915 	stw	zero,164(sp)
    1e30:	d8003215 	stw	zero,200(sp)
    1e34:	00006606 	br	1fd0 <___svfprintf_internal_r+0x6b8>
    1e38:	94800214 	ori	r18,r18,8
    1e3c:	bc400007 	ldb	r17,0(r23)
    1e40:	003f0906 	br	1a68 <__alt_mem_onchip_memory+0xf7801a68>
    1e44:	18c03fcc 	andi	r3,r3,255
    1e48:	1807181e 	bne	r3,zero,3aac <___svfprintf_internal_r+0x2194>
    1e4c:	94800414 	ori	r18,r18,16
    1e50:	9080080c 	andi	r2,r18,32
    1e54:	10039626 	beq	r2,zero,2cb0 <___svfprintf_internal_r+0x1398>
    1e58:	d9402d17 	ldw	r5,180(sp)
    1e5c:	28800117 	ldw	r2,4(r5)
    1e60:	2d000017 	ldw	r20,0(r5)
    1e64:	29400204 	addi	r5,r5,8
    1e68:	d9402d15 	stw	r5,180(sp)
    1e6c:	102d883a 	mov	r22,r2
    1e70:	10039816 	blt	r2,zero,2cd4 <___svfprintf_internal_r+0x13bc>
    1e74:	d9402917 	ldw	r5,164(sp)
    1e78:	df002783 	ldbu	fp,158(sp)
    1e7c:	2803ab16 	blt	r5,zero,2d2c <___svfprintf_internal_r+0x1414>
    1e80:	00ffdfc4 	movi	r3,-129
    1e84:	a584b03a 	or	r2,r20,r22
    1e88:	90e4703a 	and	r18,r18,r3
    1e8c:	10014a26 	beq	r2,zero,23b8 <___svfprintf_internal_r+0xaa0>
    1e90:	b0034b26 	beq	r22,zero,2bc0 <___svfprintf_internal_r+0x12a8>
    1e94:	dc402a15 	stw	r17,168(sp)
    1e98:	dc001e04 	addi	r16,sp,120
    1e9c:	b023883a 	mov	r17,r22
    1ea0:	402d883a 	mov	r22,r8
    1ea4:	a009883a 	mov	r4,r20
    1ea8:	880b883a 	mov	r5,r17
    1eac:	01800284 	movi	r6,10
    1eb0:	000f883a 	mov	r7,zero
    1eb4:	00097280 	call	9728 <__umoddi3>
    1eb8:	10800c04 	addi	r2,r2,48
    1ebc:	843fffc4 	addi	r16,r16,-1
    1ec0:	a009883a 	mov	r4,r20
    1ec4:	880b883a 	mov	r5,r17
    1ec8:	80800005 	stb	r2,0(r16)
    1ecc:	01800284 	movi	r6,10
    1ed0:	000f883a 	mov	r7,zero
    1ed4:	00091b00 	call	91b0 <__udivdi3>
    1ed8:	1029883a 	mov	r20,r2
    1edc:	10c4b03a 	or	r2,r2,r3
    1ee0:	1823883a 	mov	r17,r3
    1ee4:	103fef1e 	bne	r2,zero,1ea4 <__alt_mem_onchip_memory+0xf7801ea4>
    1ee8:	d8c02817 	ldw	r3,160(sp)
    1eec:	dc402a17 	ldw	r17,168(sp)
    1ef0:	b011883a 	mov	r8,r22
    1ef4:	1c07c83a 	sub	r3,r3,r16
    1ef8:	d8c02e15 	stw	r3,184(sp)
    1efc:	00002e06 	br	1fb8 <___svfprintf_internal_r+0x6a0>
    1f00:	18c03fcc 	andi	r3,r3,255
    1f04:	1806e71e 	bne	r3,zero,3aa4 <___svfprintf_internal_r+0x218c>
    1f08:	94800414 	ori	r18,r18,16
    1f0c:	9080080c 	andi	r2,r18,32
    1f10:	1002d426 	beq	r2,zero,2a64 <___svfprintf_internal_r+0x114c>
    1f14:	d9402d17 	ldw	r5,180(sp)
    1f18:	d8c02917 	ldw	r3,164(sp)
    1f1c:	d8002785 	stb	zero,158(sp)
    1f20:	28800204 	addi	r2,r5,8
    1f24:	2d000017 	ldw	r20,0(r5)
    1f28:	2d800117 	ldw	r22,4(r5)
    1f2c:	18041516 	blt	r3,zero,2f84 <___svfprintf_internal_r+0x166c>
    1f30:	013fdfc4 	movi	r4,-129
    1f34:	a586b03a 	or	r3,r20,r22
    1f38:	d8802d15 	stw	r2,180(sp)
    1f3c:	9124703a 	and	r18,r18,r4
    1f40:	1802d51e 	bne	r3,zero,2a98 <___svfprintf_internal_r+0x1180>
    1f44:	d9402917 	ldw	r5,164(sp)
    1f48:	0039883a 	mov	fp,zero
    1f4c:	2806be26 	beq	r5,zero,3a48 <___svfprintf_internal_r+0x2130>
    1f50:	0029883a 	mov	r20,zero
    1f54:	002d883a 	mov	r22,zero
    1f58:	dc001e04 	addi	r16,sp,120
    1f5c:	a006d0fa 	srli	r3,r20,3
    1f60:	b008977a 	slli	r4,r22,29
    1f64:	b02cd0fa 	srli	r22,r22,3
    1f68:	a50001cc 	andi	r20,r20,7
    1f6c:	a0800c04 	addi	r2,r20,48
    1f70:	843fffc4 	addi	r16,r16,-1
    1f74:	20e8b03a 	or	r20,r4,r3
    1f78:	80800005 	stb	r2,0(r16)
    1f7c:	a586b03a 	or	r3,r20,r22
    1f80:	183ff61e 	bne	r3,zero,1f5c <__alt_mem_onchip_memory+0xf7801f5c>
    1f84:	90c0004c 	andi	r3,r18,1
    1f88:	18013926 	beq	r3,zero,2470 <___svfprintf_internal_r+0xb58>
    1f8c:	10803fcc 	andi	r2,r2,255
    1f90:	1080201c 	xori	r2,r2,128
    1f94:	10bfe004 	addi	r2,r2,-128
    1f98:	00c00c04 	movi	r3,48
    1f9c:	10c13426 	beq	r2,r3,2470 <___svfprintf_internal_r+0xb58>
    1fa0:	80ffffc5 	stb	r3,-1(r16)
    1fa4:	d8c02817 	ldw	r3,160(sp)
    1fa8:	80bfffc4 	addi	r2,r16,-1
    1fac:	1021883a 	mov	r16,r2
    1fb0:	1887c83a 	sub	r3,r3,r2
    1fb4:	d8c02e15 	stw	r3,184(sp)
    1fb8:	d8802e17 	ldw	r2,184(sp)
    1fbc:	d9002917 	ldw	r4,164(sp)
    1fc0:	1100010e 	bge	r2,r4,1fc8 <___svfprintf_internal_r+0x6b0>
    1fc4:	2005883a 	mov	r2,r4
    1fc8:	d8802a15 	stw	r2,168(sp)
    1fcc:	d8003215 	stw	zero,200(sp)
    1fd0:	e7003fcc 	andi	fp,fp,255
    1fd4:	e700201c 	xori	fp,fp,128
    1fd8:	e73fe004 	addi	fp,fp,-128
    1fdc:	e0000326 	beq	fp,zero,1fec <___svfprintf_internal_r+0x6d4>
    1fe0:	d8c02a17 	ldw	r3,168(sp)
    1fe4:	18c00044 	addi	r3,r3,1
    1fe8:	d8c02a15 	stw	r3,168(sp)
    1fec:	90c0008c 	andi	r3,r18,2
    1ff0:	d8c02b15 	stw	r3,172(sp)
    1ff4:	18000326 	beq	r3,zero,2004 <___svfprintf_internal_r+0x6ec>
    1ff8:	d8c02a17 	ldw	r3,168(sp)
    1ffc:	18c00084 	addi	r3,r3,2
    2000:	d8c02a15 	stw	r3,168(sp)
    2004:	90c0210c 	andi	r3,r18,132
    2008:	d8c03015 	stw	r3,192(sp)
    200c:	1801a11e 	bne	r3,zero,2694 <___svfprintf_internal_r+0xd7c>
    2010:	d9003117 	ldw	r4,196(sp)
    2014:	d8c02a17 	ldw	r3,168(sp)
    2018:	20e9c83a 	sub	r20,r4,r3
    201c:	05019d0e 	bge	zero,r20,2694 <___svfprintf_internal_r+0xd7c>
    2020:	02400404 	movi	r9,16
    2024:	d8c02017 	ldw	r3,128(sp)
    2028:	d8801f17 	ldw	r2,124(sp)
    202c:	4d051b0e 	bge	r9,r20,349c <___svfprintf_internal_r+0x1b84>
    2030:	01400074 	movhi	r5,1
    2034:	2952ed84 	addi	r5,r5,19382
    2038:	dc403c15 	stw	r17,240(sp)
    203c:	d9403515 	stw	r5,212(sp)
    2040:	a023883a 	mov	r17,r20
    2044:	482d883a 	mov	r22,r9
    2048:	9029883a 	mov	r20,r18
    204c:	070001c4 	movi	fp,7
    2050:	8025883a 	mov	r18,r16
    2054:	dc002c17 	ldw	r16,176(sp)
    2058:	00000306 	br	2068 <___svfprintf_internal_r+0x750>
    205c:	8c7ffc04 	addi	r17,r17,-16
    2060:	42000204 	addi	r8,r8,8
    2064:	b440130e 	bge	r22,r17,20b4 <___svfprintf_internal_r+0x79c>
    2068:	01000074 	movhi	r4,1
    206c:	18c00404 	addi	r3,r3,16
    2070:	10800044 	addi	r2,r2,1
    2074:	2112ed84 	addi	r4,r4,19382
    2078:	41000015 	stw	r4,0(r8)
    207c:	45800115 	stw	r22,4(r8)
    2080:	d8c02015 	stw	r3,128(sp)
    2084:	d8801f15 	stw	r2,124(sp)
    2088:	e0bff40e 	bge	fp,r2,205c <__alt_mem_onchip_memory+0xf780205c>
    208c:	d9801e04 	addi	r6,sp,120
    2090:	800b883a 	mov	r5,r16
    2094:	9809883a 	mov	r4,r19
    2098:	00070c40 	call	70c4 <__ssprint_r>
    209c:	103f031e 	bne	r2,zero,1cac <__alt_mem_onchip_memory+0xf7801cac>
    20a0:	8c7ffc04 	addi	r17,r17,-16
    20a4:	d8c02017 	ldw	r3,128(sp)
    20a8:	d8801f17 	ldw	r2,124(sp)
    20ac:	da000404 	addi	r8,sp,16
    20b0:	b47fed16 	blt	r22,r17,2068 <__alt_mem_onchip_memory+0xf7802068>
    20b4:	9021883a 	mov	r16,r18
    20b8:	a025883a 	mov	r18,r20
    20bc:	8829883a 	mov	r20,r17
    20c0:	dc403c17 	ldw	r17,240(sp)
    20c4:	d9403517 	ldw	r5,212(sp)
    20c8:	a0c7883a 	add	r3,r20,r3
    20cc:	10800044 	addi	r2,r2,1
    20d0:	41400015 	stw	r5,0(r8)
    20d4:	45000115 	stw	r20,4(r8)
    20d8:	d8c02015 	stw	r3,128(sp)
    20dc:	d8801f15 	stw	r2,124(sp)
    20e0:	010001c4 	movi	r4,7
    20e4:	20829f16 	blt	r4,r2,2b64 <___svfprintf_internal_r+0x124c>
    20e8:	df002787 	ldb	fp,158(sp)
    20ec:	42000204 	addi	r8,r8,8
    20f0:	e0000c26 	beq	fp,zero,2124 <___svfprintf_internal_r+0x80c>
    20f4:	d8801f17 	ldw	r2,124(sp)
    20f8:	d9002784 	addi	r4,sp,158
    20fc:	18c00044 	addi	r3,r3,1
    2100:	10800044 	addi	r2,r2,1
    2104:	41000015 	stw	r4,0(r8)
    2108:	01000044 	movi	r4,1
    210c:	41000115 	stw	r4,4(r8)
    2110:	d8c02015 	stw	r3,128(sp)
    2114:	d8801f15 	stw	r2,124(sp)
    2118:	010001c4 	movi	r4,7
    211c:	20823816 	blt	r4,r2,2a00 <___svfprintf_internal_r+0x10e8>
    2120:	42000204 	addi	r8,r8,8
    2124:	d8802b17 	ldw	r2,172(sp)
    2128:	10000c26 	beq	r2,zero,215c <___svfprintf_internal_r+0x844>
    212c:	d8801f17 	ldw	r2,124(sp)
    2130:	d9002704 	addi	r4,sp,156
    2134:	18c00084 	addi	r3,r3,2
    2138:	10800044 	addi	r2,r2,1
    213c:	41000015 	stw	r4,0(r8)
    2140:	01000084 	movi	r4,2
    2144:	41000115 	stw	r4,4(r8)
    2148:	d8c02015 	stw	r3,128(sp)
    214c:	d8801f15 	stw	r2,124(sp)
    2150:	010001c4 	movi	r4,7
    2154:	20823216 	blt	r4,r2,2a20 <___svfprintf_internal_r+0x1108>
    2158:	42000204 	addi	r8,r8,8
    215c:	d9003017 	ldw	r4,192(sp)
    2160:	00802004 	movi	r2,128
    2164:	20819726 	beq	r4,r2,27c4 <___svfprintf_internal_r+0xeac>
    2168:	d9402917 	ldw	r5,164(sp)
    216c:	d8802e17 	ldw	r2,184(sp)
    2170:	28adc83a 	sub	r22,r5,r2
    2174:	05802f0e 	bge	zero,r22,2234 <___svfprintf_internal_r+0x91c>
    2178:	07000404 	movi	fp,16
    217c:	d8801f17 	ldw	r2,124(sp)
    2180:	e583c00e 	bge	fp,r22,3084 <___svfprintf_internal_r+0x176c>
    2184:	01400074 	movhi	r5,1
    2188:	2952e984 	addi	r5,r5,19366
    218c:	dc402915 	stw	r17,164(sp)
    2190:	d9402b15 	stw	r5,172(sp)
    2194:	b023883a 	mov	r17,r22
    2198:	050001c4 	movi	r20,7
    219c:	902d883a 	mov	r22,r18
    21a0:	8025883a 	mov	r18,r16
    21a4:	dc002c17 	ldw	r16,176(sp)
    21a8:	00000306 	br	21b8 <___svfprintf_internal_r+0x8a0>
    21ac:	8c7ffc04 	addi	r17,r17,-16
    21b0:	42000204 	addi	r8,r8,8
    21b4:	e440110e 	bge	fp,r17,21fc <___svfprintf_internal_r+0x8e4>
    21b8:	18c00404 	addi	r3,r3,16
    21bc:	10800044 	addi	r2,r2,1
    21c0:	45400015 	stw	r21,0(r8)
    21c4:	47000115 	stw	fp,4(r8)
    21c8:	d8c02015 	stw	r3,128(sp)
    21cc:	d8801f15 	stw	r2,124(sp)
    21d0:	a0bff60e 	bge	r20,r2,21ac <__alt_mem_onchip_memory+0xf78021ac>
    21d4:	d9801e04 	addi	r6,sp,120
    21d8:	800b883a 	mov	r5,r16
    21dc:	9809883a 	mov	r4,r19
    21e0:	00070c40 	call	70c4 <__ssprint_r>
    21e4:	103eb11e 	bne	r2,zero,1cac <__alt_mem_onchip_memory+0xf7801cac>
    21e8:	8c7ffc04 	addi	r17,r17,-16
    21ec:	d8c02017 	ldw	r3,128(sp)
    21f0:	d8801f17 	ldw	r2,124(sp)
    21f4:	da000404 	addi	r8,sp,16
    21f8:	e47fef16 	blt	fp,r17,21b8 <__alt_mem_onchip_memory+0xf78021b8>
    21fc:	9021883a 	mov	r16,r18
    2200:	b025883a 	mov	r18,r22
    2204:	882d883a 	mov	r22,r17
    2208:	dc402917 	ldw	r17,164(sp)
    220c:	d9002b17 	ldw	r4,172(sp)
    2210:	1d87883a 	add	r3,r3,r22
    2214:	10800044 	addi	r2,r2,1
    2218:	41000015 	stw	r4,0(r8)
    221c:	45800115 	stw	r22,4(r8)
    2220:	d8c02015 	stw	r3,128(sp)
    2224:	d8801f15 	stw	r2,124(sp)
    2228:	010001c4 	movi	r4,7
    222c:	2081ec16 	blt	r4,r2,29e0 <___svfprintf_internal_r+0x10c8>
    2230:	42000204 	addi	r8,r8,8
    2234:	9080400c 	andi	r2,r18,256
    2238:	1001181e 	bne	r2,zero,269c <___svfprintf_internal_r+0xd84>
    223c:	d9402e17 	ldw	r5,184(sp)
    2240:	d8801f17 	ldw	r2,124(sp)
    2244:	44000015 	stw	r16,0(r8)
    2248:	1947883a 	add	r3,r3,r5
    224c:	10800044 	addi	r2,r2,1
    2250:	41400115 	stw	r5,4(r8)
    2254:	d8c02015 	stw	r3,128(sp)
    2258:	d8801f15 	stw	r2,124(sp)
    225c:	010001c4 	movi	r4,7
    2260:	2081d116 	blt	r4,r2,29a8 <___svfprintf_internal_r+0x1090>
    2264:	42000204 	addi	r8,r8,8
    2268:	9480010c 	andi	r18,r18,4
    226c:	90003226 	beq	r18,zero,2338 <___svfprintf_internal_r+0xa20>
    2270:	d9403117 	ldw	r5,196(sp)
    2274:	d8802a17 	ldw	r2,168(sp)
    2278:	28a1c83a 	sub	r16,r5,r2
    227c:	04002e0e 	bge	zero,r16,2338 <___svfprintf_internal_r+0xa20>
    2280:	04400404 	movi	r17,16
    2284:	d8801f17 	ldw	r2,124(sp)
    2288:	8c04b90e 	bge	r17,r16,3570 <___svfprintf_internal_r+0x1c58>
    228c:	01400074 	movhi	r5,1
    2290:	2952ed84 	addi	r5,r5,19382
    2294:	d9403515 	stw	r5,212(sp)
    2298:	048001c4 	movi	r18,7
    229c:	dd002c17 	ldw	r20,176(sp)
    22a0:	00000306 	br	22b0 <___svfprintf_internal_r+0x998>
    22a4:	843ffc04 	addi	r16,r16,-16
    22a8:	42000204 	addi	r8,r8,8
    22ac:	8c00130e 	bge	r17,r16,22fc <___svfprintf_internal_r+0x9e4>
    22b0:	01000074 	movhi	r4,1
    22b4:	18c00404 	addi	r3,r3,16
    22b8:	10800044 	addi	r2,r2,1
    22bc:	2112ed84 	addi	r4,r4,19382
    22c0:	41000015 	stw	r4,0(r8)
    22c4:	44400115 	stw	r17,4(r8)
    22c8:	d8c02015 	stw	r3,128(sp)
    22cc:	d8801f15 	stw	r2,124(sp)
    22d0:	90bff40e 	bge	r18,r2,22a4 <__alt_mem_onchip_memory+0xf78022a4>
    22d4:	d9801e04 	addi	r6,sp,120
    22d8:	a00b883a 	mov	r5,r20
    22dc:	9809883a 	mov	r4,r19
    22e0:	00070c40 	call	70c4 <__ssprint_r>
    22e4:	103e711e 	bne	r2,zero,1cac <__alt_mem_onchip_memory+0xf7801cac>
    22e8:	843ffc04 	addi	r16,r16,-16
    22ec:	d8c02017 	ldw	r3,128(sp)
    22f0:	d8801f17 	ldw	r2,124(sp)
    22f4:	da000404 	addi	r8,sp,16
    22f8:	8c3fed16 	blt	r17,r16,22b0 <__alt_mem_onchip_memory+0xf78022b0>
    22fc:	d9403517 	ldw	r5,212(sp)
    2300:	1c07883a 	add	r3,r3,r16
    2304:	10800044 	addi	r2,r2,1
    2308:	41400015 	stw	r5,0(r8)
    230c:	44000115 	stw	r16,4(r8)
    2310:	d8c02015 	stw	r3,128(sp)
    2314:	d8801f15 	stw	r2,124(sp)
    2318:	010001c4 	movi	r4,7
    231c:	2080060e 	bge	r4,r2,2338 <___svfprintf_internal_r+0xa20>
    2320:	d9402c17 	ldw	r5,176(sp)
    2324:	d9801e04 	addi	r6,sp,120
    2328:	9809883a 	mov	r4,r19
    232c:	00070c40 	call	70c4 <__ssprint_r>
    2330:	103e5e1e 	bne	r2,zero,1cac <__alt_mem_onchip_memory+0xf7801cac>
    2334:	d8c02017 	ldw	r3,128(sp)
    2338:	d8803117 	ldw	r2,196(sp)
    233c:	d9002a17 	ldw	r4,168(sp)
    2340:	1100010e 	bge	r2,r4,2348 <___svfprintf_internal_r+0xa30>
    2344:	2005883a 	mov	r2,r4
    2348:	d9402f17 	ldw	r5,188(sp)
    234c:	288b883a 	add	r5,r5,r2
    2350:	d9402f15 	stw	r5,188(sp)
    2354:	18019c1e 	bne	r3,zero,29c8 <___svfprintf_internal_r+0x10b0>
    2358:	b8800007 	ldb	r2,0(r23)
    235c:	d8001f15 	stw	zero,124(sp)
    2360:	da000404 	addi	r8,sp,16
    2364:	103d991e 	bne	r2,zero,19cc <__alt_mem_onchip_memory+0xf78019cc>
    2368:	b821883a 	mov	r16,r23
    236c:	003daf06 	br	1a2c <__alt_mem_onchip_memory+0xf7801a2c>
    2370:	18c03fcc 	andi	r3,r3,255
    2374:	1805c71e 	bne	r3,zero,3a94 <___svfprintf_internal_r+0x217c>
    2378:	94800414 	ori	r18,r18,16
    237c:	9080080c 	andi	r2,r18,32
    2380:	10020126 	beq	r2,zero,2b88 <___svfprintf_internal_r+0x1270>
    2384:	d8802d17 	ldw	r2,180(sp)
    2388:	d9002917 	ldw	r4,164(sp)
    238c:	d8002785 	stb	zero,158(sp)
    2390:	10c00204 	addi	r3,r2,8
    2394:	15000017 	ldw	r20,0(r2)
    2398:	15800117 	ldw	r22,4(r2)
    239c:	20038e16 	blt	r4,zero,31d8 <___svfprintf_internal_r+0x18c0>
    23a0:	013fdfc4 	movi	r4,-129
    23a4:	a584b03a 	or	r2,r20,r22
    23a8:	d8c02d15 	stw	r3,180(sp)
    23ac:	9124703a 	and	r18,r18,r4
    23b0:	0039883a 	mov	fp,zero
    23b4:	103eb61e 	bne	r2,zero,1e90 <__alt_mem_onchip_memory+0xf7801e90>
    23b8:	d8802917 	ldw	r2,164(sp)
    23bc:	1002c81e 	bne	r2,zero,2ee0 <___svfprintf_internal_r+0x15c8>
    23c0:	d8002915 	stw	zero,164(sp)
    23c4:	d8002e15 	stw	zero,184(sp)
    23c8:	dc001e04 	addi	r16,sp,120
    23cc:	003efa06 	br	1fb8 <__alt_mem_onchip_memory+0xf7801fb8>
    23d0:	18c03fcc 	andi	r3,r3,255
    23d4:	1805ad1e 	bne	r3,zero,3a8c <___svfprintf_internal_r+0x2174>
    23d8:	01400074 	movhi	r5,1
    23dc:	2952dd04 	addi	r5,r5,19316
    23e0:	d9403a15 	stw	r5,232(sp)
    23e4:	9080080c 	andi	r2,r18,32
    23e8:	10006126 	beq	r2,zero,2570 <___svfprintf_internal_r+0xc58>
    23ec:	d8802d17 	ldw	r2,180(sp)
    23f0:	15000017 	ldw	r20,0(r2)
    23f4:	15800117 	ldw	r22,4(r2)
    23f8:	10800204 	addi	r2,r2,8
    23fc:	d8802d15 	stw	r2,180(sp)
    2400:	9080004c 	andi	r2,r18,1
    2404:	10018e26 	beq	r2,zero,2a40 <___svfprintf_internal_r+0x1128>
    2408:	a584b03a 	or	r2,r20,r22
    240c:	10030926 	beq	r2,zero,3034 <___svfprintf_internal_r+0x171c>
    2410:	d8c02917 	ldw	r3,164(sp)
    2414:	00800c04 	movi	r2,48
    2418:	d8802705 	stb	r2,156(sp)
    241c:	dc402745 	stb	r17,157(sp)
    2420:	d8002785 	stb	zero,158(sp)
    2424:	90800094 	ori	r2,r18,2
    2428:	18048716 	blt	r3,zero,3648 <___svfprintf_internal_r+0x1d30>
    242c:	00bfdfc4 	movi	r2,-129
    2430:	90a4703a 	and	r18,r18,r2
    2434:	94800094 	ori	r18,r18,2
    2438:	0039883a 	mov	fp,zero
    243c:	d9003a17 	ldw	r4,232(sp)
    2440:	dc001e04 	addi	r16,sp,120
    2444:	a08003cc 	andi	r2,r20,15
    2448:	b006973a 	slli	r3,r22,28
    244c:	2085883a 	add	r2,r4,r2
    2450:	a028d13a 	srli	r20,r20,4
    2454:	10800003 	ldbu	r2,0(r2)
    2458:	b02cd13a 	srli	r22,r22,4
    245c:	843fffc4 	addi	r16,r16,-1
    2460:	1d28b03a 	or	r20,r3,r20
    2464:	80800005 	stb	r2,0(r16)
    2468:	a584b03a 	or	r2,r20,r22
    246c:	103ff51e 	bne	r2,zero,2444 <__alt_mem_onchip_memory+0xf7802444>
    2470:	d8c02817 	ldw	r3,160(sp)
    2474:	1c07c83a 	sub	r3,r3,r16
    2478:	d8c02e15 	stw	r3,184(sp)
    247c:	003ece06 	br	1fb8 <__alt_mem_onchip_memory+0xf7801fb8>
    2480:	d8c02d17 	ldw	r3,180(sp)
    2484:	d9002d17 	ldw	r4,180(sp)
    2488:	d8002785 	stb	zero,158(sp)
    248c:	18800017 	ldw	r2,0(r3)
    2490:	21000104 	addi	r4,r4,4
    2494:	00c00044 	movi	r3,1
    2498:	d8c02a15 	stw	r3,168(sp)
    249c:	d8801405 	stb	r2,80(sp)
    24a0:	d9002d15 	stw	r4,180(sp)
    24a4:	d8c02e15 	stw	r3,184(sp)
    24a8:	d8002915 	stw	zero,164(sp)
    24ac:	d8003215 	stw	zero,200(sp)
    24b0:	dc001404 	addi	r16,sp,80
    24b4:	0039883a 	mov	fp,zero
    24b8:	003ecc06 	br	1fec <__alt_mem_onchip_memory+0xf7801fec>
    24bc:	18c03fcc 	andi	r3,r3,255
    24c0:	183e9226 	beq	r3,zero,1f0c <__alt_mem_onchip_memory+0xf7801f0c>
    24c4:	d9c02785 	stb	r7,158(sp)
    24c8:	003e9006 	br	1f0c <__alt_mem_onchip_memory+0xf7801f0c>
    24cc:	00c00044 	movi	r3,1
    24d0:	01c00ac4 	movi	r7,43
    24d4:	bc400007 	ldb	r17,0(r23)
    24d8:	003d6306 	br	1a68 <__alt_mem_onchip_memory+0xf7801a68>
    24dc:	94800814 	ori	r18,r18,32
    24e0:	bc400007 	ldb	r17,0(r23)
    24e4:	003d6006 	br	1a68 <__alt_mem_onchip_memory+0xf7801a68>
    24e8:	d8c02d17 	ldw	r3,180(sp)
    24ec:	d8002785 	stb	zero,158(sp)
    24f0:	1c000017 	ldw	r16,0(r3)
    24f4:	1d000104 	addi	r20,r3,4
    24f8:	80040f26 	beq	r16,zero,3538 <___svfprintf_internal_r+0x1c20>
    24fc:	d9002917 	ldw	r4,164(sp)
    2500:	2003dc16 	blt	r4,zero,3474 <___svfprintf_internal_r+0x1b5c>
    2504:	200d883a 	mov	r6,r4
    2508:	000b883a 	mov	r5,zero
    250c:	8009883a 	mov	r4,r16
    2510:	da003e15 	stw	r8,248(sp)
    2514:	0005c600 	call	5c60 <memchr>
    2518:	da003e17 	ldw	r8,248(sp)
    251c:	10045826 	beq	r2,zero,3680 <___svfprintf_internal_r+0x1d68>
    2520:	1405c83a 	sub	r2,r2,r16
    2524:	d8802e15 	stw	r2,184(sp)
    2528:	1003d816 	blt	r2,zero,348c <___svfprintf_internal_r+0x1b74>
    252c:	df002783 	ldbu	fp,158(sp)
    2530:	d8802a15 	stw	r2,168(sp)
    2534:	dd002d15 	stw	r20,180(sp)
    2538:	d8002915 	stw	zero,164(sp)
    253c:	d8003215 	stw	zero,200(sp)
    2540:	003ea306 	br	1fd0 <__alt_mem_onchip_memory+0xf7801fd0>
    2544:	18c03fcc 	andi	r3,r3,255
    2548:	183f8c26 	beq	r3,zero,237c <__alt_mem_onchip_memory+0xf780237c>
    254c:	d9c02785 	stb	r7,158(sp)
    2550:	003f8a06 	br	237c <__alt_mem_onchip_memory+0xf780237c>
    2554:	18c03fcc 	andi	r3,r3,255
    2558:	1805631e 	bne	r3,zero,3ae8 <___svfprintf_internal_r+0x21d0>
    255c:	01400074 	movhi	r5,1
    2560:	2952e204 	addi	r5,r5,19336
    2564:	d9403a15 	stw	r5,232(sp)
    2568:	9080080c 	andi	r2,r18,32
    256c:	103f9f1e 	bne	r2,zero,23ec <__alt_mem_onchip_memory+0xf78023ec>
    2570:	9080040c 	andi	r2,r18,16
    2574:	10029c26 	beq	r2,zero,2fe8 <___svfprintf_internal_r+0x16d0>
    2578:	d8c02d17 	ldw	r3,180(sp)
    257c:	002d883a 	mov	r22,zero
    2580:	1d000017 	ldw	r20,0(r3)
    2584:	18c00104 	addi	r3,r3,4
    2588:	d8c02d15 	stw	r3,180(sp)
    258c:	003f9c06 	br	2400 <__alt_mem_onchip_memory+0xf7802400>
    2590:	94800054 	ori	r18,r18,1
    2594:	bc400007 	ldb	r17,0(r23)
    2598:	003d3306 	br	1a68 <__alt_mem_onchip_memory+0xf7801a68>
    259c:	38803fcc 	andi	r2,r7,255
    25a0:	1080201c 	xori	r2,r2,128
    25a4:	10bfe004 	addi	r2,r2,-128
    25a8:	1002971e 	bne	r2,zero,3008 <___svfprintf_internal_r+0x16f0>
    25ac:	00c00044 	movi	r3,1
    25b0:	01c00804 	movi	r7,32
    25b4:	bc400007 	ldb	r17,0(r23)
    25b8:	003d2b06 	br	1a68 <__alt_mem_onchip_memory+0xf7801a68>
    25bc:	18c03fcc 	andi	r3,r3,255
    25c0:	183e2326 	beq	r3,zero,1e50 <__alt_mem_onchip_memory+0xf7801e50>
    25c4:	d9c02785 	stb	r7,158(sp)
    25c8:	003e2106 	br	1e50 <__alt_mem_onchip_memory+0xf7801e50>
    25cc:	bc400007 	ldb	r17,0(r23)
    25d0:	8a430426 	beq	r17,r9,31e4 <___svfprintf_internal_r+0x18cc>
    25d4:	94800414 	ori	r18,r18,16
    25d8:	003d2306 	br	1a68 <__alt_mem_onchip_memory+0xf7801a68>
    25dc:	18c03fcc 	andi	r3,r3,255
    25e0:	18053f1e 	bne	r3,zero,3ae0 <___svfprintf_internal_r+0x21c8>
    25e4:	9080080c 	andi	r2,r18,32
    25e8:	10028926 	beq	r2,zero,3010 <___svfprintf_internal_r+0x16f8>
    25ec:	d9402d17 	ldw	r5,180(sp)
    25f0:	d9002f17 	ldw	r4,188(sp)
    25f4:	28800017 	ldw	r2,0(r5)
    25f8:	2007d7fa 	srai	r3,r4,31
    25fc:	29400104 	addi	r5,r5,4
    2600:	d9402d15 	stw	r5,180(sp)
    2604:	11000015 	stw	r4,0(r2)
    2608:	10c00115 	stw	r3,4(r2)
    260c:	003ced06 	br	19c4 <__alt_mem_onchip_memory+0xf78019c4>
    2610:	94801014 	ori	r18,r18,64
    2614:	bc400007 	ldb	r17,0(r23)
    2618:	003d1306 	br	1a68 <__alt_mem_onchip_memory+0xf7801a68>
    261c:	01000074 	movhi	r4,1
    2620:	2112e204 	addi	r4,r4,19336
    2624:	0039883a 	mov	fp,zero
    2628:	d9003a15 	stw	r4,232(sp)
    262c:	04401e04 	movi	r17,120
    2630:	003f8206 	br	243c <__alt_mem_onchip_memory+0xf780243c>
    2634:	18c03fcc 	andi	r3,r3,255
    2638:	1805221e 	bne	r3,zero,3ac4 <___svfprintf_internal_r+0x21ac>
    263c:	883d9526 	beq	r17,zero,1c94 <__alt_mem_onchip_memory+0xf7801c94>
    2640:	00c00044 	movi	r3,1
    2644:	d8c02a15 	stw	r3,168(sp)
    2648:	dc401405 	stb	r17,80(sp)
    264c:	d8002785 	stb	zero,158(sp)
    2650:	003f9406 	br	24a4 <__alt_mem_onchip_memory+0xf78024a4>
    2654:	01000074 	movhi	r4,1
    2658:	2112e204 	addi	r4,r4,19336
    265c:	d9003a15 	stw	r4,232(sp)
    2660:	d8c02d15 	stw	r3,180(sp)
    2664:	1025883a 	mov	r18,r2
    2668:	04401e04 	movi	r17,120
    266c:	a584b03a 	or	r2,r20,r22
    2670:	1000fa1e 	bne	r2,zero,2a5c <___svfprintf_internal_r+0x1144>
    2674:	0039883a 	mov	fp,zero
    2678:	00800084 	movi	r2,2
    267c:	10803fcc 	andi	r2,r2,255
    2680:	00c00044 	movi	r3,1
    2684:	10c21626 	beq	r2,r3,2ee0 <___svfprintf_internal_r+0x15c8>
    2688:	00c00084 	movi	r3,2
    268c:	10fe301e 	bne	r2,r3,1f50 <__alt_mem_onchip_memory+0xf7801f50>
    2690:	003d7606 	br	1c6c <__alt_mem_onchip_memory+0xf7801c6c>
    2694:	d8c02017 	ldw	r3,128(sp)
    2698:	003e9506 	br	20f0 <__alt_mem_onchip_memory+0xf78020f0>
    269c:	00801944 	movi	r2,101
    26a0:	14407c0e 	bge	r2,r17,2894 <___svfprintf_internal_r+0xf7c>
    26a4:	d9003617 	ldw	r4,216(sp)
    26a8:	d9403717 	ldw	r5,220(sp)
    26ac:	000d883a 	mov	r6,zero
    26b0:	000f883a 	mov	r7,zero
    26b4:	d8c03d15 	stw	r3,244(sp)
    26b8:	da003e15 	stw	r8,248(sp)
    26bc:	000adf40 	call	adf4 <__eqdf2>
    26c0:	d8c03d17 	ldw	r3,244(sp)
    26c4:	da003e17 	ldw	r8,248(sp)
    26c8:	1000f51e 	bne	r2,zero,2aa0 <___svfprintf_internal_r+0x1188>
    26cc:	d8801f17 	ldw	r2,124(sp)
    26d0:	01000074 	movhi	r4,1
    26d4:	2112e904 	addi	r4,r4,19364
    26d8:	18c00044 	addi	r3,r3,1
    26dc:	10800044 	addi	r2,r2,1
    26e0:	41000015 	stw	r4,0(r8)
    26e4:	01000044 	movi	r4,1
    26e8:	41000115 	stw	r4,4(r8)
    26ec:	d8c02015 	stw	r3,128(sp)
    26f0:	d8801f15 	stw	r2,124(sp)
    26f4:	010001c4 	movi	r4,7
    26f8:	20826616 	blt	r4,r2,3094 <___svfprintf_internal_r+0x177c>
    26fc:	42000204 	addi	r8,r8,8
    2700:	d8802617 	ldw	r2,152(sp)
    2704:	d9403317 	ldw	r5,204(sp)
    2708:	11400216 	blt	r2,r5,2714 <___svfprintf_internal_r+0xdfc>
    270c:	9080004c 	andi	r2,r18,1
    2710:	103ed526 	beq	r2,zero,2268 <__alt_mem_onchip_memory+0xf7802268>
    2714:	d8803817 	ldw	r2,224(sp)
    2718:	d9003417 	ldw	r4,208(sp)
    271c:	d9403817 	ldw	r5,224(sp)
    2720:	1887883a 	add	r3,r3,r2
    2724:	d8801f17 	ldw	r2,124(sp)
    2728:	41000015 	stw	r4,0(r8)
    272c:	41400115 	stw	r5,4(r8)
    2730:	10800044 	addi	r2,r2,1
    2734:	d8c02015 	stw	r3,128(sp)
    2738:	d8801f15 	stw	r2,124(sp)
    273c:	010001c4 	movi	r4,7
    2740:	2082af16 	blt	r4,r2,3200 <___svfprintf_internal_r+0x18e8>
    2744:	42000204 	addi	r8,r8,8
    2748:	d8803317 	ldw	r2,204(sp)
    274c:	143fffc4 	addi	r16,r2,-1
    2750:	043ec50e 	bge	zero,r16,2268 <__alt_mem_onchip_memory+0xf7802268>
    2754:	04400404 	movi	r17,16
    2758:	d8801f17 	ldw	r2,124(sp)
    275c:	8c00860e 	bge	r17,r16,2978 <___svfprintf_internal_r+0x1060>
    2760:	01400074 	movhi	r5,1
    2764:	2952e984 	addi	r5,r5,19366
    2768:	d9402b15 	stw	r5,172(sp)
    276c:	058001c4 	movi	r22,7
    2770:	dd002c17 	ldw	r20,176(sp)
    2774:	00000306 	br	2784 <___svfprintf_internal_r+0xe6c>
    2778:	42000204 	addi	r8,r8,8
    277c:	843ffc04 	addi	r16,r16,-16
    2780:	8c00800e 	bge	r17,r16,2984 <___svfprintf_internal_r+0x106c>
    2784:	18c00404 	addi	r3,r3,16
    2788:	10800044 	addi	r2,r2,1
    278c:	45400015 	stw	r21,0(r8)
    2790:	44400115 	stw	r17,4(r8)
    2794:	d8c02015 	stw	r3,128(sp)
    2798:	d8801f15 	stw	r2,124(sp)
    279c:	b0bff60e 	bge	r22,r2,2778 <__alt_mem_onchip_memory+0xf7802778>
    27a0:	d9801e04 	addi	r6,sp,120
    27a4:	a00b883a 	mov	r5,r20
    27a8:	9809883a 	mov	r4,r19
    27ac:	00070c40 	call	70c4 <__ssprint_r>
    27b0:	103d3e1e 	bne	r2,zero,1cac <__alt_mem_onchip_memory+0xf7801cac>
    27b4:	d8c02017 	ldw	r3,128(sp)
    27b8:	d8801f17 	ldw	r2,124(sp)
    27bc:	da000404 	addi	r8,sp,16
    27c0:	003fee06 	br	277c <__alt_mem_onchip_memory+0xf780277c>
    27c4:	d9403117 	ldw	r5,196(sp)
    27c8:	d8802a17 	ldw	r2,168(sp)
    27cc:	28adc83a 	sub	r22,r5,r2
    27d0:	05be650e 	bge	zero,r22,2168 <__alt_mem_onchip_memory+0xf7802168>
    27d4:	07000404 	movi	fp,16
    27d8:	d8801f17 	ldw	r2,124(sp)
    27dc:	e583a20e 	bge	fp,r22,3668 <___svfprintf_internal_r+0x1d50>
    27e0:	01400074 	movhi	r5,1
    27e4:	2952e984 	addi	r5,r5,19366
    27e8:	dc403015 	stw	r17,192(sp)
    27ec:	d9402b15 	stw	r5,172(sp)
    27f0:	b023883a 	mov	r17,r22
    27f4:	050001c4 	movi	r20,7
    27f8:	902d883a 	mov	r22,r18
    27fc:	8025883a 	mov	r18,r16
    2800:	dc002c17 	ldw	r16,176(sp)
    2804:	00000306 	br	2814 <___svfprintf_internal_r+0xefc>
    2808:	8c7ffc04 	addi	r17,r17,-16
    280c:	42000204 	addi	r8,r8,8
    2810:	e440110e 	bge	fp,r17,2858 <___svfprintf_internal_r+0xf40>
    2814:	18c00404 	addi	r3,r3,16
    2818:	10800044 	addi	r2,r2,1
    281c:	45400015 	stw	r21,0(r8)
    2820:	47000115 	stw	fp,4(r8)
    2824:	d8c02015 	stw	r3,128(sp)
    2828:	d8801f15 	stw	r2,124(sp)
    282c:	a0bff60e 	bge	r20,r2,2808 <__alt_mem_onchip_memory+0xf7802808>
    2830:	d9801e04 	addi	r6,sp,120
    2834:	800b883a 	mov	r5,r16
    2838:	9809883a 	mov	r4,r19
    283c:	00070c40 	call	70c4 <__ssprint_r>
    2840:	103d1a1e 	bne	r2,zero,1cac <__alt_mem_onchip_memory+0xf7801cac>
    2844:	8c7ffc04 	addi	r17,r17,-16
    2848:	d8c02017 	ldw	r3,128(sp)
    284c:	d8801f17 	ldw	r2,124(sp)
    2850:	da000404 	addi	r8,sp,16
    2854:	e47fef16 	blt	fp,r17,2814 <__alt_mem_onchip_memory+0xf7802814>
    2858:	9021883a 	mov	r16,r18
    285c:	b025883a 	mov	r18,r22
    2860:	882d883a 	mov	r22,r17
    2864:	dc403017 	ldw	r17,192(sp)
    2868:	d9002b17 	ldw	r4,172(sp)
    286c:	1d87883a 	add	r3,r3,r22
    2870:	10800044 	addi	r2,r2,1
    2874:	41000015 	stw	r4,0(r8)
    2878:	45800115 	stw	r22,4(r8)
    287c:	d8c02015 	stw	r3,128(sp)
    2880:	d8801f15 	stw	r2,124(sp)
    2884:	010001c4 	movi	r4,7
    2888:	20819a16 	blt	r4,r2,2ef4 <___svfprintf_internal_r+0x15dc>
    288c:	42000204 	addi	r8,r8,8
    2890:	003e3506 	br	2168 <__alt_mem_onchip_memory+0xf7802168>
    2894:	d9403317 	ldw	r5,204(sp)
    2898:	00800044 	movi	r2,1
    289c:	18c00044 	addi	r3,r3,1
    28a0:	1141710e 	bge	r2,r5,2e68 <___svfprintf_internal_r+0x1550>
    28a4:	dc401f17 	ldw	r17,124(sp)
    28a8:	00800044 	movi	r2,1
    28ac:	40800115 	stw	r2,4(r8)
    28b0:	8c400044 	addi	r17,r17,1
    28b4:	44000015 	stw	r16,0(r8)
    28b8:	d8c02015 	stw	r3,128(sp)
    28bc:	dc401f15 	stw	r17,124(sp)
    28c0:	008001c4 	movi	r2,7
    28c4:	14417416 	blt	r2,r17,2e98 <___svfprintf_internal_r+0x1580>
    28c8:	42000204 	addi	r8,r8,8
    28cc:	d8803817 	ldw	r2,224(sp)
    28d0:	d9003417 	ldw	r4,208(sp)
    28d4:	8c400044 	addi	r17,r17,1
    28d8:	10c7883a 	add	r3,r2,r3
    28dc:	40800115 	stw	r2,4(r8)
    28e0:	41000015 	stw	r4,0(r8)
    28e4:	d8c02015 	stw	r3,128(sp)
    28e8:	dc401f15 	stw	r17,124(sp)
    28ec:	008001c4 	movi	r2,7
    28f0:	14417216 	blt	r2,r17,2ebc <___svfprintf_internal_r+0x15a4>
    28f4:	45800204 	addi	r22,r8,8
    28f8:	d9003617 	ldw	r4,216(sp)
    28fc:	d9403717 	ldw	r5,220(sp)
    2900:	000d883a 	mov	r6,zero
    2904:	000f883a 	mov	r7,zero
    2908:	d8c03d15 	stw	r3,244(sp)
    290c:	000adf40 	call	adf4 <__eqdf2>
    2910:	d8c03d17 	ldw	r3,244(sp)
    2914:	1000b326 	beq	r2,zero,2be4 <___svfprintf_internal_r+0x12cc>
    2918:	d9403317 	ldw	r5,204(sp)
    291c:	84000044 	addi	r16,r16,1
    2920:	8c400044 	addi	r17,r17,1
    2924:	28bfffc4 	addi	r2,r5,-1
    2928:	1887883a 	add	r3,r3,r2
    292c:	b0800115 	stw	r2,4(r22)
    2930:	b4000015 	stw	r16,0(r22)
    2934:	d8c02015 	stw	r3,128(sp)
    2938:	dc401f15 	stw	r17,124(sp)
    293c:	008001c4 	movi	r2,7
    2940:	1440d216 	blt	r2,r17,2c8c <___svfprintf_internal_r+0x1374>
    2944:	b5800204 	addi	r22,r22,8
    2948:	d9003b17 	ldw	r4,236(sp)
    294c:	df0022c4 	addi	fp,sp,139
    2950:	8c400044 	addi	r17,r17,1
    2954:	20c7883a 	add	r3,r4,r3
    2958:	b7000015 	stw	fp,0(r22)
    295c:	b1000115 	stw	r4,4(r22)
    2960:	d8c02015 	stw	r3,128(sp)
    2964:	dc401f15 	stw	r17,124(sp)
    2968:	008001c4 	movi	r2,7
    296c:	14400e16 	blt	r2,r17,29a8 <___svfprintf_internal_r+0x1090>
    2970:	b2000204 	addi	r8,r22,8
    2974:	003e3c06 	br	2268 <__alt_mem_onchip_memory+0xf7802268>
    2978:	01000074 	movhi	r4,1
    297c:	2112e984 	addi	r4,r4,19366
    2980:	d9002b15 	stw	r4,172(sp)
    2984:	d9002b17 	ldw	r4,172(sp)
    2988:	1c07883a 	add	r3,r3,r16
    298c:	44000115 	stw	r16,4(r8)
    2990:	41000015 	stw	r4,0(r8)
    2994:	10800044 	addi	r2,r2,1
    2998:	d8c02015 	stw	r3,128(sp)
    299c:	d8801f15 	stw	r2,124(sp)
    29a0:	010001c4 	movi	r4,7
    29a4:	20be2f0e 	bge	r4,r2,2264 <__alt_mem_onchip_memory+0xf7802264>
    29a8:	d9402c17 	ldw	r5,176(sp)
    29ac:	d9801e04 	addi	r6,sp,120
    29b0:	9809883a 	mov	r4,r19
    29b4:	00070c40 	call	70c4 <__ssprint_r>
    29b8:	103cbc1e 	bne	r2,zero,1cac <__alt_mem_onchip_memory+0xf7801cac>
    29bc:	d8c02017 	ldw	r3,128(sp)
    29c0:	da000404 	addi	r8,sp,16
    29c4:	003e2806 	br	2268 <__alt_mem_onchip_memory+0xf7802268>
    29c8:	d9402c17 	ldw	r5,176(sp)
    29cc:	d9801e04 	addi	r6,sp,120
    29d0:	9809883a 	mov	r4,r19
    29d4:	00070c40 	call	70c4 <__ssprint_r>
    29d8:	103e5f26 	beq	r2,zero,2358 <__alt_mem_onchip_memory+0xf7802358>
    29dc:	003cb306 	br	1cac <__alt_mem_onchip_memory+0xf7801cac>
    29e0:	d9402c17 	ldw	r5,176(sp)
    29e4:	d9801e04 	addi	r6,sp,120
    29e8:	9809883a 	mov	r4,r19
    29ec:	00070c40 	call	70c4 <__ssprint_r>
    29f0:	103cae1e 	bne	r2,zero,1cac <__alt_mem_onchip_memory+0xf7801cac>
    29f4:	d8c02017 	ldw	r3,128(sp)
    29f8:	da000404 	addi	r8,sp,16
    29fc:	003e0d06 	br	2234 <__alt_mem_onchip_memory+0xf7802234>
    2a00:	d9402c17 	ldw	r5,176(sp)
    2a04:	d9801e04 	addi	r6,sp,120
    2a08:	9809883a 	mov	r4,r19
    2a0c:	00070c40 	call	70c4 <__ssprint_r>
    2a10:	103ca61e 	bne	r2,zero,1cac <__alt_mem_onchip_memory+0xf7801cac>
    2a14:	d8c02017 	ldw	r3,128(sp)
    2a18:	da000404 	addi	r8,sp,16
    2a1c:	003dc106 	br	2124 <__alt_mem_onchip_memory+0xf7802124>
    2a20:	d9402c17 	ldw	r5,176(sp)
    2a24:	d9801e04 	addi	r6,sp,120
    2a28:	9809883a 	mov	r4,r19
    2a2c:	00070c40 	call	70c4 <__ssprint_r>
    2a30:	103c9e1e 	bne	r2,zero,1cac <__alt_mem_onchip_memory+0xf7801cac>
    2a34:	d8c02017 	ldw	r3,128(sp)
    2a38:	da000404 	addi	r8,sp,16
    2a3c:	003dc706 	br	215c <__alt_mem_onchip_memory+0xf780215c>
    2a40:	d8802917 	ldw	r2,164(sp)
    2a44:	d8002785 	stb	zero,158(sp)
    2a48:	103f0816 	blt	r2,zero,266c <__alt_mem_onchip_memory+0xf780266c>
    2a4c:	00ffdfc4 	movi	r3,-129
    2a50:	a584b03a 	or	r2,r20,r22
    2a54:	90e4703a 	and	r18,r18,r3
    2a58:	103c8126 	beq	r2,zero,1c60 <__alt_mem_onchip_memory+0xf7801c60>
    2a5c:	0039883a 	mov	fp,zero
    2a60:	003e7606 	br	243c <__alt_mem_onchip_memory+0xf780243c>
    2a64:	9080040c 	andi	r2,r18,16
    2a68:	10013d26 	beq	r2,zero,2f60 <___svfprintf_internal_r+0x1648>
    2a6c:	d9002d17 	ldw	r4,180(sp)
    2a70:	d9402917 	ldw	r5,164(sp)
    2a74:	d8002785 	stb	zero,158(sp)
    2a78:	20800104 	addi	r2,r4,4
    2a7c:	25000017 	ldw	r20,0(r4)
    2a80:	002d883a 	mov	r22,zero
    2a84:	28013f16 	blt	r5,zero,2f84 <___svfprintf_internal_r+0x166c>
    2a88:	00ffdfc4 	movi	r3,-129
    2a8c:	d8802d15 	stw	r2,180(sp)
    2a90:	90e4703a 	and	r18,r18,r3
    2a94:	a03d2b26 	beq	r20,zero,1f44 <__alt_mem_onchip_memory+0xf7801f44>
    2a98:	0039883a 	mov	fp,zero
    2a9c:	003d2e06 	br	1f58 <__alt_mem_onchip_memory+0xf7801f58>
    2aa0:	dc402617 	ldw	r17,152(sp)
    2aa4:	0441830e 	bge	zero,r17,30b4 <___svfprintf_internal_r+0x179c>
    2aa8:	dc403217 	ldw	r17,200(sp)
    2aac:	d8803317 	ldw	r2,204(sp)
    2ab0:	1440010e 	bge	r2,r17,2ab8 <___svfprintf_internal_r+0x11a0>
    2ab4:	1023883a 	mov	r17,r2
    2ab8:	04400a0e 	bge	zero,r17,2ae4 <___svfprintf_internal_r+0x11cc>
    2abc:	d8801f17 	ldw	r2,124(sp)
    2ac0:	1c47883a 	add	r3,r3,r17
    2ac4:	44000015 	stw	r16,0(r8)
    2ac8:	10800044 	addi	r2,r2,1
    2acc:	44400115 	stw	r17,4(r8)
    2ad0:	d8c02015 	stw	r3,128(sp)
    2ad4:	d8801f15 	stw	r2,124(sp)
    2ad8:	010001c4 	movi	r4,7
    2adc:	20827516 	blt	r4,r2,34b4 <___svfprintf_internal_r+0x1b9c>
    2ae0:	42000204 	addi	r8,r8,8
    2ae4:	88027b16 	blt	r17,zero,34d4 <___svfprintf_internal_r+0x1bbc>
    2ae8:	d9003217 	ldw	r4,200(sp)
    2aec:	2463c83a 	sub	r17,r4,r17
    2af0:	0440990e 	bge	zero,r17,2d58 <___svfprintf_internal_r+0x1440>
    2af4:	05800404 	movi	r22,16
    2af8:	d8801f17 	ldw	r2,124(sp)
    2afc:	b441530e 	bge	r22,r17,304c <___svfprintf_internal_r+0x1734>
    2b00:	01000074 	movhi	r4,1
    2b04:	2112e984 	addi	r4,r4,19366
    2b08:	d9002b15 	stw	r4,172(sp)
    2b0c:	070001c4 	movi	fp,7
    2b10:	dd002c17 	ldw	r20,176(sp)
    2b14:	00000306 	br	2b24 <___svfprintf_internal_r+0x120c>
    2b18:	42000204 	addi	r8,r8,8
    2b1c:	8c7ffc04 	addi	r17,r17,-16
    2b20:	b4414d0e 	bge	r22,r17,3058 <___svfprintf_internal_r+0x1740>
    2b24:	18c00404 	addi	r3,r3,16
    2b28:	10800044 	addi	r2,r2,1
    2b2c:	45400015 	stw	r21,0(r8)
    2b30:	45800115 	stw	r22,4(r8)
    2b34:	d8c02015 	stw	r3,128(sp)
    2b38:	d8801f15 	stw	r2,124(sp)
    2b3c:	e0bff60e 	bge	fp,r2,2b18 <__alt_mem_onchip_memory+0xf7802b18>
    2b40:	d9801e04 	addi	r6,sp,120
    2b44:	a00b883a 	mov	r5,r20
    2b48:	9809883a 	mov	r4,r19
    2b4c:	00070c40 	call	70c4 <__ssprint_r>
    2b50:	103c561e 	bne	r2,zero,1cac <__alt_mem_onchip_memory+0xf7801cac>
    2b54:	d8c02017 	ldw	r3,128(sp)
    2b58:	d8801f17 	ldw	r2,124(sp)
    2b5c:	da000404 	addi	r8,sp,16
    2b60:	003fee06 	br	2b1c <__alt_mem_onchip_memory+0xf7802b1c>
    2b64:	d9402c17 	ldw	r5,176(sp)
    2b68:	d9801e04 	addi	r6,sp,120
    2b6c:	9809883a 	mov	r4,r19
    2b70:	00070c40 	call	70c4 <__ssprint_r>
    2b74:	103c4d1e 	bne	r2,zero,1cac <__alt_mem_onchip_memory+0xf7801cac>
    2b78:	d8c02017 	ldw	r3,128(sp)
    2b7c:	df002787 	ldb	fp,158(sp)
    2b80:	da000404 	addi	r8,sp,16
    2b84:	003d5a06 	br	20f0 <__alt_mem_onchip_memory+0xf78020f0>
    2b88:	9080040c 	andi	r2,r18,16
    2b8c:	10005c26 	beq	r2,zero,2d00 <___svfprintf_internal_r+0x13e8>
    2b90:	d9402d17 	ldw	r5,180(sp)
    2b94:	d8c02917 	ldw	r3,164(sp)
    2b98:	d8002785 	stb	zero,158(sp)
    2b9c:	28800104 	addi	r2,r5,4
    2ba0:	2d000017 	ldw	r20,0(r5)
    2ba4:	002d883a 	mov	r22,zero
    2ba8:	18005e16 	blt	r3,zero,2d24 <___svfprintf_internal_r+0x140c>
    2bac:	00ffdfc4 	movi	r3,-129
    2bb0:	d8802d15 	stw	r2,180(sp)
    2bb4:	90e4703a 	and	r18,r18,r3
    2bb8:	0039883a 	mov	fp,zero
    2bbc:	a03dfe26 	beq	r20,zero,23b8 <__alt_mem_onchip_memory+0xf78023b8>
    2bc0:	00800244 	movi	r2,9
    2bc4:	153cb336 	bltu	r2,r20,1e94 <__alt_mem_onchip_memory+0xf7801e94>
    2bc8:	a5000c04 	addi	r20,r20,48
    2bcc:	dc001dc4 	addi	r16,sp,119
    2bd0:	dd001dc5 	stb	r20,119(sp)
    2bd4:	d8c02817 	ldw	r3,160(sp)
    2bd8:	1c07c83a 	sub	r3,r3,r16
    2bdc:	d8c02e15 	stw	r3,184(sp)
    2be0:	003cf506 	br	1fb8 <__alt_mem_onchip_memory+0xf7801fb8>
    2be4:	d8803317 	ldw	r2,204(sp)
    2be8:	143fffc4 	addi	r16,r2,-1
    2bec:	043f560e 	bge	zero,r16,2948 <__alt_mem_onchip_memory+0xf7802948>
    2bf0:	07000404 	movi	fp,16
    2bf4:	e403530e 	bge	fp,r16,3944 <___svfprintf_internal_r+0x202c>
    2bf8:	01400074 	movhi	r5,1
    2bfc:	2952e984 	addi	r5,r5,19366
    2c00:	d9402b15 	stw	r5,172(sp)
    2c04:	01c001c4 	movi	r7,7
    2c08:	dd002c17 	ldw	r20,176(sp)
    2c0c:	00000306 	br	2c1c <___svfprintf_internal_r+0x1304>
    2c10:	843ffc04 	addi	r16,r16,-16
    2c14:	b5800204 	addi	r22,r22,8
    2c18:	e400130e 	bge	fp,r16,2c68 <___svfprintf_internal_r+0x1350>
    2c1c:	18c00404 	addi	r3,r3,16
    2c20:	8c400044 	addi	r17,r17,1
    2c24:	b5400015 	stw	r21,0(r22)
    2c28:	b7000115 	stw	fp,4(r22)
    2c2c:	d8c02015 	stw	r3,128(sp)
    2c30:	dc401f15 	stw	r17,124(sp)
    2c34:	3c7ff60e 	bge	r7,r17,2c10 <__alt_mem_onchip_memory+0xf7802c10>
    2c38:	d9801e04 	addi	r6,sp,120
    2c3c:	a00b883a 	mov	r5,r20
    2c40:	9809883a 	mov	r4,r19
    2c44:	d9c03d15 	stw	r7,244(sp)
    2c48:	00070c40 	call	70c4 <__ssprint_r>
    2c4c:	d9c03d17 	ldw	r7,244(sp)
    2c50:	103c161e 	bne	r2,zero,1cac <__alt_mem_onchip_memory+0xf7801cac>
    2c54:	843ffc04 	addi	r16,r16,-16
    2c58:	d8c02017 	ldw	r3,128(sp)
    2c5c:	dc401f17 	ldw	r17,124(sp)
    2c60:	dd800404 	addi	r22,sp,16
    2c64:	e43fed16 	blt	fp,r16,2c1c <__alt_mem_onchip_memory+0xf7802c1c>
    2c68:	d8802b17 	ldw	r2,172(sp)
    2c6c:	1c07883a 	add	r3,r3,r16
    2c70:	8c400044 	addi	r17,r17,1
    2c74:	b0800015 	stw	r2,0(r22)
    2c78:	b4000115 	stw	r16,4(r22)
    2c7c:	d8c02015 	stw	r3,128(sp)
    2c80:	dc401f15 	stw	r17,124(sp)
    2c84:	008001c4 	movi	r2,7
    2c88:	147f2e0e 	bge	r2,r17,2944 <__alt_mem_onchip_memory+0xf7802944>
    2c8c:	d9402c17 	ldw	r5,176(sp)
    2c90:	d9801e04 	addi	r6,sp,120
    2c94:	9809883a 	mov	r4,r19
    2c98:	00070c40 	call	70c4 <__ssprint_r>
    2c9c:	103c031e 	bne	r2,zero,1cac <__alt_mem_onchip_memory+0xf7801cac>
    2ca0:	d8c02017 	ldw	r3,128(sp)
    2ca4:	dc401f17 	ldw	r17,124(sp)
    2ca8:	dd800404 	addi	r22,sp,16
    2cac:	003f2606 	br	2948 <__alt_mem_onchip_memory+0xf7802948>
    2cb0:	9080040c 	andi	r2,r18,16
    2cb4:	1000c326 	beq	r2,zero,2fc4 <___svfprintf_internal_r+0x16ac>
    2cb8:	d8802d17 	ldw	r2,180(sp)
    2cbc:	15000017 	ldw	r20,0(r2)
    2cc0:	10800104 	addi	r2,r2,4
    2cc4:	d8802d15 	stw	r2,180(sp)
    2cc8:	a02dd7fa 	srai	r22,r20,31
    2ccc:	b005883a 	mov	r2,r22
    2cd0:	103c680e 	bge	r2,zero,1e74 <__alt_mem_onchip_memory+0xf7801e74>
    2cd4:	0529c83a 	sub	r20,zero,r20
    2cd8:	a004c03a 	cmpne	r2,r20,zero
    2cdc:	05adc83a 	sub	r22,zero,r22
    2ce0:	b0adc83a 	sub	r22,r22,r2
    2ce4:	d8802917 	ldw	r2,164(sp)
    2ce8:	07000b44 	movi	fp,45
    2cec:	df002785 	stb	fp,158(sp)
    2cf0:	10022e16 	blt	r2,zero,35ac <___svfprintf_internal_r+0x1c94>
    2cf4:	00bfdfc4 	movi	r2,-129
    2cf8:	90a4703a 	and	r18,r18,r2
    2cfc:	003c6406 	br	1e90 <__alt_mem_onchip_memory+0xf7801e90>
    2d00:	9080100c 	andi	r2,r18,64
    2d04:	d8002785 	stb	zero,158(sp)
    2d08:	10012526 	beq	r2,zero,31a0 <___svfprintf_internal_r+0x1888>
    2d0c:	d9002d17 	ldw	r4,180(sp)
    2d10:	d9402917 	ldw	r5,164(sp)
    2d14:	002d883a 	mov	r22,zero
    2d18:	20800104 	addi	r2,r4,4
    2d1c:	2500000b 	ldhu	r20,0(r4)
    2d20:	283fa20e 	bge	r5,zero,2bac <__alt_mem_onchip_memory+0xf7802bac>
    2d24:	d8802d15 	stw	r2,180(sp)
    2d28:	0039883a 	mov	fp,zero
    2d2c:	a584b03a 	or	r2,r20,r22
    2d30:	103c571e 	bne	r2,zero,1e90 <__alt_mem_onchip_memory+0xf7801e90>
    2d34:	00800044 	movi	r2,1
    2d38:	003e5006 	br	267c <__alt_mem_onchip_memory+0xf780267c>
    2d3c:	d9402c17 	ldw	r5,176(sp)
    2d40:	d9801e04 	addi	r6,sp,120
    2d44:	9809883a 	mov	r4,r19
    2d48:	00070c40 	call	70c4 <__ssprint_r>
    2d4c:	103bd71e 	bne	r2,zero,1cac <__alt_mem_onchip_memory+0xf7801cac>
    2d50:	d8c02017 	ldw	r3,128(sp)
    2d54:	da000404 	addi	r8,sp,16
    2d58:	d9003217 	ldw	r4,200(sp)
    2d5c:	d8802617 	ldw	r2,152(sp)
    2d60:	d9403317 	ldw	r5,204(sp)
    2d64:	8123883a 	add	r17,r16,r4
    2d68:	11400216 	blt	r2,r5,2d74 <___svfprintf_internal_r+0x145c>
    2d6c:	9100004c 	andi	r4,r18,1
    2d70:	20000d26 	beq	r4,zero,2da8 <___svfprintf_internal_r+0x1490>
    2d74:	d9003817 	ldw	r4,224(sp)
    2d78:	d9403417 	ldw	r5,208(sp)
    2d7c:	1907883a 	add	r3,r3,r4
    2d80:	d9001f17 	ldw	r4,124(sp)
    2d84:	41400015 	stw	r5,0(r8)
    2d88:	d9403817 	ldw	r5,224(sp)
    2d8c:	21000044 	addi	r4,r4,1
    2d90:	d8c02015 	stw	r3,128(sp)
    2d94:	41400115 	stw	r5,4(r8)
    2d98:	d9001f15 	stw	r4,124(sp)
    2d9c:	014001c4 	movi	r5,7
    2da0:	2901dc16 	blt	r5,r4,3514 <___svfprintf_internal_r+0x1bfc>
    2da4:	42000204 	addi	r8,r8,8
    2da8:	d9003317 	ldw	r4,204(sp)
    2dac:	8121883a 	add	r16,r16,r4
    2db0:	2085c83a 	sub	r2,r4,r2
    2db4:	8461c83a 	sub	r16,r16,r17
    2db8:	1400010e 	bge	r2,r16,2dc0 <___svfprintf_internal_r+0x14a8>
    2dbc:	1021883a 	mov	r16,r2
    2dc0:	04000a0e 	bge	zero,r16,2dec <___svfprintf_internal_r+0x14d4>
    2dc4:	d9001f17 	ldw	r4,124(sp)
    2dc8:	1c07883a 	add	r3,r3,r16
    2dcc:	44400015 	stw	r17,0(r8)
    2dd0:	21000044 	addi	r4,r4,1
    2dd4:	44000115 	stw	r16,4(r8)
    2dd8:	d8c02015 	stw	r3,128(sp)
    2ddc:	d9001f15 	stw	r4,124(sp)
    2de0:	014001c4 	movi	r5,7
    2de4:	2901e616 	blt	r5,r4,3580 <___svfprintf_internal_r+0x1c68>
    2de8:	42000204 	addi	r8,r8,8
    2dec:	8001f616 	blt	r16,zero,35c8 <___svfprintf_internal_r+0x1cb0>
    2df0:	1421c83a 	sub	r16,r2,r16
    2df4:	043d1c0e 	bge	zero,r16,2268 <__alt_mem_onchip_memory+0xf7802268>
    2df8:	04400404 	movi	r17,16
    2dfc:	d8801f17 	ldw	r2,124(sp)
    2e00:	8c3edd0e 	bge	r17,r16,2978 <__alt_mem_onchip_memory+0xf7802978>
    2e04:	01400074 	movhi	r5,1
    2e08:	2952e984 	addi	r5,r5,19366
    2e0c:	d9402b15 	stw	r5,172(sp)
    2e10:	058001c4 	movi	r22,7
    2e14:	dd002c17 	ldw	r20,176(sp)
    2e18:	00000306 	br	2e28 <___svfprintf_internal_r+0x1510>
    2e1c:	42000204 	addi	r8,r8,8
    2e20:	843ffc04 	addi	r16,r16,-16
    2e24:	8c3ed70e 	bge	r17,r16,2984 <__alt_mem_onchip_memory+0xf7802984>
    2e28:	18c00404 	addi	r3,r3,16
    2e2c:	10800044 	addi	r2,r2,1
    2e30:	45400015 	stw	r21,0(r8)
    2e34:	44400115 	stw	r17,4(r8)
    2e38:	d8c02015 	stw	r3,128(sp)
    2e3c:	d8801f15 	stw	r2,124(sp)
    2e40:	b0bff60e 	bge	r22,r2,2e1c <__alt_mem_onchip_memory+0xf7802e1c>
    2e44:	d9801e04 	addi	r6,sp,120
    2e48:	a00b883a 	mov	r5,r20
    2e4c:	9809883a 	mov	r4,r19
    2e50:	00070c40 	call	70c4 <__ssprint_r>
    2e54:	103b951e 	bne	r2,zero,1cac <__alt_mem_onchip_memory+0xf7801cac>
    2e58:	d8c02017 	ldw	r3,128(sp)
    2e5c:	d8801f17 	ldw	r2,124(sp)
    2e60:	da000404 	addi	r8,sp,16
    2e64:	003fee06 	br	2e20 <__alt_mem_onchip_memory+0xf7802e20>
    2e68:	9088703a 	and	r4,r18,r2
    2e6c:	203e8d1e 	bne	r4,zero,28a4 <__alt_mem_onchip_memory+0xf78028a4>
    2e70:	dc401f17 	ldw	r17,124(sp)
    2e74:	40800115 	stw	r2,4(r8)
    2e78:	44000015 	stw	r16,0(r8)
    2e7c:	8c400044 	addi	r17,r17,1
    2e80:	d8c02015 	stw	r3,128(sp)
    2e84:	dc401f15 	stw	r17,124(sp)
    2e88:	008001c4 	movi	r2,7
    2e8c:	147f7f16 	blt	r2,r17,2c8c <__alt_mem_onchip_memory+0xf7802c8c>
    2e90:	45800204 	addi	r22,r8,8
    2e94:	003eac06 	br	2948 <__alt_mem_onchip_memory+0xf7802948>
    2e98:	d9402c17 	ldw	r5,176(sp)
    2e9c:	d9801e04 	addi	r6,sp,120
    2ea0:	9809883a 	mov	r4,r19
    2ea4:	00070c40 	call	70c4 <__ssprint_r>
    2ea8:	103b801e 	bne	r2,zero,1cac <__alt_mem_onchip_memory+0xf7801cac>
    2eac:	d8c02017 	ldw	r3,128(sp)
    2eb0:	dc401f17 	ldw	r17,124(sp)
    2eb4:	da000404 	addi	r8,sp,16
    2eb8:	003e8406 	br	28cc <__alt_mem_onchip_memory+0xf78028cc>
    2ebc:	d9402c17 	ldw	r5,176(sp)
    2ec0:	d9801e04 	addi	r6,sp,120
    2ec4:	9809883a 	mov	r4,r19
    2ec8:	00070c40 	call	70c4 <__ssprint_r>
    2ecc:	103b771e 	bne	r2,zero,1cac <__alt_mem_onchip_memory+0xf7801cac>
    2ed0:	d8c02017 	ldw	r3,128(sp)
    2ed4:	dc401f17 	ldw	r17,124(sp)
    2ed8:	dd800404 	addi	r22,sp,16
    2edc:	003e8606 	br	28f8 <__alt_mem_onchip_memory+0xf78028f8>
    2ee0:	0029883a 	mov	r20,zero
    2ee4:	a5000c04 	addi	r20,r20,48
    2ee8:	dc001dc4 	addi	r16,sp,119
    2eec:	dd001dc5 	stb	r20,119(sp)
    2ef0:	003f3806 	br	2bd4 <__alt_mem_onchip_memory+0xf7802bd4>
    2ef4:	d9402c17 	ldw	r5,176(sp)
    2ef8:	d9801e04 	addi	r6,sp,120
    2efc:	9809883a 	mov	r4,r19
    2f00:	00070c40 	call	70c4 <__ssprint_r>
    2f04:	103b691e 	bne	r2,zero,1cac <__alt_mem_onchip_memory+0xf7801cac>
    2f08:	d8c02017 	ldw	r3,128(sp)
    2f0c:	da000404 	addi	r8,sp,16
    2f10:	003c9506 	br	2168 <__alt_mem_onchip_memory+0xf7802168>
    2f14:	d9003617 	ldw	r4,216(sp)
    2f18:	d9403717 	ldw	r5,220(sp)
    2f1c:	da003e15 	stw	r8,248(sp)
    2f20:	0006e880 	call	6e88 <__fpclassifyd>
    2f24:	da003e17 	ldw	r8,248(sp)
    2f28:	1000bd1e 	bne	r2,zero,3220 <___svfprintf_internal_r+0x1908>
    2f2c:	008011c4 	movi	r2,71
    2f30:	14411e0e 	bge	r2,r17,33ac <___svfprintf_internal_r+0x1a94>
    2f34:	04000074 	movhi	r16,1
    2f38:	8412dc04 	addi	r16,r16,19312
    2f3c:	00c000c4 	movi	r3,3
    2f40:	00bfdfc4 	movi	r2,-129
    2f44:	d8c02a15 	stw	r3,168(sp)
    2f48:	90a4703a 	and	r18,r18,r2
    2f4c:	df002783 	ldbu	fp,158(sp)
    2f50:	d8c02e15 	stw	r3,184(sp)
    2f54:	d8002915 	stw	zero,164(sp)
    2f58:	d8003215 	stw	zero,200(sp)
    2f5c:	003c1c06 	br	1fd0 <__alt_mem_onchip_memory+0xf7801fd0>
    2f60:	9080100c 	andi	r2,r18,64
    2f64:	d8002785 	stb	zero,158(sp)
    2f68:	10009426 	beq	r2,zero,31bc <___svfprintf_internal_r+0x18a4>
    2f6c:	d8c02d17 	ldw	r3,180(sp)
    2f70:	d9002917 	ldw	r4,164(sp)
    2f74:	002d883a 	mov	r22,zero
    2f78:	18800104 	addi	r2,r3,4
    2f7c:	1d00000b 	ldhu	r20,0(r3)
    2f80:	203ec10e 	bge	r4,zero,2a88 <__alt_mem_onchip_memory+0xf7802a88>
    2f84:	a586b03a 	or	r3,r20,r22
    2f88:	d8802d15 	stw	r2,180(sp)
    2f8c:	183ec21e 	bne	r3,zero,2a98 <__alt_mem_onchip_memory+0xf7802a98>
    2f90:	0039883a 	mov	fp,zero
    2f94:	0005883a 	mov	r2,zero
    2f98:	003db806 	br	267c <__alt_mem_onchip_memory+0xf780267c>
    2f9c:	d8802d17 	ldw	r2,180(sp)
    2fa0:	d8c02d17 	ldw	r3,180(sp)
    2fa4:	d9002d17 	ldw	r4,180(sp)
    2fa8:	10800017 	ldw	r2,0(r2)
    2fac:	18c00117 	ldw	r3,4(r3)
    2fb0:	21000204 	addi	r4,r4,8
    2fb4:	d8803615 	stw	r2,216(sp)
    2fb8:	d8c03715 	stw	r3,220(sp)
    2fbc:	d9002d15 	stw	r4,180(sp)
    2fc0:	003b8206 	br	1dcc <__alt_mem_onchip_memory+0xf7801dcc>
    2fc4:	9080100c 	andi	r2,r18,64
    2fc8:	10010726 	beq	r2,zero,33e8 <___svfprintf_internal_r+0x1ad0>
    2fcc:	d8c02d17 	ldw	r3,180(sp)
    2fd0:	1d00000f 	ldh	r20,0(r3)
    2fd4:	18c00104 	addi	r3,r3,4
    2fd8:	d8c02d15 	stw	r3,180(sp)
    2fdc:	a02dd7fa 	srai	r22,r20,31
    2fe0:	b005883a 	mov	r2,r22
    2fe4:	003ba206 	br	1e70 <__alt_mem_onchip_memory+0xf7801e70>
    2fe8:	9080100c 	andi	r2,r18,64
    2fec:	10010526 	beq	r2,zero,3404 <___svfprintf_internal_r+0x1aec>
    2ff0:	d9002d17 	ldw	r4,180(sp)
    2ff4:	002d883a 	mov	r22,zero
    2ff8:	2500000b 	ldhu	r20,0(r4)
    2ffc:	21000104 	addi	r4,r4,4
    3000:	d9002d15 	stw	r4,180(sp)
    3004:	003cfe06 	br	2400 <__alt_mem_onchip_memory+0xf7802400>
    3008:	bc400007 	ldb	r17,0(r23)
    300c:	003a9606 	br	1a68 <__alt_mem_onchip_memory+0xf7801a68>
    3010:	9080040c 	andi	r2,r18,16
    3014:	10010126 	beq	r2,zero,341c <___svfprintf_internal_r+0x1b04>
    3018:	d9402d17 	ldw	r5,180(sp)
    301c:	d8c02f17 	ldw	r3,188(sp)
    3020:	28800017 	ldw	r2,0(r5)
    3024:	29400104 	addi	r5,r5,4
    3028:	d9402d15 	stw	r5,180(sp)
    302c:	10c00015 	stw	r3,0(r2)
    3030:	003a6406 	br	19c4 <__alt_mem_onchip_memory+0xf78019c4>
    3034:	d9002917 	ldw	r4,164(sp)
    3038:	d8002785 	stb	zero,158(sp)
    303c:	203d8d16 	blt	r4,zero,2674 <__alt_mem_onchip_memory+0xf7802674>
    3040:	00bfdfc4 	movi	r2,-129
    3044:	90a4703a 	and	r18,r18,r2
    3048:	003b0506 	br	1c60 <__alt_mem_onchip_memory+0xf7801c60>
    304c:	01400074 	movhi	r5,1
    3050:	2952e984 	addi	r5,r5,19366
    3054:	d9402b15 	stw	r5,172(sp)
    3058:	d9402b17 	ldw	r5,172(sp)
    305c:	1c47883a 	add	r3,r3,r17
    3060:	10800044 	addi	r2,r2,1
    3064:	41400015 	stw	r5,0(r8)
    3068:	44400115 	stw	r17,4(r8)
    306c:	d8c02015 	stw	r3,128(sp)
    3070:	d8801f15 	stw	r2,124(sp)
    3074:	010001c4 	movi	r4,7
    3078:	20bf3016 	blt	r4,r2,2d3c <__alt_mem_onchip_memory+0xf7802d3c>
    307c:	42000204 	addi	r8,r8,8
    3080:	003f3506 	br	2d58 <__alt_mem_onchip_memory+0xf7802d58>
    3084:	01000074 	movhi	r4,1
    3088:	2112e984 	addi	r4,r4,19366
    308c:	d9002b15 	stw	r4,172(sp)
    3090:	003c5e06 	br	220c <__alt_mem_onchip_memory+0xf780220c>
    3094:	d9402c17 	ldw	r5,176(sp)
    3098:	d9801e04 	addi	r6,sp,120
    309c:	9809883a 	mov	r4,r19
    30a0:	00070c40 	call	70c4 <__ssprint_r>
    30a4:	103b011e 	bne	r2,zero,1cac <__alt_mem_onchip_memory+0xf7801cac>
    30a8:	d8c02017 	ldw	r3,128(sp)
    30ac:	da000404 	addi	r8,sp,16
    30b0:	003d9306 	br	2700 <__alt_mem_onchip_memory+0xf7802700>
    30b4:	d8801f17 	ldw	r2,124(sp)
    30b8:	01400074 	movhi	r5,1
    30bc:	01000044 	movi	r4,1
    30c0:	18c00044 	addi	r3,r3,1
    30c4:	10800044 	addi	r2,r2,1
    30c8:	2952e904 	addi	r5,r5,19364
    30cc:	41000115 	stw	r4,4(r8)
    30d0:	41400015 	stw	r5,0(r8)
    30d4:	d8c02015 	stw	r3,128(sp)
    30d8:	d8801f15 	stw	r2,124(sp)
    30dc:	010001c4 	movi	r4,7
    30e0:	2080b516 	blt	r4,r2,33b8 <___svfprintf_internal_r+0x1aa0>
    30e4:	42000204 	addi	r8,r8,8
    30e8:	8800041e 	bne	r17,zero,30fc <___svfprintf_internal_r+0x17e4>
    30ec:	d8803317 	ldw	r2,204(sp)
    30f0:	1000021e 	bne	r2,zero,30fc <___svfprintf_internal_r+0x17e4>
    30f4:	9080004c 	andi	r2,r18,1
    30f8:	103c5b26 	beq	r2,zero,2268 <__alt_mem_onchip_memory+0xf7802268>
    30fc:	d9003817 	ldw	r4,224(sp)
    3100:	d8801f17 	ldw	r2,124(sp)
    3104:	d9403417 	ldw	r5,208(sp)
    3108:	20c7883a 	add	r3,r4,r3
    310c:	10800044 	addi	r2,r2,1
    3110:	41000115 	stw	r4,4(r8)
    3114:	41400015 	stw	r5,0(r8)
    3118:	d8c02015 	stw	r3,128(sp)
    311c:	d8801f15 	stw	r2,124(sp)
    3120:	010001c4 	movi	r4,7
    3124:	20818016 	blt	r4,r2,3728 <___svfprintf_internal_r+0x1e10>
    3128:	42000204 	addi	r8,r8,8
    312c:	0463c83a 	sub	r17,zero,r17
    3130:	0440cb0e 	bge	zero,r17,3460 <___svfprintf_internal_r+0x1b48>
    3134:	05800404 	movi	r22,16
    3138:	b440e80e 	bge	r22,r17,34dc <___svfprintf_internal_r+0x1bc4>
    313c:	01400074 	movhi	r5,1
    3140:	2952e984 	addi	r5,r5,19366
    3144:	d9402b15 	stw	r5,172(sp)
    3148:	070001c4 	movi	fp,7
    314c:	dd002c17 	ldw	r20,176(sp)
    3150:	00000306 	br	3160 <___svfprintf_internal_r+0x1848>
    3154:	42000204 	addi	r8,r8,8
    3158:	8c7ffc04 	addi	r17,r17,-16
    315c:	b440e20e 	bge	r22,r17,34e8 <___svfprintf_internal_r+0x1bd0>
    3160:	18c00404 	addi	r3,r3,16
    3164:	10800044 	addi	r2,r2,1
    3168:	45400015 	stw	r21,0(r8)
    316c:	45800115 	stw	r22,4(r8)
    3170:	d8c02015 	stw	r3,128(sp)
    3174:	d8801f15 	stw	r2,124(sp)
    3178:	e0bff60e 	bge	fp,r2,3154 <__alt_mem_onchip_memory+0xf7803154>
    317c:	d9801e04 	addi	r6,sp,120
    3180:	a00b883a 	mov	r5,r20
    3184:	9809883a 	mov	r4,r19
    3188:	00070c40 	call	70c4 <__ssprint_r>
    318c:	103ac71e 	bne	r2,zero,1cac <__alt_mem_onchip_memory+0xf7801cac>
    3190:	d8c02017 	ldw	r3,128(sp)
    3194:	d8801f17 	ldw	r2,124(sp)
    3198:	da000404 	addi	r8,sp,16
    319c:	003fee06 	br	3158 <__alt_mem_onchip_memory+0xf7803158>
    31a0:	d8c02d17 	ldw	r3,180(sp)
    31a4:	d9002917 	ldw	r4,164(sp)
    31a8:	002d883a 	mov	r22,zero
    31ac:	18800104 	addi	r2,r3,4
    31b0:	1d000017 	ldw	r20,0(r3)
    31b4:	203e7d0e 	bge	r4,zero,2bac <__alt_mem_onchip_memory+0xf7802bac>
    31b8:	003eda06 	br	2d24 <__alt_mem_onchip_memory+0xf7802d24>
    31bc:	d9402d17 	ldw	r5,180(sp)
    31c0:	d8c02917 	ldw	r3,164(sp)
    31c4:	002d883a 	mov	r22,zero
    31c8:	28800104 	addi	r2,r5,4
    31cc:	2d000017 	ldw	r20,0(r5)
    31d0:	183e2d0e 	bge	r3,zero,2a88 <__alt_mem_onchip_memory+0xf7802a88>
    31d4:	003f6b06 	br	2f84 <__alt_mem_onchip_memory+0xf7802f84>
    31d8:	d8c02d15 	stw	r3,180(sp)
    31dc:	0039883a 	mov	fp,zero
    31e0:	003ed206 	br	2d2c <__alt_mem_onchip_memory+0xf7802d2c>
    31e4:	bc400043 	ldbu	r17,1(r23)
    31e8:	94800814 	ori	r18,r18,32
    31ec:	bdc00044 	addi	r23,r23,1
    31f0:	8c403fcc 	andi	r17,r17,255
    31f4:	8c40201c 	xori	r17,r17,128
    31f8:	8c7fe004 	addi	r17,r17,-128
    31fc:	003a1a06 	br	1a68 <__alt_mem_onchip_memory+0xf7801a68>
    3200:	d9402c17 	ldw	r5,176(sp)
    3204:	d9801e04 	addi	r6,sp,120
    3208:	9809883a 	mov	r4,r19
    320c:	00070c40 	call	70c4 <__ssprint_r>
    3210:	103aa61e 	bne	r2,zero,1cac <__alt_mem_onchip_memory+0xf7801cac>
    3214:	d8c02017 	ldw	r3,128(sp)
    3218:	da000404 	addi	r8,sp,16
    321c:	003d4a06 	br	2748 <__alt_mem_onchip_memory+0xf7802748>
    3220:	d9002917 	ldw	r4,164(sp)
    3224:	05bff7c4 	movi	r22,-33
    3228:	00bfffc4 	movi	r2,-1
    322c:	8dac703a 	and	r22,r17,r22
    3230:	20806a26 	beq	r4,r2,33dc <___svfprintf_internal_r+0x1ac4>
    3234:	008011c4 	movi	r2,71
    3238:	b0813726 	beq	r22,r2,3718 <___svfprintf_internal_r+0x1e00>
    323c:	d9003717 	ldw	r4,220(sp)
    3240:	90c04014 	ori	r3,r18,256
    3244:	d8c02b15 	stw	r3,172(sp)
    3248:	20015d16 	blt	r4,zero,37c0 <___svfprintf_internal_r+0x1ea8>
    324c:	dd003717 	ldw	r20,220(sp)
    3250:	d8002a05 	stb	zero,168(sp)
    3254:	00801984 	movi	r2,102
    3258:	88814026 	beq	r17,r2,375c <___svfprintf_internal_r+0x1e44>
    325c:	00801184 	movi	r2,70
    3260:	88817126 	beq	r17,r2,3828 <___svfprintf_internal_r+0x1f10>
    3264:	00801144 	movi	r2,69
    3268:	b0816226 	beq	r22,r2,37f4 <___svfprintf_internal_r+0x1edc>
    326c:	d8c02917 	ldw	r3,164(sp)
    3270:	d8802104 	addi	r2,sp,132
    3274:	d8800315 	stw	r2,12(sp)
    3278:	d9403617 	ldw	r5,216(sp)
    327c:	d8802504 	addi	r2,sp,148
    3280:	d8800215 	stw	r2,8(sp)
    3284:	d8802604 	addi	r2,sp,152
    3288:	d8c00015 	stw	r3,0(sp)
    328c:	d8800115 	stw	r2,4(sp)
    3290:	01c00084 	movi	r7,2
    3294:	a00d883a 	mov	r6,r20
    3298:	9809883a 	mov	r4,r19
    329c:	d8c03d15 	stw	r3,244(sp)
    32a0:	da003e15 	stw	r8,248(sp)
    32a4:	0003cf00 	call	3cf0 <_dtoa_r>
    32a8:	1021883a 	mov	r16,r2
    32ac:	008019c4 	movi	r2,103
    32b0:	d8c03d17 	ldw	r3,244(sp)
    32b4:	da003e17 	ldw	r8,248(sp)
    32b8:	8880e726 	beq	r17,r2,3658 <___svfprintf_internal_r+0x1d40>
    32bc:	008011c4 	movi	r2,71
    32c0:	8880d426 	beq	r17,r2,3614 <___svfprintf_internal_r+0x1cfc>
    32c4:	80f9883a 	add	fp,r16,r3
    32c8:	d9003617 	ldw	r4,216(sp)
    32cc:	000d883a 	mov	r6,zero
    32d0:	000f883a 	mov	r7,zero
    32d4:	a00b883a 	mov	r5,r20
    32d8:	da003e15 	stw	r8,248(sp)
    32dc:	000adf40 	call	adf4 <__eqdf2>
    32e0:	da003e17 	ldw	r8,248(sp)
    32e4:	1000e426 	beq	r2,zero,3678 <___svfprintf_internal_r+0x1d60>
    32e8:	d8802117 	ldw	r2,132(sp)
    32ec:	1700062e 	bgeu	r2,fp,3308 <___svfprintf_internal_r+0x19f0>
    32f0:	01000c04 	movi	r4,48
    32f4:	10c00044 	addi	r3,r2,1
    32f8:	d8c02115 	stw	r3,132(sp)
    32fc:	11000005 	stb	r4,0(r2)
    3300:	d8802117 	ldw	r2,132(sp)
    3304:	173ffb36 	bltu	r2,fp,32f4 <__alt_mem_onchip_memory+0xf78032f4>
    3308:	1405c83a 	sub	r2,r2,r16
    330c:	d8803315 	stw	r2,204(sp)
    3310:	008011c4 	movi	r2,71
    3314:	b080c526 	beq	r22,r2,362c <___svfprintf_internal_r+0x1d14>
    3318:	00801944 	movi	r2,101
    331c:	1441d90e 	bge	r2,r17,3a84 <___svfprintf_internal_r+0x216c>
    3320:	d8c02617 	ldw	r3,152(sp)
    3324:	00801984 	movi	r2,102
    3328:	d8c03215 	stw	r3,200(sp)
    332c:	88813426 	beq	r17,r2,3800 <___svfprintf_internal_r+0x1ee8>
    3330:	d8c03217 	ldw	r3,200(sp)
    3334:	d9003317 	ldw	r4,204(sp)
    3338:	19012516 	blt	r3,r4,37d0 <___svfprintf_internal_r+0x1eb8>
    333c:	9480004c 	andi	r18,r18,1
    3340:	9001841e 	bne	r18,zero,3954 <___svfprintf_internal_r+0x203c>
    3344:	1805883a 	mov	r2,r3
    3348:	1801cc16 	blt	r3,zero,3a7c <___svfprintf_internal_r+0x2164>
    334c:	d8c03217 	ldw	r3,200(sp)
    3350:	044019c4 	movi	r17,103
    3354:	d8c02e15 	stw	r3,184(sp)
    3358:	df002a07 	ldb	fp,168(sp)
    335c:	e000a61e 	bne	fp,zero,35f8 <___svfprintf_internal_r+0x1ce0>
    3360:	df002783 	ldbu	fp,158(sp)
    3364:	d8802a15 	stw	r2,168(sp)
    3368:	dc802b17 	ldw	r18,172(sp)
    336c:	d8002915 	stw	zero,164(sp)
    3370:	003b1706 	br	1fd0 <__alt_mem_onchip_memory+0xf7801fd0>
    3374:	04000074 	movhi	r16,1
    3378:	8412d904 	addi	r16,r16,19300
    337c:	003aa606 	br	1e18 <__alt_mem_onchip_memory+0xf7801e18>
    3380:	d9003917 	ldw	r4,228(sp)
    3384:	04001004 	movi	r16,64
    3388:	800b883a 	mov	r5,r16
    338c:	00054540 	call	5454 <_malloc_r>
    3390:	d9002c17 	ldw	r4,176(sp)
    3394:	20800015 	stw	r2,0(r4)
    3398:	20800415 	stw	r2,16(r4)
    339c:	1001cb26 	beq	r2,zero,3acc <___svfprintf_internal_r+0x21b4>
    33a0:	d8802c17 	ldw	r2,176(sp)
    33a4:	14000515 	stw	r16,20(r2)
    33a8:	00397606 	br	1984 <__alt_mem_onchip_memory+0xf7801984>
    33ac:	04000074 	movhi	r16,1
    33b0:	8412db04 	addi	r16,r16,19308
    33b4:	003ee106 	br	2f3c <__alt_mem_onchip_memory+0xf7802f3c>
    33b8:	d9402c17 	ldw	r5,176(sp)
    33bc:	d9801e04 	addi	r6,sp,120
    33c0:	9809883a 	mov	r4,r19
    33c4:	00070c40 	call	70c4 <__ssprint_r>
    33c8:	103a381e 	bne	r2,zero,1cac <__alt_mem_onchip_memory+0xf7801cac>
    33cc:	dc402617 	ldw	r17,152(sp)
    33d0:	d8c02017 	ldw	r3,128(sp)
    33d4:	da000404 	addi	r8,sp,16
    33d8:	003f4306 	br	30e8 <__alt_mem_onchip_memory+0xf78030e8>
    33dc:	01400184 	movi	r5,6
    33e0:	d9402915 	stw	r5,164(sp)
    33e4:	003f9506 	br	323c <__alt_mem_onchip_memory+0xf780323c>
    33e8:	d9002d17 	ldw	r4,180(sp)
    33ec:	25000017 	ldw	r20,0(r4)
    33f0:	21000104 	addi	r4,r4,4
    33f4:	d9002d15 	stw	r4,180(sp)
    33f8:	a02dd7fa 	srai	r22,r20,31
    33fc:	b005883a 	mov	r2,r22
    3400:	003a9b06 	br	1e70 <__alt_mem_onchip_memory+0xf7801e70>
    3404:	d9402d17 	ldw	r5,180(sp)
    3408:	002d883a 	mov	r22,zero
    340c:	2d000017 	ldw	r20,0(r5)
    3410:	29400104 	addi	r5,r5,4
    3414:	d9402d15 	stw	r5,180(sp)
    3418:	003bf906 	br	2400 <__alt_mem_onchip_memory+0xf7802400>
    341c:	9480100c 	andi	r18,r18,64
    3420:	90006e26 	beq	r18,zero,35dc <___svfprintf_internal_r+0x1cc4>
    3424:	d9002d17 	ldw	r4,180(sp)
    3428:	d9402f17 	ldw	r5,188(sp)
    342c:	20800017 	ldw	r2,0(r4)
    3430:	21000104 	addi	r4,r4,4
    3434:	d9002d15 	stw	r4,180(sp)
    3438:	1140000d 	sth	r5,0(r2)
    343c:	00396106 	br	19c4 <__alt_mem_onchip_memory+0xf78019c4>
    3440:	d9402c17 	ldw	r5,176(sp)
    3444:	d9801e04 	addi	r6,sp,120
    3448:	9809883a 	mov	r4,r19
    344c:	00070c40 	call	70c4 <__ssprint_r>
    3450:	103a161e 	bne	r2,zero,1cac <__alt_mem_onchip_memory+0xf7801cac>
    3454:	d8c02017 	ldw	r3,128(sp)
    3458:	d8801f17 	ldw	r2,124(sp)
    345c:	da000404 	addi	r8,sp,16
    3460:	d9403317 	ldw	r5,204(sp)
    3464:	10800044 	addi	r2,r2,1
    3468:	44000015 	stw	r16,0(r8)
    346c:	28c7883a 	add	r3,r5,r3
    3470:	003b7706 	br	2250 <__alt_mem_onchip_memory+0xf7802250>
    3474:	8009883a 	mov	r4,r16
    3478:	da003e15 	stw	r8,248(sp)
    347c:	000702c0 	call	702c <strlen>
    3480:	d8802e15 	stw	r2,184(sp)
    3484:	da003e17 	ldw	r8,248(sp)
    3488:	103c280e 	bge	r2,zero,252c <__alt_mem_onchip_memory+0xf780252c>
    348c:	0005883a 	mov	r2,zero
    3490:	003c2606 	br	252c <__alt_mem_onchip_memory+0xf780252c>
    3494:	00bfffc4 	movi	r2,-1
    3498:	003a0906 	br	1cc0 <__alt_mem_onchip_memory+0xf7801cc0>
    349c:	01000074 	movhi	r4,1
    34a0:	2112ed84 	addi	r4,r4,19382
    34a4:	d9003515 	stw	r4,212(sp)
    34a8:	003b0606 	br	20c4 <__alt_mem_onchip_memory+0xf78020c4>
    34ac:	013fffc4 	movi	r4,-1
    34b0:	003a2706 	br	1d50 <__alt_mem_onchip_memory+0xf7801d50>
    34b4:	d9402c17 	ldw	r5,176(sp)
    34b8:	d9801e04 	addi	r6,sp,120
    34bc:	9809883a 	mov	r4,r19
    34c0:	00070c40 	call	70c4 <__ssprint_r>
    34c4:	1039f91e 	bne	r2,zero,1cac <__alt_mem_onchip_memory+0xf7801cac>
    34c8:	d8c02017 	ldw	r3,128(sp)
    34cc:	da000404 	addi	r8,sp,16
    34d0:	003d8406 	br	2ae4 <__alt_mem_onchip_memory+0xf7802ae4>
    34d4:	0023883a 	mov	r17,zero
    34d8:	003d8306 	br	2ae8 <__alt_mem_onchip_memory+0xf7802ae8>
    34dc:	01000074 	movhi	r4,1
    34e0:	2112e984 	addi	r4,r4,19366
    34e4:	d9002b15 	stw	r4,172(sp)
    34e8:	d9002b17 	ldw	r4,172(sp)
    34ec:	1c47883a 	add	r3,r3,r17
    34f0:	10800044 	addi	r2,r2,1
    34f4:	41000015 	stw	r4,0(r8)
    34f8:	44400115 	stw	r17,4(r8)
    34fc:	d8c02015 	stw	r3,128(sp)
    3500:	d8801f15 	stw	r2,124(sp)
    3504:	010001c4 	movi	r4,7
    3508:	20bfcd16 	blt	r4,r2,3440 <__alt_mem_onchip_memory+0xf7803440>
    350c:	42000204 	addi	r8,r8,8
    3510:	003fd306 	br	3460 <__alt_mem_onchip_memory+0xf7803460>
    3514:	d9402c17 	ldw	r5,176(sp)
    3518:	d9801e04 	addi	r6,sp,120
    351c:	9809883a 	mov	r4,r19
    3520:	00070c40 	call	70c4 <__ssprint_r>
    3524:	1039e11e 	bne	r2,zero,1cac <__alt_mem_onchip_memory+0xf7801cac>
    3528:	d8802617 	ldw	r2,152(sp)
    352c:	d8c02017 	ldw	r3,128(sp)
    3530:	da000404 	addi	r8,sp,16
    3534:	003e1c06 	br	2da8 <__alt_mem_onchip_memory+0xf7802da8>
    3538:	d8802917 	ldw	r2,164(sp)
    353c:	00c00184 	movi	r3,6
    3540:	1880012e 	bgeu	r3,r2,3548 <___svfprintf_internal_r+0x1c30>
    3544:	1805883a 	mov	r2,r3
    3548:	d8802e15 	stw	r2,184(sp)
    354c:	1000f316 	blt	r2,zero,391c <___svfprintf_internal_r+0x2004>
    3550:	04000074 	movhi	r16,1
    3554:	d8802a15 	stw	r2,168(sp)
    3558:	dd002d15 	stw	r20,180(sp)
    355c:	d8002915 	stw	zero,164(sp)
    3560:	d8003215 	stw	zero,200(sp)
    3564:	8412e704 	addi	r16,r16,19356
    3568:	0039883a 	mov	fp,zero
    356c:	003a9f06 	br	1fec <__alt_mem_onchip_memory+0xf7801fec>
    3570:	01000074 	movhi	r4,1
    3574:	2112ed84 	addi	r4,r4,19382
    3578:	d9003515 	stw	r4,212(sp)
    357c:	003b5f06 	br	22fc <__alt_mem_onchip_memory+0xf78022fc>
    3580:	d9402c17 	ldw	r5,176(sp)
    3584:	d9801e04 	addi	r6,sp,120
    3588:	9809883a 	mov	r4,r19
    358c:	00070c40 	call	70c4 <__ssprint_r>
    3590:	1039c61e 	bne	r2,zero,1cac <__alt_mem_onchip_memory+0xf7801cac>
    3594:	d8802617 	ldw	r2,152(sp)
    3598:	d9403317 	ldw	r5,204(sp)
    359c:	d8c02017 	ldw	r3,128(sp)
    35a0:	da000404 	addi	r8,sp,16
    35a4:	2885c83a 	sub	r2,r5,r2
    35a8:	003e1006 	br	2dec <__alt_mem_onchip_memory+0xf7802dec>
    35ac:	00800044 	movi	r2,1
    35b0:	10803fcc 	andi	r2,r2,255
    35b4:	00c00044 	movi	r3,1
    35b8:	10fa3526 	beq	r2,r3,1e90 <__alt_mem_onchip_memory+0xf7801e90>
    35bc:	00c00084 	movi	r3,2
    35c0:	10fb9e26 	beq	r2,r3,243c <__alt_mem_onchip_memory+0xf780243c>
    35c4:	003a6406 	br	1f58 <__alt_mem_onchip_memory+0xf7801f58>
    35c8:	0021883a 	mov	r16,zero
    35cc:	003e0806 	br	2df0 <__alt_mem_onchip_memory+0xf7802df0>
    35d0:	07000b44 	movi	fp,45
    35d4:	df002785 	stb	fp,158(sp)
    35d8:	003a0b06 	br	1e08 <__alt_mem_onchip_memory+0xf7801e08>
    35dc:	d8c02d17 	ldw	r3,180(sp)
    35e0:	d9002f17 	ldw	r4,188(sp)
    35e4:	18800017 	ldw	r2,0(r3)
    35e8:	18c00104 	addi	r3,r3,4
    35ec:	d8c02d15 	stw	r3,180(sp)
    35f0:	11000015 	stw	r4,0(r2)
    35f4:	0038f306 	br	19c4 <__alt_mem_onchip_memory+0xf78019c4>
    35f8:	00c00b44 	movi	r3,45
    35fc:	d8c02785 	stb	r3,158(sp)
    3600:	d8802a15 	stw	r2,168(sp)
    3604:	dc802b17 	ldw	r18,172(sp)
    3608:	d8002915 	stw	zero,164(sp)
    360c:	07000b44 	movi	fp,45
    3610:	003a7306 	br	1fe0 <__alt_mem_onchip_memory+0xf7801fe0>
    3614:	9080004c 	andi	r2,r18,1
    3618:	1000941e 	bne	r2,zero,386c <___svfprintf_internal_r+0x1f54>
    361c:	d8802117 	ldw	r2,132(sp)
    3620:	1405c83a 	sub	r2,r2,r16
    3624:	d8803315 	stw	r2,204(sp)
    3628:	b441161e 	bne	r22,r17,3a84 <___svfprintf_internal_r+0x216c>
    362c:	dd802617 	ldw	r22,152(sp)
    3630:	00bfff44 	movi	r2,-3
    3634:	b0801a16 	blt	r22,r2,36a0 <___svfprintf_internal_r+0x1d88>
    3638:	d9402917 	ldw	r5,164(sp)
    363c:	2d801816 	blt	r5,r22,36a0 <___svfprintf_internal_r+0x1d88>
    3640:	dd803215 	stw	r22,200(sp)
    3644:	003f3a06 	br	3330 <__alt_mem_onchip_memory+0xf7803330>
    3648:	1025883a 	mov	r18,r2
    364c:	0039883a 	mov	fp,zero
    3650:	00800084 	movi	r2,2
    3654:	003fd606 	br	35b0 <__alt_mem_onchip_memory+0xf78035b0>
    3658:	9080004c 	andi	r2,r18,1
    365c:	103f191e 	bne	r2,zero,32c4 <__alt_mem_onchip_memory+0xf78032c4>
    3660:	d8802117 	ldw	r2,132(sp)
    3664:	003f2806 	br	3308 <__alt_mem_onchip_memory+0xf7803308>
    3668:	01000074 	movhi	r4,1
    366c:	2112e984 	addi	r4,r4,19366
    3670:	d9002b15 	stw	r4,172(sp)
    3674:	003c7c06 	br	2868 <__alt_mem_onchip_memory+0xf7802868>
    3678:	e005883a 	mov	r2,fp
    367c:	003f2206 	br	3308 <__alt_mem_onchip_memory+0xf7803308>
    3680:	d9402917 	ldw	r5,164(sp)
    3684:	df002783 	ldbu	fp,158(sp)
    3688:	dd002d15 	stw	r20,180(sp)
    368c:	d9402a15 	stw	r5,168(sp)
    3690:	d9402e15 	stw	r5,184(sp)
    3694:	d8002915 	stw	zero,164(sp)
    3698:	d8003215 	stw	zero,200(sp)
    369c:	003a4c06 	br	1fd0 <__alt_mem_onchip_memory+0xf7801fd0>
    36a0:	8c7fff84 	addi	r17,r17,-2
    36a4:	b5bfffc4 	addi	r22,r22,-1
    36a8:	dd802615 	stw	r22,152(sp)
    36ac:	dc4022c5 	stb	r17,139(sp)
    36b0:	b000c316 	blt	r22,zero,39c0 <___svfprintf_internal_r+0x20a8>
    36b4:	00800ac4 	movi	r2,43
    36b8:	d8802305 	stb	r2,140(sp)
    36bc:	00800244 	movi	r2,9
    36c0:	15806e16 	blt	r2,r22,387c <___svfprintf_internal_r+0x1f64>
    36c4:	00800c04 	movi	r2,48
    36c8:	b5800c04 	addi	r22,r22,48
    36cc:	d8802345 	stb	r2,141(sp)
    36d0:	dd802385 	stb	r22,142(sp)
    36d4:	d88023c4 	addi	r2,sp,143
    36d8:	df0022c4 	addi	fp,sp,139
    36dc:	d8c03317 	ldw	r3,204(sp)
    36e0:	1739c83a 	sub	fp,r2,fp
    36e4:	d9003317 	ldw	r4,204(sp)
    36e8:	e0c7883a 	add	r3,fp,r3
    36ec:	df003b15 	stw	fp,236(sp)
    36f0:	d8c02e15 	stw	r3,184(sp)
    36f4:	00800044 	movi	r2,1
    36f8:	1100b70e 	bge	r2,r4,39d8 <___svfprintf_internal_r+0x20c0>
    36fc:	d8c02e17 	ldw	r3,184(sp)
    3700:	18c00044 	addi	r3,r3,1
    3704:	d8c02e15 	stw	r3,184(sp)
    3708:	1805883a 	mov	r2,r3
    370c:	1800b016 	blt	r3,zero,39d0 <___svfprintf_internal_r+0x20b8>
    3710:	d8003215 	stw	zero,200(sp)
    3714:	003f1006 	br	3358 <__alt_mem_onchip_memory+0xf7803358>
    3718:	d8802917 	ldw	r2,164(sp)
    371c:	103ec71e 	bne	r2,zero,323c <__alt_mem_onchip_memory+0xf780323c>
    3720:	dc002915 	stw	r16,164(sp)
    3724:	003ec506 	br	323c <__alt_mem_onchip_memory+0xf780323c>
    3728:	d9402c17 	ldw	r5,176(sp)
    372c:	d9801e04 	addi	r6,sp,120
    3730:	9809883a 	mov	r4,r19
    3734:	00070c40 	call	70c4 <__ssprint_r>
    3738:	10395c1e 	bne	r2,zero,1cac <__alt_mem_onchip_memory+0xf7801cac>
    373c:	dc402617 	ldw	r17,152(sp)
    3740:	d8c02017 	ldw	r3,128(sp)
    3744:	d8801f17 	ldw	r2,124(sp)
    3748:	da000404 	addi	r8,sp,16
    374c:	003e7706 	br	312c <__alt_mem_onchip_memory+0xf780312c>
    3750:	582f883a 	mov	r23,r11
    3754:	d8002915 	stw	zero,164(sp)
    3758:	0038c406 	br	1a6c <__alt_mem_onchip_memory+0xf7801a6c>
    375c:	d8c02917 	ldw	r3,164(sp)
    3760:	d8802104 	addi	r2,sp,132
    3764:	d8800315 	stw	r2,12(sp)
    3768:	d9403617 	ldw	r5,216(sp)
    376c:	d8802504 	addi	r2,sp,148
    3770:	d8800215 	stw	r2,8(sp)
    3774:	d8802604 	addi	r2,sp,152
    3778:	d8c00015 	stw	r3,0(sp)
    377c:	9809883a 	mov	r4,r19
    3780:	d8800115 	stw	r2,4(sp)
    3784:	01c000c4 	movi	r7,3
    3788:	a00d883a 	mov	r6,r20
    378c:	da003e15 	stw	r8,248(sp)
    3790:	0003cf00 	call	3cf0 <_dtoa_r>
    3794:	d9002917 	ldw	r4,164(sp)
    3798:	da003e17 	ldw	r8,248(sp)
    379c:	1021883a 	mov	r16,r2
    37a0:	1139883a 	add	fp,r2,r4
    37a4:	2007883a 	mov	r3,r4
    37a8:	81000007 	ldb	r4,0(r16)
    37ac:	00800c04 	movi	r2,48
    37b0:	20806f26 	beq	r4,r2,3970 <___svfprintf_internal_r+0x2058>
    37b4:	d8c02617 	ldw	r3,152(sp)
    37b8:	e0f9883a 	add	fp,fp,r3
    37bc:	003ec206 	br	32c8 <__alt_mem_onchip_memory+0xf78032c8>
    37c0:	00c00b44 	movi	r3,45
    37c4:	2520003c 	xorhi	r20,r4,32768
    37c8:	d8c02a05 	stb	r3,168(sp)
    37cc:	003ea106 	br	3254 <__alt_mem_onchip_memory+0xf7803254>
    37d0:	d8c03217 	ldw	r3,200(sp)
    37d4:	00c0890e 	bge	zero,r3,39fc <___svfprintf_internal_r+0x20e4>
    37d8:	00800044 	movi	r2,1
    37dc:	d9003317 	ldw	r4,204(sp)
    37e0:	1105883a 	add	r2,r2,r4
    37e4:	d8802e15 	stw	r2,184(sp)
    37e8:	10005f16 	blt	r2,zero,3968 <___svfprintf_internal_r+0x2050>
    37ec:	044019c4 	movi	r17,103
    37f0:	003ed906 	br	3358 <__alt_mem_onchip_memory+0xf7803358>
    37f4:	d9002917 	ldw	r4,164(sp)
    37f8:	20c00044 	addi	r3,r4,1
    37fc:	003e9c06 	br	3270 <__alt_mem_onchip_memory+0xf7803270>
    3800:	d9002917 	ldw	r4,164(sp)
    3804:	00c0680e 	bge	zero,r3,39a8 <___svfprintf_internal_r+0x2090>
    3808:	2000461e 	bne	r4,zero,3924 <___svfprintf_internal_r+0x200c>
    380c:	9480004c 	andi	r18,r18,1
    3810:	9000441e 	bne	r18,zero,3924 <___svfprintf_internal_r+0x200c>
    3814:	1805883a 	mov	r2,r3
    3818:	1800a016 	blt	r3,zero,3a9c <___svfprintf_internal_r+0x2184>
    381c:	d8c03217 	ldw	r3,200(sp)
    3820:	d8c02e15 	stw	r3,184(sp)
    3824:	003ecc06 	br	3358 <__alt_mem_onchip_memory+0xf7803358>
    3828:	d9402917 	ldw	r5,164(sp)
    382c:	d8802104 	addi	r2,sp,132
    3830:	d8800315 	stw	r2,12(sp)
    3834:	d9400015 	stw	r5,0(sp)
    3838:	d8802504 	addi	r2,sp,148
    383c:	d9403617 	ldw	r5,216(sp)
    3840:	d8800215 	stw	r2,8(sp)
    3844:	d8802604 	addi	r2,sp,152
    3848:	d8800115 	stw	r2,4(sp)
    384c:	01c000c4 	movi	r7,3
    3850:	a00d883a 	mov	r6,r20
    3854:	9809883a 	mov	r4,r19
    3858:	da003e15 	stw	r8,248(sp)
    385c:	0003cf00 	call	3cf0 <_dtoa_r>
    3860:	d8c02917 	ldw	r3,164(sp)
    3864:	da003e17 	ldw	r8,248(sp)
    3868:	1021883a 	mov	r16,r2
    386c:	00801184 	movi	r2,70
    3870:	80f9883a 	add	fp,r16,r3
    3874:	88bfcc26 	beq	r17,r2,37a8 <__alt_mem_onchip_memory+0xf78037a8>
    3878:	003e9306 	br	32c8 <__alt_mem_onchip_memory+0xf78032c8>
    387c:	df0022c4 	addi	fp,sp,139
    3880:	dc002915 	stw	r16,164(sp)
    3884:	9829883a 	mov	r20,r19
    3888:	e021883a 	mov	r16,fp
    388c:	4027883a 	mov	r19,r8
    3890:	b009883a 	mov	r4,r22
    3894:	01400284 	movi	r5,10
    3898:	00017240 	call	1724 <__modsi3>
    389c:	10800c04 	addi	r2,r2,48
    38a0:	843fffc4 	addi	r16,r16,-1
    38a4:	b009883a 	mov	r4,r22
    38a8:	01400284 	movi	r5,10
    38ac:	80800005 	stb	r2,0(r16)
    38b0:	00016a00 	call	16a0 <__divsi3>
    38b4:	102d883a 	mov	r22,r2
    38b8:	00800244 	movi	r2,9
    38bc:	15bff416 	blt	r2,r22,3890 <__alt_mem_onchip_memory+0xf7803890>
    38c0:	9811883a 	mov	r8,r19
    38c4:	b0800c04 	addi	r2,r22,48
    38c8:	a027883a 	mov	r19,r20
    38cc:	8029883a 	mov	r20,r16
    38d0:	a17fffc4 	addi	r5,r20,-1
    38d4:	a0bfffc5 	stb	r2,-1(r20)
    38d8:	dc002917 	ldw	r16,164(sp)
    38dc:	2f00752e 	bgeu	r5,fp,3ab4 <___svfprintf_internal_r+0x219c>
    38e0:	d9c02384 	addi	r7,sp,142
    38e4:	3d0fc83a 	sub	r7,r7,r20
    38e8:	d9002344 	addi	r4,sp,141
    38ec:	e1cf883a 	add	r7,fp,r7
    38f0:	00000106 	br	38f8 <___svfprintf_internal_r+0x1fe0>
    38f4:	28800003 	ldbu	r2,0(r5)
    38f8:	20800005 	stb	r2,0(r4)
    38fc:	21000044 	addi	r4,r4,1
    3900:	29400044 	addi	r5,r5,1
    3904:	21fffb1e 	bne	r4,r7,38f4 <__alt_mem_onchip_memory+0xf78038f4>
    3908:	d8802304 	addi	r2,sp,140
    390c:	1505c83a 	sub	r2,r2,r20
    3910:	d8c02344 	addi	r3,sp,141
    3914:	1885883a 	add	r2,r3,r2
    3918:	003f7006 	br	36dc <__alt_mem_onchip_memory+0xf78036dc>
    391c:	0005883a 	mov	r2,zero
    3920:	003f0b06 	br	3550 <__alt_mem_onchip_memory+0xf7803550>
    3924:	d9002917 	ldw	r4,164(sp)
    3928:	d8c03217 	ldw	r3,200(sp)
    392c:	20800044 	addi	r2,r4,1
    3930:	1885883a 	add	r2,r3,r2
    3934:	d8802e15 	stw	r2,184(sp)
    3938:	103e870e 	bge	r2,zero,3358 <__alt_mem_onchip_memory+0xf7803358>
    393c:	0005883a 	mov	r2,zero
    3940:	003e8506 	br	3358 <__alt_mem_onchip_memory+0xf7803358>
    3944:	01000074 	movhi	r4,1
    3948:	2112e984 	addi	r4,r4,19366
    394c:	d9002b15 	stw	r4,172(sp)
    3950:	003cc506 	br	2c68 <__alt_mem_onchip_memory+0xf7802c68>
    3954:	d8c03217 	ldw	r3,200(sp)
    3958:	18c00044 	addi	r3,r3,1
    395c:	d8c02e15 	stw	r3,184(sp)
    3960:	1805883a 	mov	r2,r3
    3964:	183fa10e 	bge	r3,zero,37ec <__alt_mem_onchip_memory+0xf78037ec>
    3968:	0005883a 	mov	r2,zero
    396c:	003f9f06 	br	37ec <__alt_mem_onchip_memory+0xf78037ec>
    3970:	d9003617 	ldw	r4,216(sp)
    3974:	000d883a 	mov	r6,zero
    3978:	000f883a 	mov	r7,zero
    397c:	a00b883a 	mov	r5,r20
    3980:	d8c03d15 	stw	r3,244(sp)
    3984:	da003e15 	stw	r8,248(sp)
    3988:	000adf40 	call	adf4 <__eqdf2>
    398c:	d8c03d17 	ldw	r3,244(sp)
    3990:	da003e17 	ldw	r8,248(sp)
    3994:	103f8726 	beq	r2,zero,37b4 <__alt_mem_onchip_memory+0xf78037b4>
    3998:	00800044 	movi	r2,1
    399c:	10c7c83a 	sub	r3,r2,r3
    39a0:	d8c02615 	stw	r3,152(sp)
    39a4:	003f8406 	br	37b8 <__alt_mem_onchip_memory+0xf78037b8>
    39a8:	20000e1e 	bne	r4,zero,39e4 <___svfprintf_internal_r+0x20cc>
    39ac:	9480004c 	andi	r18,r18,1
    39b0:	90000c1e 	bne	r18,zero,39e4 <___svfprintf_internal_r+0x20cc>
    39b4:	00800044 	movi	r2,1
    39b8:	d8802e15 	stw	r2,184(sp)
    39bc:	003e6606 	br	3358 <__alt_mem_onchip_memory+0xf7803358>
    39c0:	00800b44 	movi	r2,45
    39c4:	05adc83a 	sub	r22,zero,r22
    39c8:	d8802305 	stb	r2,140(sp)
    39cc:	003f3b06 	br	36bc <__alt_mem_onchip_memory+0xf78036bc>
    39d0:	0005883a 	mov	r2,zero
    39d4:	003f4e06 	br	3710 <__alt_mem_onchip_memory+0xf7803710>
    39d8:	90a4703a 	and	r18,r18,r2
    39dc:	903f4a26 	beq	r18,zero,3708 <__alt_mem_onchip_memory+0xf7803708>
    39e0:	003f4606 	br	36fc <__alt_mem_onchip_memory+0xf78036fc>
    39e4:	d8c02917 	ldw	r3,164(sp)
    39e8:	18c00084 	addi	r3,r3,2
    39ec:	d8c02e15 	stw	r3,184(sp)
    39f0:	1805883a 	mov	r2,r3
    39f4:	183e580e 	bge	r3,zero,3358 <__alt_mem_onchip_memory+0xf7803358>
    39f8:	003fd006 	br	393c <__alt_mem_onchip_memory+0xf780393c>
    39fc:	00800084 	movi	r2,2
    3a00:	10c5c83a 	sub	r2,r2,r3
    3a04:	003f7506 	br	37dc <__alt_mem_onchip_memory+0xf78037dc>
    3a08:	d8802d17 	ldw	r2,180(sp)
    3a0c:	d9002d17 	ldw	r4,180(sp)
    3a10:	bc400043 	ldbu	r17,1(r23)
    3a14:	10800017 	ldw	r2,0(r2)
    3a18:	582f883a 	mov	r23,r11
    3a1c:	d8802915 	stw	r2,164(sp)
    3a20:	20800104 	addi	r2,r4,4
    3a24:	d9002917 	ldw	r4,164(sp)
    3a28:	d8802d15 	stw	r2,180(sp)
    3a2c:	203df00e 	bge	r4,zero,31f0 <__alt_mem_onchip_memory+0xf78031f0>
    3a30:	8c403fcc 	andi	r17,r17,255
    3a34:	00bfffc4 	movi	r2,-1
    3a38:	8c40201c 	xori	r17,r17,128
    3a3c:	d8802915 	stw	r2,164(sp)
    3a40:	8c7fe004 	addi	r17,r17,-128
    3a44:	00380806 	br	1a68 <__alt_mem_onchip_memory+0xf7801a68>
    3a48:	9080004c 	andi	r2,r18,1
    3a4c:	0039883a 	mov	fp,zero
    3a50:	10000726 	beq	r2,zero,3a70 <___svfprintf_internal_r+0x2158>
    3a54:	d8c02817 	ldw	r3,160(sp)
    3a58:	dc001dc4 	addi	r16,sp,119
    3a5c:	00800c04 	movi	r2,48
    3a60:	1c07c83a 	sub	r3,r3,r16
    3a64:	d8801dc5 	stb	r2,119(sp)
    3a68:	d8c02e15 	stw	r3,184(sp)
    3a6c:	00395206 	br	1fb8 <__alt_mem_onchip_memory+0xf7801fb8>
    3a70:	d8002e15 	stw	zero,184(sp)
    3a74:	dc001e04 	addi	r16,sp,120
    3a78:	00394f06 	br	1fb8 <__alt_mem_onchip_memory+0xf7801fb8>
    3a7c:	0005883a 	mov	r2,zero
    3a80:	003e3206 	br	334c <__alt_mem_onchip_memory+0xf780334c>
    3a84:	dd802617 	ldw	r22,152(sp)
    3a88:	003f0606 	br	36a4 <__alt_mem_onchip_memory+0xf78036a4>
    3a8c:	d9c02785 	stb	r7,158(sp)
    3a90:	003a5106 	br	23d8 <__alt_mem_onchip_memory+0xf78023d8>
    3a94:	d9c02785 	stb	r7,158(sp)
    3a98:	003a3706 	br	2378 <__alt_mem_onchip_memory+0xf7802378>
    3a9c:	0005883a 	mov	r2,zero
    3aa0:	003f5e06 	br	381c <__alt_mem_onchip_memory+0xf780381c>
    3aa4:	d9c02785 	stb	r7,158(sp)
    3aa8:	00391706 	br	1f08 <__alt_mem_onchip_memory+0xf7801f08>
    3aac:	d9c02785 	stb	r7,158(sp)
    3ab0:	0038e606 	br	1e4c <__alt_mem_onchip_memory+0xf7801e4c>
    3ab4:	d8802344 	addi	r2,sp,141
    3ab8:	003f0806 	br	36dc <__alt_mem_onchip_memory+0xf78036dc>
    3abc:	d9c02785 	stb	r7,158(sp)
    3ac0:	0038b706 	br	1da0 <__alt_mem_onchip_memory+0xf7801da0>
    3ac4:	d9c02785 	stb	r7,158(sp)
    3ac8:	003adc06 	br	263c <__alt_mem_onchip_memory+0xf780263c>
    3acc:	d9403917 	ldw	r5,228(sp)
    3ad0:	00800304 	movi	r2,12
    3ad4:	28800015 	stw	r2,0(r5)
    3ad8:	00bfffc4 	movi	r2,-1
    3adc:	00387806 	br	1cc0 <__alt_mem_onchip_memory+0xf7801cc0>
    3ae0:	d9c02785 	stb	r7,158(sp)
    3ae4:	003abf06 	br	25e4 <__alt_mem_onchip_memory+0xf78025e4>
    3ae8:	d9c02785 	stb	r7,158(sp)
    3aec:	003a9b06 	br	255c <__alt_mem_onchip_memory+0xf780255c>

00003af0 <quorem>:
    3af0:	defff704 	addi	sp,sp,-36
    3af4:	dc800215 	stw	r18,8(sp)
    3af8:	20800417 	ldw	r2,16(r4)
    3afc:	2c800417 	ldw	r18,16(r5)
    3b00:	dfc00815 	stw	ra,32(sp)
    3b04:	ddc00715 	stw	r23,28(sp)
    3b08:	dd800615 	stw	r22,24(sp)
    3b0c:	dd400515 	stw	r21,20(sp)
    3b10:	dd000415 	stw	r20,16(sp)
    3b14:	dcc00315 	stw	r19,12(sp)
    3b18:	dc400115 	stw	r17,4(sp)
    3b1c:	dc000015 	stw	r16,0(sp)
    3b20:	14807116 	blt	r2,r18,3ce8 <quorem+0x1f8>
    3b24:	94bfffc4 	addi	r18,r18,-1
    3b28:	94ad883a 	add	r22,r18,r18
    3b2c:	b5ad883a 	add	r22,r22,r22
    3b30:	2c400504 	addi	r17,r5,20
    3b34:	8da9883a 	add	r20,r17,r22
    3b38:	25400504 	addi	r21,r4,20
    3b3c:	282f883a 	mov	r23,r5
    3b40:	adad883a 	add	r22,r21,r22
    3b44:	a1400017 	ldw	r5,0(r20)
    3b48:	2021883a 	mov	r16,r4
    3b4c:	b1000017 	ldw	r4,0(r22)
    3b50:	29400044 	addi	r5,r5,1
    3b54:	00017980 	call	1798 <__udivsi3>
    3b58:	1027883a 	mov	r19,r2
    3b5c:	10002c26 	beq	r2,zero,3c10 <quorem+0x120>
    3b60:	a813883a 	mov	r9,r21
    3b64:	880b883a 	mov	r5,r17
    3b68:	0009883a 	mov	r4,zero
    3b6c:	000d883a 	mov	r6,zero
    3b70:	2a000017 	ldw	r8,0(r5)
    3b74:	49c00017 	ldw	r7,0(r9)
    3b78:	29400104 	addi	r5,r5,4
    3b7c:	40bfffcc 	andi	r2,r8,65535
    3b80:	14c5383a 	mul	r2,r2,r19
    3b84:	4010d43a 	srli	r8,r8,16
    3b88:	38ffffcc 	andi	r3,r7,65535
    3b8c:	1105883a 	add	r2,r2,r4
    3b90:	1008d43a 	srli	r4,r2,16
    3b94:	44d1383a 	mul	r8,r8,r19
    3b98:	198d883a 	add	r6,r3,r6
    3b9c:	10ffffcc 	andi	r3,r2,65535
    3ba0:	30c7c83a 	sub	r3,r6,r3
    3ba4:	380ed43a 	srli	r7,r7,16
    3ba8:	4105883a 	add	r2,r8,r4
    3bac:	180dd43a 	srai	r6,r3,16
    3bb0:	113fffcc 	andi	r4,r2,65535
    3bb4:	390fc83a 	sub	r7,r7,r4
    3bb8:	398d883a 	add	r6,r7,r6
    3bbc:	300e943a 	slli	r7,r6,16
    3bc0:	18ffffcc 	andi	r3,r3,65535
    3bc4:	1008d43a 	srli	r4,r2,16
    3bc8:	38ceb03a 	or	r7,r7,r3
    3bcc:	49c00015 	stw	r7,0(r9)
    3bd0:	300dd43a 	srai	r6,r6,16
    3bd4:	4a400104 	addi	r9,r9,4
    3bd8:	a17fe52e 	bgeu	r20,r5,3b70 <__alt_mem_onchip_memory+0xf7803b70>
    3bdc:	b0800017 	ldw	r2,0(r22)
    3be0:	10000b1e 	bne	r2,zero,3c10 <quorem+0x120>
    3be4:	b0bfff04 	addi	r2,r22,-4
    3be8:	a880082e 	bgeu	r21,r2,3c0c <quorem+0x11c>
    3bec:	b0ffff17 	ldw	r3,-4(r22)
    3bf0:	18000326 	beq	r3,zero,3c00 <quorem+0x110>
    3bf4:	00000506 	br	3c0c <quorem+0x11c>
    3bf8:	10c00017 	ldw	r3,0(r2)
    3bfc:	1800031e 	bne	r3,zero,3c0c <quorem+0x11c>
    3c00:	10bfff04 	addi	r2,r2,-4
    3c04:	94bfffc4 	addi	r18,r18,-1
    3c08:	a8bffb36 	bltu	r21,r2,3bf8 <__alt_mem_onchip_memory+0xf7803bf8>
    3c0c:	84800415 	stw	r18,16(r16)
    3c10:	b80b883a 	mov	r5,r23
    3c14:	8009883a 	mov	r4,r16
    3c18:	00067540 	call	6754 <__mcmp>
    3c1c:	10002616 	blt	r2,zero,3cb8 <quorem+0x1c8>
    3c20:	9cc00044 	addi	r19,r19,1
    3c24:	a805883a 	mov	r2,r21
    3c28:	000b883a 	mov	r5,zero
    3c2c:	11000017 	ldw	r4,0(r2)
    3c30:	89800017 	ldw	r6,0(r17)
    3c34:	10800104 	addi	r2,r2,4
    3c38:	20ffffcc 	andi	r3,r4,65535
    3c3c:	194b883a 	add	r5,r3,r5
    3c40:	30ffffcc 	andi	r3,r6,65535
    3c44:	28c7c83a 	sub	r3,r5,r3
    3c48:	300cd43a 	srli	r6,r6,16
    3c4c:	2008d43a 	srli	r4,r4,16
    3c50:	180bd43a 	srai	r5,r3,16
    3c54:	18ffffcc 	andi	r3,r3,65535
    3c58:	2189c83a 	sub	r4,r4,r6
    3c5c:	2149883a 	add	r4,r4,r5
    3c60:	200c943a 	slli	r6,r4,16
    3c64:	8c400104 	addi	r17,r17,4
    3c68:	200bd43a 	srai	r5,r4,16
    3c6c:	30c6b03a 	or	r3,r6,r3
    3c70:	10ffff15 	stw	r3,-4(r2)
    3c74:	a47fed2e 	bgeu	r20,r17,3c2c <__alt_mem_onchip_memory+0xf7803c2c>
    3c78:	9485883a 	add	r2,r18,r18
    3c7c:	1085883a 	add	r2,r2,r2
    3c80:	a887883a 	add	r3,r21,r2
    3c84:	18800017 	ldw	r2,0(r3)
    3c88:	10000b1e 	bne	r2,zero,3cb8 <quorem+0x1c8>
    3c8c:	18bfff04 	addi	r2,r3,-4
    3c90:	a880082e 	bgeu	r21,r2,3cb4 <quorem+0x1c4>
    3c94:	18ffff17 	ldw	r3,-4(r3)
    3c98:	18000326 	beq	r3,zero,3ca8 <quorem+0x1b8>
    3c9c:	00000506 	br	3cb4 <quorem+0x1c4>
    3ca0:	10c00017 	ldw	r3,0(r2)
    3ca4:	1800031e 	bne	r3,zero,3cb4 <quorem+0x1c4>
    3ca8:	10bfff04 	addi	r2,r2,-4
    3cac:	94bfffc4 	addi	r18,r18,-1
    3cb0:	a8bffb36 	bltu	r21,r2,3ca0 <__alt_mem_onchip_memory+0xf7803ca0>
    3cb4:	84800415 	stw	r18,16(r16)
    3cb8:	9805883a 	mov	r2,r19
    3cbc:	dfc00817 	ldw	ra,32(sp)
    3cc0:	ddc00717 	ldw	r23,28(sp)
    3cc4:	dd800617 	ldw	r22,24(sp)
    3cc8:	dd400517 	ldw	r21,20(sp)
    3ccc:	dd000417 	ldw	r20,16(sp)
    3cd0:	dcc00317 	ldw	r19,12(sp)
    3cd4:	dc800217 	ldw	r18,8(sp)
    3cd8:	dc400117 	ldw	r17,4(sp)
    3cdc:	dc000017 	ldw	r16,0(sp)
    3ce0:	dec00904 	addi	sp,sp,36
    3ce4:	f800283a 	ret
    3ce8:	0005883a 	mov	r2,zero
    3cec:	003ff306 	br	3cbc <__alt_mem_onchip_memory+0xf7803cbc>

00003cf0 <_dtoa_r>:
    3cf0:	20801017 	ldw	r2,64(r4)
    3cf4:	deffde04 	addi	sp,sp,-136
    3cf8:	df002015 	stw	fp,128(sp)
    3cfc:	dcc01b15 	stw	r19,108(sp)
    3d00:	dc801a15 	stw	r18,104(sp)
    3d04:	dc401915 	stw	r17,100(sp)
    3d08:	dc001815 	stw	r16,96(sp)
    3d0c:	dfc02115 	stw	ra,132(sp)
    3d10:	ddc01f15 	stw	r23,124(sp)
    3d14:	dd801e15 	stw	r22,120(sp)
    3d18:	dd401d15 	stw	r21,116(sp)
    3d1c:	dd001c15 	stw	r20,112(sp)
    3d20:	d9c00315 	stw	r7,12(sp)
    3d24:	2039883a 	mov	fp,r4
    3d28:	3023883a 	mov	r17,r6
    3d2c:	2825883a 	mov	r18,r5
    3d30:	dc002417 	ldw	r16,144(sp)
    3d34:	3027883a 	mov	r19,r6
    3d38:	10000826 	beq	r2,zero,3d5c <_dtoa_r+0x6c>
    3d3c:	21801117 	ldw	r6,68(r4)
    3d40:	00c00044 	movi	r3,1
    3d44:	100b883a 	mov	r5,r2
    3d48:	1986983a 	sll	r3,r3,r6
    3d4c:	11800115 	stw	r6,4(r2)
    3d50:	10c00215 	stw	r3,8(r2)
    3d54:	0005f340 	call	5f34 <_Bfree>
    3d58:	e0001015 	stw	zero,64(fp)
    3d5c:	88002e16 	blt	r17,zero,3e18 <_dtoa_r+0x128>
    3d60:	80000015 	stw	zero,0(r16)
    3d64:	889ffc2c 	andhi	r2,r17,32752
    3d68:	00dffc34 	movhi	r3,32752
    3d6c:	10c01c26 	beq	r2,r3,3de0 <_dtoa_r+0xf0>
    3d70:	000d883a 	mov	r6,zero
    3d74:	000f883a 	mov	r7,zero
    3d78:	9009883a 	mov	r4,r18
    3d7c:	980b883a 	mov	r5,r19
    3d80:	000adf40 	call	adf4 <__eqdf2>
    3d84:	10002b1e 	bne	r2,zero,3e34 <_dtoa_r+0x144>
    3d88:	d9c02317 	ldw	r7,140(sp)
    3d8c:	00800044 	movi	r2,1
    3d90:	38800015 	stw	r2,0(r7)
    3d94:	d8802517 	ldw	r2,148(sp)
    3d98:	10019e26 	beq	r2,zero,4414 <_dtoa_r+0x724>
    3d9c:	d8c02517 	ldw	r3,148(sp)
    3da0:	00800074 	movhi	r2,1
    3da4:	1092e944 	addi	r2,r2,19365
    3da8:	18800015 	stw	r2,0(r3)
    3dac:	10bfffc4 	addi	r2,r2,-1
    3db0:	dfc02117 	ldw	ra,132(sp)
    3db4:	df002017 	ldw	fp,128(sp)
    3db8:	ddc01f17 	ldw	r23,124(sp)
    3dbc:	dd801e17 	ldw	r22,120(sp)
    3dc0:	dd401d17 	ldw	r21,116(sp)
    3dc4:	dd001c17 	ldw	r20,112(sp)
    3dc8:	dcc01b17 	ldw	r19,108(sp)
    3dcc:	dc801a17 	ldw	r18,104(sp)
    3dd0:	dc401917 	ldw	r17,100(sp)
    3dd4:	dc001817 	ldw	r16,96(sp)
    3dd8:	dec02204 	addi	sp,sp,136
    3ddc:	f800283a 	ret
    3de0:	d8c02317 	ldw	r3,140(sp)
    3de4:	0089c3c4 	movi	r2,9999
    3de8:	18800015 	stw	r2,0(r3)
    3dec:	90017726 	beq	r18,zero,43cc <_dtoa_r+0x6dc>
    3df0:	00800074 	movhi	r2,1
    3df4:	1092f504 	addi	r2,r2,19412
    3df8:	d9002517 	ldw	r4,148(sp)
    3dfc:	203fec26 	beq	r4,zero,3db0 <__alt_mem_onchip_memory+0xf7803db0>
    3e00:	10c000c7 	ldb	r3,3(r2)
    3e04:	1801781e 	bne	r3,zero,43e8 <_dtoa_r+0x6f8>
    3e08:	10c000c4 	addi	r3,r2,3
    3e0c:	d9802517 	ldw	r6,148(sp)
    3e10:	30c00015 	stw	r3,0(r6)
    3e14:	003fe606 	br	3db0 <__alt_mem_onchip_memory+0xf7803db0>
    3e18:	04e00034 	movhi	r19,32768
    3e1c:	9cffffc4 	addi	r19,r19,-1
    3e20:	00800044 	movi	r2,1
    3e24:	8ce6703a 	and	r19,r17,r19
    3e28:	80800015 	stw	r2,0(r16)
    3e2c:	9823883a 	mov	r17,r19
    3e30:	003fcc06 	br	3d64 <__alt_mem_onchip_memory+0xf7803d64>
    3e34:	d8800204 	addi	r2,sp,8
    3e38:	d8800015 	stw	r2,0(sp)
    3e3c:	d9c00104 	addi	r7,sp,4
    3e40:	900b883a 	mov	r5,r18
    3e44:	980d883a 	mov	r6,r19
    3e48:	e009883a 	mov	r4,fp
    3e4c:	8820d53a 	srli	r16,r17,20
    3e50:	0006b200 	call	6b20 <__d2b>
    3e54:	d8800915 	stw	r2,36(sp)
    3e58:	8001651e 	bne	r16,zero,43f0 <_dtoa_r+0x700>
    3e5c:	dd800217 	ldw	r22,8(sp)
    3e60:	dc000117 	ldw	r16,4(sp)
    3e64:	00800804 	movi	r2,32
    3e68:	b421883a 	add	r16,r22,r16
    3e6c:	80c10c84 	addi	r3,r16,1074
    3e70:	10c2d10e 	bge	r2,r3,49b8 <_dtoa_r+0xcc8>
    3e74:	00801004 	movi	r2,64
    3e78:	81010484 	addi	r4,r16,1042
    3e7c:	10c7c83a 	sub	r3,r2,r3
    3e80:	9108d83a 	srl	r4,r18,r4
    3e84:	88e2983a 	sll	r17,r17,r3
    3e88:	2448b03a 	or	r4,r4,r17
    3e8c:	000c1bc0 	call	c1bc <__floatunsidf>
    3e90:	017f8434 	movhi	r5,65040
    3e94:	01800044 	movi	r6,1
    3e98:	1009883a 	mov	r4,r2
    3e9c:	194b883a 	add	r5,r3,r5
    3ea0:	843fffc4 	addi	r16,r16,-1
    3ea4:	d9801115 	stw	r6,68(sp)
    3ea8:	000d883a 	mov	r6,zero
    3eac:	01cffe34 	movhi	r7,16376
    3eb0:	000b7640 	call	b764 <__subdf3>
    3eb4:	0198dbf4 	movhi	r6,25455
    3eb8:	01cff4f4 	movhi	r7,16339
    3ebc:	3190d844 	addi	r6,r6,17249
    3ec0:	39e1e9c4 	addi	r7,r7,-30809
    3ec4:	1009883a 	mov	r4,r2
    3ec8:	180b883a 	mov	r5,r3
    3ecc:	000b04c0 	call	b04c <__muldf3>
    3ed0:	01a2d874 	movhi	r6,35681
    3ed4:	01cff1f4 	movhi	r7,16327
    3ed8:	31b22cc4 	addi	r6,r6,-14157
    3edc:	39e28a04 	addi	r7,r7,-30168
    3ee0:	180b883a 	mov	r5,r3
    3ee4:	1009883a 	mov	r4,r2
    3ee8:	0009c600 	call	9c60 <__adddf3>
    3eec:	8009883a 	mov	r4,r16
    3ef0:	1029883a 	mov	r20,r2
    3ef4:	1823883a 	mov	r17,r3
    3ef8:	000c0e00 	call	c0e0 <__floatsidf>
    3efc:	019427f4 	movhi	r6,20639
    3f00:	01cff4f4 	movhi	r7,16339
    3f04:	319e7ec4 	addi	r6,r6,31227
    3f08:	39d104c4 	addi	r7,r7,17427
    3f0c:	1009883a 	mov	r4,r2
    3f10:	180b883a 	mov	r5,r3
    3f14:	000b04c0 	call	b04c <__muldf3>
    3f18:	100d883a 	mov	r6,r2
    3f1c:	180f883a 	mov	r7,r3
    3f20:	a009883a 	mov	r4,r20
    3f24:	880b883a 	mov	r5,r17
    3f28:	0009c600 	call	9c60 <__adddf3>
    3f2c:	1009883a 	mov	r4,r2
    3f30:	180b883a 	mov	r5,r3
    3f34:	1029883a 	mov	r20,r2
    3f38:	1823883a 	mov	r17,r3
    3f3c:	000c0600 	call	c060 <__fixdfsi>
    3f40:	000d883a 	mov	r6,zero
    3f44:	000f883a 	mov	r7,zero
    3f48:	a009883a 	mov	r4,r20
    3f4c:	880b883a 	mov	r5,r17
    3f50:	d8800515 	stw	r2,20(sp)
    3f54:	000af580 	call	af58 <__ledf2>
    3f58:	10028716 	blt	r2,zero,4978 <_dtoa_r+0xc88>
    3f5c:	d8c00517 	ldw	r3,20(sp)
    3f60:	00800584 	movi	r2,22
    3f64:	10c27536 	bltu	r2,r3,493c <_dtoa_r+0xc4c>
    3f68:	180490fa 	slli	r2,r3,3
    3f6c:	00c00074 	movhi	r3,1
    3f70:	18d31104 	addi	r3,r3,19524
    3f74:	1885883a 	add	r2,r3,r2
    3f78:	11000017 	ldw	r4,0(r2)
    3f7c:	11400117 	ldw	r5,4(r2)
    3f80:	900d883a 	mov	r6,r18
    3f84:	980f883a 	mov	r7,r19
    3f88:	000ae7c0 	call	ae7c <__gedf2>
    3f8c:	00828d0e 	bge	zero,r2,49c4 <_dtoa_r+0xcd4>
    3f90:	d9000517 	ldw	r4,20(sp)
    3f94:	d8000e15 	stw	zero,56(sp)
    3f98:	213fffc4 	addi	r4,r4,-1
    3f9c:	d9000515 	stw	r4,20(sp)
    3fa0:	b42dc83a 	sub	r22,r22,r16
    3fa4:	b5bfffc4 	addi	r22,r22,-1
    3fa8:	b0026f16 	blt	r22,zero,4968 <_dtoa_r+0xc78>
    3fac:	d8000815 	stw	zero,32(sp)
    3fb0:	d9c00517 	ldw	r7,20(sp)
    3fb4:	38026416 	blt	r7,zero,4948 <_dtoa_r+0xc58>
    3fb8:	b1ed883a 	add	r22,r22,r7
    3fbc:	d9c00d15 	stw	r7,52(sp)
    3fc0:	d8000a15 	stw	zero,40(sp)
    3fc4:	d9800317 	ldw	r6,12(sp)
    3fc8:	00800244 	movi	r2,9
    3fcc:	11811436 	bltu	r2,r6,4420 <_dtoa_r+0x730>
    3fd0:	00800144 	movi	r2,5
    3fd4:	1184e10e 	bge	r2,r6,535c <_dtoa_r+0x166c>
    3fd8:	31bfff04 	addi	r6,r6,-4
    3fdc:	d9800315 	stw	r6,12(sp)
    3fe0:	0023883a 	mov	r17,zero
    3fe4:	d9800317 	ldw	r6,12(sp)
    3fe8:	008000c4 	movi	r2,3
    3fec:	30836726 	beq	r6,r2,4d8c <_dtoa_r+0x109c>
    3ff0:	1183410e 	bge	r2,r6,4cf8 <_dtoa_r+0x1008>
    3ff4:	d9c00317 	ldw	r7,12(sp)
    3ff8:	00800104 	movi	r2,4
    3ffc:	38827c26 	beq	r7,r2,49f0 <_dtoa_r+0xd00>
    4000:	00800144 	movi	r2,5
    4004:	3884c41e 	bne	r7,r2,5318 <_dtoa_r+0x1628>
    4008:	00800044 	movi	r2,1
    400c:	d8800b15 	stw	r2,44(sp)
    4010:	d8c00517 	ldw	r3,20(sp)
    4014:	d9002217 	ldw	r4,136(sp)
    4018:	1907883a 	add	r3,r3,r4
    401c:	19800044 	addi	r6,r3,1
    4020:	d8c00c15 	stw	r3,48(sp)
    4024:	d9800615 	stw	r6,24(sp)
    4028:	0183a40e 	bge	zero,r6,4ebc <_dtoa_r+0x11cc>
    402c:	d9800617 	ldw	r6,24(sp)
    4030:	3021883a 	mov	r16,r6
    4034:	e0001115 	stw	zero,68(fp)
    4038:	008005c4 	movi	r2,23
    403c:	1184c92e 	bgeu	r2,r6,5364 <_dtoa_r+0x1674>
    4040:	00c00044 	movi	r3,1
    4044:	00800104 	movi	r2,4
    4048:	1085883a 	add	r2,r2,r2
    404c:	11000504 	addi	r4,r2,20
    4050:	180b883a 	mov	r5,r3
    4054:	18c00044 	addi	r3,r3,1
    4058:	313ffb2e 	bgeu	r6,r4,4048 <__alt_mem_onchip_memory+0xf7804048>
    405c:	e1401115 	stw	r5,68(fp)
    4060:	e009883a 	mov	r4,fp
    4064:	0005e8c0 	call	5e8c <_Balloc>
    4068:	d8800715 	stw	r2,28(sp)
    406c:	e0801015 	stw	r2,64(fp)
    4070:	00800384 	movi	r2,14
    4074:	1400f736 	bltu	r2,r16,4454 <_dtoa_r+0x764>
    4078:	8800f626 	beq	r17,zero,4454 <_dtoa_r+0x764>
    407c:	d9c00517 	ldw	r7,20(sp)
    4080:	01c39a0e 	bge	zero,r7,4eec <_dtoa_r+0x11fc>
    4084:	388003cc 	andi	r2,r7,15
    4088:	100490fa 	slli	r2,r2,3
    408c:	382bd13a 	srai	r21,r7,4
    4090:	00c00074 	movhi	r3,1
    4094:	18d31104 	addi	r3,r3,19524
    4098:	1885883a 	add	r2,r3,r2
    409c:	a8c0040c 	andi	r3,r21,16
    40a0:	12400017 	ldw	r9,0(r2)
    40a4:	12000117 	ldw	r8,4(r2)
    40a8:	18037926 	beq	r3,zero,4e90 <_dtoa_r+0x11a0>
    40ac:	00800074 	movhi	r2,1
    40b0:	10930704 	addi	r2,r2,19484
    40b4:	11800817 	ldw	r6,32(r2)
    40b8:	11c00917 	ldw	r7,36(r2)
    40bc:	9009883a 	mov	r4,r18
    40c0:	980b883a 	mov	r5,r19
    40c4:	da001715 	stw	r8,92(sp)
    40c8:	da401615 	stw	r9,88(sp)
    40cc:	000a50c0 	call	a50c <__divdf3>
    40d0:	da001717 	ldw	r8,92(sp)
    40d4:	da401617 	ldw	r9,88(sp)
    40d8:	ad4003cc 	andi	r21,r21,15
    40dc:	040000c4 	movi	r16,3
    40e0:	1023883a 	mov	r17,r2
    40e4:	1829883a 	mov	r20,r3
    40e8:	a8001126 	beq	r21,zero,4130 <_dtoa_r+0x440>
    40ec:	05c00074 	movhi	r23,1
    40f0:	bdd30704 	addi	r23,r23,19484
    40f4:	4805883a 	mov	r2,r9
    40f8:	4007883a 	mov	r3,r8
    40fc:	a980004c 	andi	r6,r21,1
    4100:	1009883a 	mov	r4,r2
    4104:	a82bd07a 	srai	r21,r21,1
    4108:	180b883a 	mov	r5,r3
    410c:	30000426 	beq	r6,zero,4120 <_dtoa_r+0x430>
    4110:	b9800017 	ldw	r6,0(r23)
    4114:	b9c00117 	ldw	r7,4(r23)
    4118:	84000044 	addi	r16,r16,1
    411c:	000b04c0 	call	b04c <__muldf3>
    4120:	bdc00204 	addi	r23,r23,8
    4124:	a83ff51e 	bne	r21,zero,40fc <__alt_mem_onchip_memory+0xf78040fc>
    4128:	1013883a 	mov	r9,r2
    412c:	1811883a 	mov	r8,r3
    4130:	480d883a 	mov	r6,r9
    4134:	400f883a 	mov	r7,r8
    4138:	8809883a 	mov	r4,r17
    413c:	a00b883a 	mov	r5,r20
    4140:	000a50c0 	call	a50c <__divdf3>
    4144:	d8800f15 	stw	r2,60(sp)
    4148:	d8c01015 	stw	r3,64(sp)
    414c:	d8c00e17 	ldw	r3,56(sp)
    4150:	18000626 	beq	r3,zero,416c <_dtoa_r+0x47c>
    4154:	d9000f17 	ldw	r4,60(sp)
    4158:	d9401017 	ldw	r5,64(sp)
    415c:	000d883a 	mov	r6,zero
    4160:	01cffc34 	movhi	r7,16368
    4164:	000af580 	call	af58 <__ledf2>
    4168:	10040b16 	blt	r2,zero,5198 <_dtoa_r+0x14a8>
    416c:	8009883a 	mov	r4,r16
    4170:	000c0e00 	call	c0e0 <__floatsidf>
    4174:	d9800f17 	ldw	r6,60(sp)
    4178:	d9c01017 	ldw	r7,64(sp)
    417c:	1009883a 	mov	r4,r2
    4180:	180b883a 	mov	r5,r3
    4184:	000b04c0 	call	b04c <__muldf3>
    4188:	000d883a 	mov	r6,zero
    418c:	01d00734 	movhi	r7,16412
    4190:	1009883a 	mov	r4,r2
    4194:	180b883a 	mov	r5,r3
    4198:	0009c600 	call	9c60 <__adddf3>
    419c:	1021883a 	mov	r16,r2
    41a0:	d8800617 	ldw	r2,24(sp)
    41a4:	047f3034 	movhi	r17,64704
    41a8:	1c63883a 	add	r17,r3,r17
    41ac:	10031826 	beq	r2,zero,4e10 <_dtoa_r+0x1120>
    41b0:	d8c00517 	ldw	r3,20(sp)
    41b4:	db000617 	ldw	r12,24(sp)
    41b8:	d8c01315 	stw	r3,76(sp)
    41bc:	d9000b17 	ldw	r4,44(sp)
    41c0:	20038f26 	beq	r4,zero,5000 <_dtoa_r+0x1310>
    41c4:	60bfffc4 	addi	r2,r12,-1
    41c8:	100490fa 	slli	r2,r2,3
    41cc:	00c00074 	movhi	r3,1
    41d0:	18d31104 	addi	r3,r3,19524
    41d4:	1885883a 	add	r2,r3,r2
    41d8:	11800017 	ldw	r6,0(r2)
    41dc:	11c00117 	ldw	r7,4(r2)
    41e0:	d8800717 	ldw	r2,28(sp)
    41e4:	0009883a 	mov	r4,zero
    41e8:	014ff834 	movhi	r5,16352
    41ec:	db001615 	stw	r12,88(sp)
    41f0:	15c00044 	addi	r23,r2,1
    41f4:	000a50c0 	call	a50c <__divdf3>
    41f8:	800d883a 	mov	r6,r16
    41fc:	880f883a 	mov	r7,r17
    4200:	1009883a 	mov	r4,r2
    4204:	180b883a 	mov	r5,r3
    4208:	000b7640 	call	b764 <__subdf3>
    420c:	d9401017 	ldw	r5,64(sp)
    4210:	d9000f17 	ldw	r4,60(sp)
    4214:	102b883a 	mov	r21,r2
    4218:	d8c01215 	stw	r3,72(sp)
    421c:	000c0600 	call	c060 <__fixdfsi>
    4220:	1009883a 	mov	r4,r2
    4224:	1029883a 	mov	r20,r2
    4228:	000c0e00 	call	c0e0 <__floatsidf>
    422c:	d9000f17 	ldw	r4,60(sp)
    4230:	d9401017 	ldw	r5,64(sp)
    4234:	100d883a 	mov	r6,r2
    4238:	180f883a 	mov	r7,r3
    423c:	000b7640 	call	b764 <__subdf3>
    4240:	1823883a 	mov	r17,r3
    4244:	d8c00717 	ldw	r3,28(sp)
    4248:	d9401217 	ldw	r5,72(sp)
    424c:	a2000c04 	addi	r8,r20,48
    4250:	1021883a 	mov	r16,r2
    4254:	1a000005 	stb	r8,0(r3)
    4258:	800d883a 	mov	r6,r16
    425c:	880f883a 	mov	r7,r17
    4260:	a809883a 	mov	r4,r21
    4264:	4029883a 	mov	r20,r8
    4268:	000ae7c0 	call	ae7c <__gedf2>
    426c:	00841d16 	blt	zero,r2,52e4 <_dtoa_r+0x15f4>
    4270:	800d883a 	mov	r6,r16
    4274:	880f883a 	mov	r7,r17
    4278:	0009883a 	mov	r4,zero
    427c:	014ffc34 	movhi	r5,16368
    4280:	000b7640 	call	b764 <__subdf3>
    4284:	d9401217 	ldw	r5,72(sp)
    4288:	100d883a 	mov	r6,r2
    428c:	180f883a 	mov	r7,r3
    4290:	a809883a 	mov	r4,r21
    4294:	000ae7c0 	call	ae7c <__gedf2>
    4298:	db001617 	ldw	r12,88(sp)
    429c:	00840e16 	blt	zero,r2,52d8 <_dtoa_r+0x15e8>
    42a0:	00800044 	movi	r2,1
    42a4:	13006b0e 	bge	r2,r12,4454 <_dtoa_r+0x764>
    42a8:	d9000717 	ldw	r4,28(sp)
    42ac:	dd800f15 	stw	r22,60(sp)
    42b0:	dcc01015 	stw	r19,64(sp)
    42b4:	2319883a 	add	r12,r4,r12
    42b8:	dcc01217 	ldw	r19,72(sp)
    42bc:	602d883a 	mov	r22,r12
    42c0:	dc801215 	stw	r18,72(sp)
    42c4:	b825883a 	mov	r18,r23
    42c8:	00000906 	br	42f0 <_dtoa_r+0x600>
    42cc:	000b7640 	call	b764 <__subdf3>
    42d0:	a80d883a 	mov	r6,r21
    42d4:	980f883a 	mov	r7,r19
    42d8:	1009883a 	mov	r4,r2
    42dc:	180b883a 	mov	r5,r3
    42e0:	000af580 	call	af58 <__ledf2>
    42e4:	1003e816 	blt	r2,zero,5288 <_dtoa_r+0x1598>
    42e8:	b825883a 	mov	r18,r23
    42ec:	bd83e926 	beq	r23,r22,5294 <_dtoa_r+0x15a4>
    42f0:	a809883a 	mov	r4,r21
    42f4:	980b883a 	mov	r5,r19
    42f8:	000d883a 	mov	r6,zero
    42fc:	01d00934 	movhi	r7,16420
    4300:	000b04c0 	call	b04c <__muldf3>
    4304:	000d883a 	mov	r6,zero
    4308:	01d00934 	movhi	r7,16420
    430c:	8009883a 	mov	r4,r16
    4310:	880b883a 	mov	r5,r17
    4314:	102b883a 	mov	r21,r2
    4318:	1827883a 	mov	r19,r3
    431c:	000b04c0 	call	b04c <__muldf3>
    4320:	180b883a 	mov	r5,r3
    4324:	1009883a 	mov	r4,r2
    4328:	1821883a 	mov	r16,r3
    432c:	1023883a 	mov	r17,r2
    4330:	000c0600 	call	c060 <__fixdfsi>
    4334:	1009883a 	mov	r4,r2
    4338:	1029883a 	mov	r20,r2
    433c:	000c0e00 	call	c0e0 <__floatsidf>
    4340:	8809883a 	mov	r4,r17
    4344:	800b883a 	mov	r5,r16
    4348:	100d883a 	mov	r6,r2
    434c:	180f883a 	mov	r7,r3
    4350:	000b7640 	call	b764 <__subdf3>
    4354:	a5000c04 	addi	r20,r20,48
    4358:	a80d883a 	mov	r6,r21
    435c:	980f883a 	mov	r7,r19
    4360:	1009883a 	mov	r4,r2
    4364:	180b883a 	mov	r5,r3
    4368:	95000005 	stb	r20,0(r18)
    436c:	1021883a 	mov	r16,r2
    4370:	1823883a 	mov	r17,r3
    4374:	000af580 	call	af58 <__ledf2>
    4378:	bdc00044 	addi	r23,r23,1
    437c:	800d883a 	mov	r6,r16
    4380:	880f883a 	mov	r7,r17
    4384:	0009883a 	mov	r4,zero
    4388:	014ffc34 	movhi	r5,16368
    438c:	103fcf0e 	bge	r2,zero,42cc <__alt_mem_onchip_memory+0xf78042cc>
    4390:	d8c01317 	ldw	r3,76(sp)
    4394:	d8c00515 	stw	r3,20(sp)
    4398:	d9400917 	ldw	r5,36(sp)
    439c:	e009883a 	mov	r4,fp
    43a0:	0005f340 	call	5f34 <_Bfree>
    43a4:	d9000517 	ldw	r4,20(sp)
    43a8:	d9802317 	ldw	r6,140(sp)
    43ac:	d9c02517 	ldw	r7,148(sp)
    43b0:	b8000005 	stb	zero,0(r23)
    43b4:	20800044 	addi	r2,r4,1
    43b8:	30800015 	stw	r2,0(r6)
    43bc:	3802aa26 	beq	r7,zero,4e68 <_dtoa_r+0x1178>
    43c0:	3dc00015 	stw	r23,0(r7)
    43c4:	d8800717 	ldw	r2,28(sp)
    43c8:	003e7906 	br	3db0 <__alt_mem_onchip_memory+0xf7803db0>
    43cc:	00800434 	movhi	r2,16
    43d0:	10bfffc4 	addi	r2,r2,-1
    43d4:	88a2703a 	and	r17,r17,r2
    43d8:	883e851e 	bne	r17,zero,3df0 <__alt_mem_onchip_memory+0xf7803df0>
    43dc:	00800074 	movhi	r2,1
    43e0:	1092f204 	addi	r2,r2,19400
    43e4:	003e8406 	br	3df8 <__alt_mem_onchip_memory+0xf7803df8>
    43e8:	10c00204 	addi	r3,r2,8
    43ec:	003e8706 	br	3e0c <__alt_mem_onchip_memory+0xf7803e0c>
    43f0:	01400434 	movhi	r5,16
    43f4:	297fffc4 	addi	r5,r5,-1
    43f8:	994a703a 	and	r5,r19,r5
    43fc:	9009883a 	mov	r4,r18
    4400:	843f0044 	addi	r16,r16,-1023
    4404:	294ffc34 	orhi	r5,r5,16368
    4408:	dd800217 	ldw	r22,8(sp)
    440c:	d8001115 	stw	zero,68(sp)
    4410:	003ea506 	br	3ea8 <__alt_mem_onchip_memory+0xf7803ea8>
    4414:	00800074 	movhi	r2,1
    4418:	1092e904 	addi	r2,r2,19364
    441c:	003e6406 	br	3db0 <__alt_mem_onchip_memory+0xf7803db0>
    4420:	e0001115 	stw	zero,68(fp)
    4424:	000b883a 	mov	r5,zero
    4428:	e009883a 	mov	r4,fp
    442c:	0005e8c0 	call	5e8c <_Balloc>
    4430:	01bfffc4 	movi	r6,-1
    4434:	01c00044 	movi	r7,1
    4438:	d8800715 	stw	r2,28(sp)
    443c:	d9800c15 	stw	r6,48(sp)
    4440:	e0801015 	stw	r2,64(fp)
    4444:	d8000315 	stw	zero,12(sp)
    4448:	d9c00b15 	stw	r7,44(sp)
    444c:	d9800615 	stw	r6,24(sp)
    4450:	d8002215 	stw	zero,136(sp)
    4454:	d8800117 	ldw	r2,4(sp)
    4458:	10008916 	blt	r2,zero,4680 <_dtoa_r+0x990>
    445c:	d9000517 	ldw	r4,20(sp)
    4460:	00c00384 	movi	r3,14
    4464:	19008616 	blt	r3,r4,4680 <_dtoa_r+0x990>
    4468:	200490fa 	slli	r2,r4,3
    446c:	00c00074 	movhi	r3,1
    4470:	d9802217 	ldw	r6,136(sp)
    4474:	18d31104 	addi	r3,r3,19524
    4478:	1885883a 	add	r2,r3,r2
    447c:	14000017 	ldw	r16,0(r2)
    4480:	14400117 	ldw	r17,4(r2)
    4484:	30016316 	blt	r6,zero,4a14 <_dtoa_r+0xd24>
    4488:	800d883a 	mov	r6,r16
    448c:	880f883a 	mov	r7,r17
    4490:	9009883a 	mov	r4,r18
    4494:	980b883a 	mov	r5,r19
    4498:	000a50c0 	call	a50c <__divdf3>
    449c:	180b883a 	mov	r5,r3
    44a0:	1009883a 	mov	r4,r2
    44a4:	000c0600 	call	c060 <__fixdfsi>
    44a8:	1009883a 	mov	r4,r2
    44ac:	102b883a 	mov	r21,r2
    44b0:	000c0e00 	call	c0e0 <__floatsidf>
    44b4:	800d883a 	mov	r6,r16
    44b8:	880f883a 	mov	r7,r17
    44bc:	1009883a 	mov	r4,r2
    44c0:	180b883a 	mov	r5,r3
    44c4:	000b04c0 	call	b04c <__muldf3>
    44c8:	100d883a 	mov	r6,r2
    44cc:	180f883a 	mov	r7,r3
    44d0:	9009883a 	mov	r4,r18
    44d4:	980b883a 	mov	r5,r19
    44d8:	000b7640 	call	b764 <__subdf3>
    44dc:	d9c00717 	ldw	r7,28(sp)
    44e0:	1009883a 	mov	r4,r2
    44e4:	a8800c04 	addi	r2,r21,48
    44e8:	38800005 	stb	r2,0(r7)
    44ec:	3dc00044 	addi	r23,r7,1
    44f0:	d9c00617 	ldw	r7,24(sp)
    44f4:	01800044 	movi	r6,1
    44f8:	180b883a 	mov	r5,r3
    44fc:	2005883a 	mov	r2,r4
    4500:	39803826 	beq	r7,r6,45e4 <_dtoa_r+0x8f4>
    4504:	000d883a 	mov	r6,zero
    4508:	01d00934 	movhi	r7,16420
    450c:	000b04c0 	call	b04c <__muldf3>
    4510:	000d883a 	mov	r6,zero
    4514:	000f883a 	mov	r7,zero
    4518:	1009883a 	mov	r4,r2
    451c:	180b883a 	mov	r5,r3
    4520:	1025883a 	mov	r18,r2
    4524:	1827883a 	mov	r19,r3
    4528:	000adf40 	call	adf4 <__eqdf2>
    452c:	103f9a26 	beq	r2,zero,4398 <__alt_mem_onchip_memory+0xf7804398>
    4530:	d9c00617 	ldw	r7,24(sp)
    4534:	d8c00717 	ldw	r3,28(sp)
    4538:	b829883a 	mov	r20,r23
    453c:	38bfffc4 	addi	r2,r7,-1
    4540:	18ad883a 	add	r22,r3,r2
    4544:	00000a06 	br	4570 <_dtoa_r+0x880>
    4548:	000b04c0 	call	b04c <__muldf3>
    454c:	000d883a 	mov	r6,zero
    4550:	000f883a 	mov	r7,zero
    4554:	1009883a 	mov	r4,r2
    4558:	180b883a 	mov	r5,r3
    455c:	1025883a 	mov	r18,r2
    4560:	1827883a 	mov	r19,r3
    4564:	b829883a 	mov	r20,r23
    4568:	000adf40 	call	adf4 <__eqdf2>
    456c:	103f8a26 	beq	r2,zero,4398 <__alt_mem_onchip_memory+0xf7804398>
    4570:	800d883a 	mov	r6,r16
    4574:	880f883a 	mov	r7,r17
    4578:	9009883a 	mov	r4,r18
    457c:	980b883a 	mov	r5,r19
    4580:	000a50c0 	call	a50c <__divdf3>
    4584:	180b883a 	mov	r5,r3
    4588:	1009883a 	mov	r4,r2
    458c:	000c0600 	call	c060 <__fixdfsi>
    4590:	1009883a 	mov	r4,r2
    4594:	102b883a 	mov	r21,r2
    4598:	000c0e00 	call	c0e0 <__floatsidf>
    459c:	800d883a 	mov	r6,r16
    45a0:	880f883a 	mov	r7,r17
    45a4:	1009883a 	mov	r4,r2
    45a8:	180b883a 	mov	r5,r3
    45ac:	000b04c0 	call	b04c <__muldf3>
    45b0:	100d883a 	mov	r6,r2
    45b4:	180f883a 	mov	r7,r3
    45b8:	9009883a 	mov	r4,r18
    45bc:	980b883a 	mov	r5,r19
    45c0:	000b7640 	call	b764 <__subdf3>
    45c4:	aa000c04 	addi	r8,r21,48
    45c8:	a2000005 	stb	r8,0(r20)
    45cc:	000d883a 	mov	r6,zero
    45d0:	01d00934 	movhi	r7,16420
    45d4:	1009883a 	mov	r4,r2
    45d8:	180b883a 	mov	r5,r3
    45dc:	a5c00044 	addi	r23,r20,1
    45e0:	b53fd91e 	bne	r22,r20,4548 <__alt_mem_onchip_memory+0xf7804548>
    45e4:	100d883a 	mov	r6,r2
    45e8:	180f883a 	mov	r7,r3
    45ec:	1009883a 	mov	r4,r2
    45f0:	180b883a 	mov	r5,r3
    45f4:	0009c600 	call	9c60 <__adddf3>
    45f8:	100d883a 	mov	r6,r2
    45fc:	180f883a 	mov	r7,r3
    4600:	8009883a 	mov	r4,r16
    4604:	880b883a 	mov	r5,r17
    4608:	1027883a 	mov	r19,r2
    460c:	1825883a 	mov	r18,r3
    4610:	000af580 	call	af58 <__ledf2>
    4614:	10000816 	blt	r2,zero,4638 <_dtoa_r+0x948>
    4618:	980d883a 	mov	r6,r19
    461c:	900f883a 	mov	r7,r18
    4620:	8009883a 	mov	r4,r16
    4624:	880b883a 	mov	r5,r17
    4628:	000adf40 	call	adf4 <__eqdf2>
    462c:	103f5a1e 	bne	r2,zero,4398 <__alt_mem_onchip_memory+0xf7804398>
    4630:	ad40004c 	andi	r21,r21,1
    4634:	a83f5826 	beq	r21,zero,4398 <__alt_mem_onchip_memory+0xf7804398>
    4638:	bd3fffc3 	ldbu	r20,-1(r23)
    463c:	b8bfffc4 	addi	r2,r23,-1
    4640:	1007883a 	mov	r3,r2
    4644:	01400e44 	movi	r5,57
    4648:	d9800717 	ldw	r6,28(sp)
    464c:	00000506 	br	4664 <_dtoa_r+0x974>
    4650:	18ffffc4 	addi	r3,r3,-1
    4654:	11824726 	beq	r2,r6,4f74 <_dtoa_r+0x1284>
    4658:	1d000003 	ldbu	r20,0(r3)
    465c:	102f883a 	mov	r23,r2
    4660:	10bfffc4 	addi	r2,r2,-1
    4664:	a1003fcc 	andi	r4,r20,255
    4668:	2100201c 	xori	r4,r4,128
    466c:	213fe004 	addi	r4,r4,-128
    4670:	217ff726 	beq	r4,r5,4650 <__alt_mem_onchip_memory+0xf7804650>
    4674:	a2000044 	addi	r8,r20,1
    4678:	12000005 	stb	r8,0(r2)
    467c:	003f4606 	br	4398 <__alt_mem_onchip_memory+0xf7804398>
    4680:	d9000b17 	ldw	r4,44(sp)
    4684:	2000c826 	beq	r4,zero,49a8 <_dtoa_r+0xcb8>
    4688:	d9800317 	ldw	r6,12(sp)
    468c:	00c00044 	movi	r3,1
    4690:	1980f90e 	bge	r3,r6,4a78 <_dtoa_r+0xd88>
    4694:	d8800617 	ldw	r2,24(sp)
    4698:	d8c00a17 	ldw	r3,40(sp)
    469c:	157fffc4 	addi	r21,r2,-1
    46a0:	1d41f316 	blt	r3,r21,4e70 <_dtoa_r+0x1180>
    46a4:	1d6bc83a 	sub	r21,r3,r21
    46a8:	d9c00617 	ldw	r7,24(sp)
    46ac:	3802aa16 	blt	r7,zero,5158 <_dtoa_r+0x1468>
    46b0:	dd000817 	ldw	r20,32(sp)
    46b4:	d8800617 	ldw	r2,24(sp)
    46b8:	d8c00817 	ldw	r3,32(sp)
    46bc:	01400044 	movi	r5,1
    46c0:	e009883a 	mov	r4,fp
    46c4:	1887883a 	add	r3,r3,r2
    46c8:	d8c00815 	stw	r3,32(sp)
    46cc:	b0ad883a 	add	r22,r22,r2
    46d0:	00062980 	call	6298 <__i2b>
    46d4:	1023883a 	mov	r17,r2
    46d8:	a0000826 	beq	r20,zero,46fc <_dtoa_r+0xa0c>
    46dc:	0580070e 	bge	zero,r22,46fc <_dtoa_r+0xa0c>
    46e0:	a005883a 	mov	r2,r20
    46e4:	b500b916 	blt	r22,r20,49cc <_dtoa_r+0xcdc>
    46e8:	d9000817 	ldw	r4,32(sp)
    46ec:	a0a9c83a 	sub	r20,r20,r2
    46f0:	b0adc83a 	sub	r22,r22,r2
    46f4:	2089c83a 	sub	r4,r4,r2
    46f8:	d9000815 	stw	r4,32(sp)
    46fc:	d9800a17 	ldw	r6,40(sp)
    4700:	0181810e 	bge	zero,r6,4d08 <_dtoa_r+0x1018>
    4704:	d9c00b17 	ldw	r7,44(sp)
    4708:	3800b326 	beq	r7,zero,49d8 <_dtoa_r+0xce8>
    470c:	a800b226 	beq	r21,zero,49d8 <_dtoa_r+0xce8>
    4710:	880b883a 	mov	r5,r17
    4714:	a80d883a 	mov	r6,r21
    4718:	e009883a 	mov	r4,fp
    471c:	00064cc0 	call	64cc <__pow5mult>
    4720:	d9800917 	ldw	r6,36(sp)
    4724:	100b883a 	mov	r5,r2
    4728:	e009883a 	mov	r4,fp
    472c:	1023883a 	mov	r17,r2
    4730:	00062d40 	call	62d4 <__multiply>
    4734:	1021883a 	mov	r16,r2
    4738:	d8800a17 	ldw	r2,40(sp)
    473c:	d9400917 	ldw	r5,36(sp)
    4740:	e009883a 	mov	r4,fp
    4744:	1545c83a 	sub	r2,r2,r21
    4748:	d8800a15 	stw	r2,40(sp)
    474c:	0005f340 	call	5f34 <_Bfree>
    4750:	d8c00a17 	ldw	r3,40(sp)
    4754:	18009f1e 	bne	r3,zero,49d4 <_dtoa_r+0xce4>
    4758:	05c00044 	movi	r23,1
    475c:	e009883a 	mov	r4,fp
    4760:	b80b883a 	mov	r5,r23
    4764:	00062980 	call	6298 <__i2b>
    4768:	d9000d17 	ldw	r4,52(sp)
    476c:	102b883a 	mov	r21,r2
    4770:	2000ce26 	beq	r4,zero,4aac <_dtoa_r+0xdbc>
    4774:	200d883a 	mov	r6,r4
    4778:	100b883a 	mov	r5,r2
    477c:	e009883a 	mov	r4,fp
    4780:	00064cc0 	call	64cc <__pow5mult>
    4784:	d9800317 	ldw	r6,12(sp)
    4788:	102b883a 	mov	r21,r2
    478c:	b981810e 	bge	r23,r6,4d94 <_dtoa_r+0x10a4>
    4790:	0027883a 	mov	r19,zero
    4794:	a8800417 	ldw	r2,16(r21)
    4798:	05c00804 	movi	r23,32
    479c:	10800104 	addi	r2,r2,4
    47a0:	1085883a 	add	r2,r2,r2
    47a4:	1085883a 	add	r2,r2,r2
    47a8:	a885883a 	add	r2,r21,r2
    47ac:	11000017 	ldw	r4,0(r2)
    47b0:	00061800 	call	6180 <__hi0bits>
    47b4:	b885c83a 	sub	r2,r23,r2
    47b8:	1585883a 	add	r2,r2,r22
    47bc:	108007cc 	andi	r2,r2,31
    47c0:	1000b326 	beq	r2,zero,4a90 <_dtoa_r+0xda0>
    47c4:	00c00804 	movi	r3,32
    47c8:	1887c83a 	sub	r3,r3,r2
    47cc:	01000104 	movi	r4,4
    47d0:	20c2cd0e 	bge	r4,r3,5308 <_dtoa_r+0x1618>
    47d4:	00c00704 	movi	r3,28
    47d8:	1885c83a 	sub	r2,r3,r2
    47dc:	d8c00817 	ldw	r3,32(sp)
    47e0:	a0a9883a 	add	r20,r20,r2
    47e4:	b0ad883a 	add	r22,r22,r2
    47e8:	1887883a 	add	r3,r3,r2
    47ec:	d8c00815 	stw	r3,32(sp)
    47f0:	d9800817 	ldw	r6,32(sp)
    47f4:	0180040e 	bge	zero,r6,4808 <_dtoa_r+0xb18>
    47f8:	800b883a 	mov	r5,r16
    47fc:	e009883a 	mov	r4,fp
    4800:	000660c0 	call	660c <__lshift>
    4804:	1021883a 	mov	r16,r2
    4808:	0580050e 	bge	zero,r22,4820 <_dtoa_r+0xb30>
    480c:	a80b883a 	mov	r5,r21
    4810:	b00d883a 	mov	r6,r22
    4814:	e009883a 	mov	r4,fp
    4818:	000660c0 	call	660c <__lshift>
    481c:	102b883a 	mov	r21,r2
    4820:	d9c00e17 	ldw	r7,56(sp)
    4824:	3801211e 	bne	r7,zero,4cac <_dtoa_r+0xfbc>
    4828:	d9800617 	ldw	r6,24(sp)
    482c:	0181380e 	bge	zero,r6,4d10 <_dtoa_r+0x1020>
    4830:	d8c00b17 	ldw	r3,44(sp)
    4834:	1800ab1e 	bne	r3,zero,4ae4 <_dtoa_r+0xdf4>
    4838:	dc800717 	ldw	r18,28(sp)
    483c:	dcc00617 	ldw	r19,24(sp)
    4840:	9029883a 	mov	r20,r18
    4844:	00000206 	br	4850 <_dtoa_r+0xb60>
    4848:	0005f5c0 	call	5f5c <__multadd>
    484c:	1021883a 	mov	r16,r2
    4850:	a80b883a 	mov	r5,r21
    4854:	8009883a 	mov	r4,r16
    4858:	0003af00 	call	3af0 <quorem>
    485c:	10800c04 	addi	r2,r2,48
    4860:	90800005 	stb	r2,0(r18)
    4864:	94800044 	addi	r18,r18,1
    4868:	9507c83a 	sub	r3,r18,r20
    486c:	000f883a 	mov	r7,zero
    4870:	01800284 	movi	r6,10
    4874:	800b883a 	mov	r5,r16
    4878:	e009883a 	mov	r4,fp
    487c:	1cfff216 	blt	r3,r19,4848 <__alt_mem_onchip_memory+0xf7804848>
    4880:	1011883a 	mov	r8,r2
    4884:	d8800617 	ldw	r2,24(sp)
    4888:	0082370e 	bge	zero,r2,5168 <_dtoa_r+0x1478>
    488c:	d9000717 	ldw	r4,28(sp)
    4890:	0025883a 	mov	r18,zero
    4894:	20af883a 	add	r23,r4,r2
    4898:	01800044 	movi	r6,1
    489c:	800b883a 	mov	r5,r16
    48a0:	e009883a 	mov	r4,fp
    48a4:	da001715 	stw	r8,92(sp)
    48a8:	000660c0 	call	660c <__lshift>
    48ac:	a80b883a 	mov	r5,r21
    48b0:	1009883a 	mov	r4,r2
    48b4:	d8800915 	stw	r2,36(sp)
    48b8:	00067540 	call	6754 <__mcmp>
    48bc:	da001717 	ldw	r8,92(sp)
    48c0:	0081800e 	bge	zero,r2,4ec4 <_dtoa_r+0x11d4>
    48c4:	b93fffc3 	ldbu	r4,-1(r23)
    48c8:	b8bfffc4 	addi	r2,r23,-1
    48cc:	1007883a 	mov	r3,r2
    48d0:	01800e44 	movi	r6,57
    48d4:	d9c00717 	ldw	r7,28(sp)
    48d8:	00000506 	br	48f0 <_dtoa_r+0xc00>
    48dc:	18ffffc4 	addi	r3,r3,-1
    48e0:	11c12326 	beq	r2,r7,4d70 <_dtoa_r+0x1080>
    48e4:	19000003 	ldbu	r4,0(r3)
    48e8:	102f883a 	mov	r23,r2
    48ec:	10bfffc4 	addi	r2,r2,-1
    48f0:	21403fcc 	andi	r5,r4,255
    48f4:	2940201c 	xori	r5,r5,128
    48f8:	297fe004 	addi	r5,r5,-128
    48fc:	29bff726 	beq	r5,r6,48dc <__alt_mem_onchip_memory+0xf78048dc>
    4900:	21000044 	addi	r4,r4,1
    4904:	11000005 	stb	r4,0(r2)
    4908:	a80b883a 	mov	r5,r21
    490c:	e009883a 	mov	r4,fp
    4910:	0005f340 	call	5f34 <_Bfree>
    4914:	883ea026 	beq	r17,zero,4398 <__alt_mem_onchip_memory+0xf7804398>
    4918:	90000426 	beq	r18,zero,492c <_dtoa_r+0xc3c>
    491c:	94400326 	beq	r18,r17,492c <_dtoa_r+0xc3c>
    4920:	900b883a 	mov	r5,r18
    4924:	e009883a 	mov	r4,fp
    4928:	0005f340 	call	5f34 <_Bfree>
    492c:	880b883a 	mov	r5,r17
    4930:	e009883a 	mov	r4,fp
    4934:	0005f340 	call	5f34 <_Bfree>
    4938:	003e9706 	br	4398 <__alt_mem_onchip_memory+0xf7804398>
    493c:	01800044 	movi	r6,1
    4940:	d9800e15 	stw	r6,56(sp)
    4944:	003d9606 	br	3fa0 <__alt_mem_onchip_memory+0xf7803fa0>
    4948:	d8800817 	ldw	r2,32(sp)
    494c:	d8c00517 	ldw	r3,20(sp)
    4950:	d8000d15 	stw	zero,52(sp)
    4954:	10c5c83a 	sub	r2,r2,r3
    4958:	00c9c83a 	sub	r4,zero,r3
    495c:	d8800815 	stw	r2,32(sp)
    4960:	d9000a15 	stw	r4,40(sp)
    4964:	003d9706 	br	3fc4 <__alt_mem_onchip_memory+0xf7803fc4>
    4968:	05adc83a 	sub	r22,zero,r22
    496c:	dd800815 	stw	r22,32(sp)
    4970:	002d883a 	mov	r22,zero
    4974:	003d8e06 	br	3fb0 <__alt_mem_onchip_memory+0xf7803fb0>
    4978:	d9000517 	ldw	r4,20(sp)
    497c:	000c0e00 	call	c0e0 <__floatsidf>
    4980:	100d883a 	mov	r6,r2
    4984:	180f883a 	mov	r7,r3
    4988:	a009883a 	mov	r4,r20
    498c:	880b883a 	mov	r5,r17
    4990:	000adf40 	call	adf4 <__eqdf2>
    4994:	103d7126 	beq	r2,zero,3f5c <__alt_mem_onchip_memory+0xf7803f5c>
    4998:	d9c00517 	ldw	r7,20(sp)
    499c:	39ffffc4 	addi	r7,r7,-1
    49a0:	d9c00515 	stw	r7,20(sp)
    49a4:	003d6d06 	br	3f5c <__alt_mem_onchip_memory+0xf7803f5c>
    49a8:	dd400a17 	ldw	r21,40(sp)
    49ac:	dd000817 	ldw	r20,32(sp)
    49b0:	0023883a 	mov	r17,zero
    49b4:	003f4806 	br	46d8 <__alt_mem_onchip_memory+0xf78046d8>
    49b8:	10e3c83a 	sub	r17,r2,r3
    49bc:	9448983a 	sll	r4,r18,r17
    49c0:	003d3206 	br	3e8c <__alt_mem_onchip_memory+0xf7803e8c>
    49c4:	d8000e15 	stw	zero,56(sp)
    49c8:	003d7506 	br	3fa0 <__alt_mem_onchip_memory+0xf7803fa0>
    49cc:	b005883a 	mov	r2,r22
    49d0:	003f4506 	br	46e8 <__alt_mem_onchip_memory+0xf78046e8>
    49d4:	dc000915 	stw	r16,36(sp)
    49d8:	d9800a17 	ldw	r6,40(sp)
    49dc:	d9400917 	ldw	r5,36(sp)
    49e0:	e009883a 	mov	r4,fp
    49e4:	00064cc0 	call	64cc <__pow5mult>
    49e8:	1021883a 	mov	r16,r2
    49ec:	003f5a06 	br	4758 <__alt_mem_onchip_memory+0xf7804758>
    49f0:	01c00044 	movi	r7,1
    49f4:	d9c00b15 	stw	r7,44(sp)
    49f8:	d8802217 	ldw	r2,136(sp)
    49fc:	0081280e 	bge	zero,r2,4ea0 <_dtoa_r+0x11b0>
    4a00:	100d883a 	mov	r6,r2
    4a04:	1021883a 	mov	r16,r2
    4a08:	d8800c15 	stw	r2,48(sp)
    4a0c:	d8800615 	stw	r2,24(sp)
    4a10:	003d8806 	br	4034 <__alt_mem_onchip_memory+0xf7804034>
    4a14:	d8800617 	ldw	r2,24(sp)
    4a18:	00be9b16 	blt	zero,r2,4488 <__alt_mem_onchip_memory+0xf7804488>
    4a1c:	10010f1e 	bne	r2,zero,4e5c <_dtoa_r+0x116c>
    4a20:	880b883a 	mov	r5,r17
    4a24:	000d883a 	mov	r6,zero
    4a28:	01d00534 	movhi	r7,16404
    4a2c:	8009883a 	mov	r4,r16
    4a30:	000b04c0 	call	b04c <__muldf3>
    4a34:	900d883a 	mov	r6,r18
    4a38:	980f883a 	mov	r7,r19
    4a3c:	1009883a 	mov	r4,r2
    4a40:	180b883a 	mov	r5,r3
    4a44:	000ae7c0 	call	ae7c <__gedf2>
    4a48:	002b883a 	mov	r21,zero
    4a4c:	0023883a 	mov	r17,zero
    4a50:	1000bf16 	blt	r2,zero,4d50 <_dtoa_r+0x1060>
    4a54:	d9802217 	ldw	r6,136(sp)
    4a58:	ddc00717 	ldw	r23,28(sp)
    4a5c:	018c303a 	nor	r6,zero,r6
    4a60:	d9800515 	stw	r6,20(sp)
    4a64:	a80b883a 	mov	r5,r21
    4a68:	e009883a 	mov	r4,fp
    4a6c:	0005f340 	call	5f34 <_Bfree>
    4a70:	883e4926 	beq	r17,zero,4398 <__alt_mem_onchip_memory+0xf7804398>
    4a74:	003fad06 	br	492c <__alt_mem_onchip_memory+0xf780492c>
    4a78:	d9c01117 	ldw	r7,68(sp)
    4a7c:	3801bc26 	beq	r7,zero,5170 <_dtoa_r+0x1480>
    4a80:	10810cc4 	addi	r2,r2,1075
    4a84:	dd400a17 	ldw	r21,40(sp)
    4a88:	dd000817 	ldw	r20,32(sp)
    4a8c:	003f0a06 	br	46b8 <__alt_mem_onchip_memory+0xf78046b8>
    4a90:	00800704 	movi	r2,28
    4a94:	d9000817 	ldw	r4,32(sp)
    4a98:	a0a9883a 	add	r20,r20,r2
    4a9c:	b0ad883a 	add	r22,r22,r2
    4aa0:	2089883a 	add	r4,r4,r2
    4aa4:	d9000815 	stw	r4,32(sp)
    4aa8:	003f5106 	br	47f0 <__alt_mem_onchip_memory+0xf78047f0>
    4aac:	d8c00317 	ldw	r3,12(sp)
    4ab0:	b8c1fc0e 	bge	r23,r3,52a4 <_dtoa_r+0x15b4>
    4ab4:	0027883a 	mov	r19,zero
    4ab8:	b805883a 	mov	r2,r23
    4abc:	003f3e06 	br	47b8 <__alt_mem_onchip_memory+0xf78047b8>
    4ac0:	880b883a 	mov	r5,r17
    4ac4:	e009883a 	mov	r4,fp
    4ac8:	000f883a 	mov	r7,zero
    4acc:	01800284 	movi	r6,10
    4ad0:	0005f5c0 	call	5f5c <__multadd>
    4ad4:	d9000c17 	ldw	r4,48(sp)
    4ad8:	1023883a 	mov	r17,r2
    4adc:	0102040e 	bge	zero,r4,52f0 <_dtoa_r+0x1600>
    4ae0:	d9000615 	stw	r4,24(sp)
    4ae4:	0500050e 	bge	zero,r20,4afc <_dtoa_r+0xe0c>
    4ae8:	880b883a 	mov	r5,r17
    4aec:	a00d883a 	mov	r6,r20
    4af0:	e009883a 	mov	r4,fp
    4af4:	000660c0 	call	660c <__lshift>
    4af8:	1023883a 	mov	r17,r2
    4afc:	9801241e 	bne	r19,zero,4f90 <_dtoa_r+0x12a0>
    4b00:	8829883a 	mov	r20,r17
    4b04:	d9000617 	ldw	r4,24(sp)
    4b08:	dcc00717 	ldw	r19,28(sp)
    4b0c:	9480004c 	andi	r18,r18,1
    4b10:	20bfffc4 	addi	r2,r4,-1
    4b14:	9885883a 	add	r2,r19,r2
    4b18:	d8800415 	stw	r2,16(sp)
    4b1c:	dc800615 	stw	r18,24(sp)
    4b20:	a80b883a 	mov	r5,r21
    4b24:	8009883a 	mov	r4,r16
    4b28:	0003af00 	call	3af0 <quorem>
    4b2c:	880b883a 	mov	r5,r17
    4b30:	8009883a 	mov	r4,r16
    4b34:	102f883a 	mov	r23,r2
    4b38:	00067540 	call	6754 <__mcmp>
    4b3c:	a80b883a 	mov	r5,r21
    4b40:	a00d883a 	mov	r6,r20
    4b44:	e009883a 	mov	r4,fp
    4b48:	102d883a 	mov	r22,r2
    4b4c:	00067b40 	call	67b4 <__mdiff>
    4b50:	1007883a 	mov	r3,r2
    4b54:	10800317 	ldw	r2,12(r2)
    4b58:	bc800c04 	addi	r18,r23,48
    4b5c:	180b883a 	mov	r5,r3
    4b60:	10004e1e 	bne	r2,zero,4c9c <_dtoa_r+0xfac>
    4b64:	8009883a 	mov	r4,r16
    4b68:	d8c01615 	stw	r3,88(sp)
    4b6c:	00067540 	call	6754 <__mcmp>
    4b70:	d8c01617 	ldw	r3,88(sp)
    4b74:	e009883a 	mov	r4,fp
    4b78:	d8801615 	stw	r2,88(sp)
    4b7c:	180b883a 	mov	r5,r3
    4b80:	0005f340 	call	5f34 <_Bfree>
    4b84:	d8801617 	ldw	r2,88(sp)
    4b88:	1000041e 	bne	r2,zero,4b9c <_dtoa_r+0xeac>
    4b8c:	d9800317 	ldw	r6,12(sp)
    4b90:	3000021e 	bne	r6,zero,4b9c <_dtoa_r+0xeac>
    4b94:	d8c00617 	ldw	r3,24(sp)
    4b98:	18003726 	beq	r3,zero,4c78 <_dtoa_r+0xf88>
    4b9c:	b0002016 	blt	r22,zero,4c20 <_dtoa_r+0xf30>
    4ba0:	b000041e 	bne	r22,zero,4bb4 <_dtoa_r+0xec4>
    4ba4:	d9000317 	ldw	r4,12(sp)
    4ba8:	2000021e 	bne	r4,zero,4bb4 <_dtoa_r+0xec4>
    4bac:	d8c00617 	ldw	r3,24(sp)
    4bb0:	18001b26 	beq	r3,zero,4c20 <_dtoa_r+0xf30>
    4bb4:	00810716 	blt	zero,r2,4fd4 <_dtoa_r+0x12e4>
    4bb8:	d8c00417 	ldw	r3,16(sp)
    4bbc:	9d800044 	addi	r22,r19,1
    4bc0:	9c800005 	stb	r18,0(r19)
    4bc4:	b02f883a 	mov	r23,r22
    4bc8:	98c10626 	beq	r19,r3,4fe4 <_dtoa_r+0x12f4>
    4bcc:	800b883a 	mov	r5,r16
    4bd0:	000f883a 	mov	r7,zero
    4bd4:	01800284 	movi	r6,10
    4bd8:	e009883a 	mov	r4,fp
    4bdc:	0005f5c0 	call	5f5c <__multadd>
    4be0:	1021883a 	mov	r16,r2
    4be4:	000f883a 	mov	r7,zero
    4be8:	01800284 	movi	r6,10
    4bec:	880b883a 	mov	r5,r17
    4bf0:	e009883a 	mov	r4,fp
    4bf4:	8d002526 	beq	r17,r20,4c8c <_dtoa_r+0xf9c>
    4bf8:	0005f5c0 	call	5f5c <__multadd>
    4bfc:	a00b883a 	mov	r5,r20
    4c00:	000f883a 	mov	r7,zero
    4c04:	01800284 	movi	r6,10
    4c08:	e009883a 	mov	r4,fp
    4c0c:	1023883a 	mov	r17,r2
    4c10:	0005f5c0 	call	5f5c <__multadd>
    4c14:	1029883a 	mov	r20,r2
    4c18:	b027883a 	mov	r19,r22
    4c1c:	003fc006 	br	4b20 <__alt_mem_onchip_memory+0xf7804b20>
    4c20:	9011883a 	mov	r8,r18
    4c24:	00800e0e 	bge	zero,r2,4c60 <_dtoa_r+0xf70>
    4c28:	800b883a 	mov	r5,r16
    4c2c:	01800044 	movi	r6,1
    4c30:	e009883a 	mov	r4,fp
    4c34:	da001715 	stw	r8,92(sp)
    4c38:	000660c0 	call	660c <__lshift>
    4c3c:	a80b883a 	mov	r5,r21
    4c40:	1009883a 	mov	r4,r2
    4c44:	1021883a 	mov	r16,r2
    4c48:	00067540 	call	6754 <__mcmp>
    4c4c:	da001717 	ldw	r8,92(sp)
    4c50:	0081960e 	bge	zero,r2,52ac <_dtoa_r+0x15bc>
    4c54:	00800e44 	movi	r2,57
    4c58:	40817026 	beq	r8,r2,521c <_dtoa_r+0x152c>
    4c5c:	ba000c44 	addi	r8,r23,49
    4c60:	8825883a 	mov	r18,r17
    4c64:	9dc00044 	addi	r23,r19,1
    4c68:	9a000005 	stb	r8,0(r19)
    4c6c:	a023883a 	mov	r17,r20
    4c70:	dc000915 	stw	r16,36(sp)
    4c74:	003f2406 	br	4908 <__alt_mem_onchip_memory+0xf7804908>
    4c78:	00800e44 	movi	r2,57
    4c7c:	9011883a 	mov	r8,r18
    4c80:	90816626 	beq	r18,r2,521c <_dtoa_r+0x152c>
    4c84:	05bff516 	blt	zero,r22,4c5c <__alt_mem_onchip_memory+0xf7804c5c>
    4c88:	003ff506 	br	4c60 <__alt_mem_onchip_memory+0xf7804c60>
    4c8c:	0005f5c0 	call	5f5c <__multadd>
    4c90:	1023883a 	mov	r17,r2
    4c94:	1029883a 	mov	r20,r2
    4c98:	003fdf06 	br	4c18 <__alt_mem_onchip_memory+0xf7804c18>
    4c9c:	e009883a 	mov	r4,fp
    4ca0:	0005f340 	call	5f34 <_Bfree>
    4ca4:	00800044 	movi	r2,1
    4ca8:	003fbc06 	br	4b9c <__alt_mem_onchip_memory+0xf7804b9c>
    4cac:	a80b883a 	mov	r5,r21
    4cb0:	8009883a 	mov	r4,r16
    4cb4:	00067540 	call	6754 <__mcmp>
    4cb8:	103edb0e 	bge	r2,zero,4828 <__alt_mem_onchip_memory+0xf7804828>
    4cbc:	800b883a 	mov	r5,r16
    4cc0:	000f883a 	mov	r7,zero
    4cc4:	01800284 	movi	r6,10
    4cc8:	e009883a 	mov	r4,fp
    4ccc:	0005f5c0 	call	5f5c <__multadd>
    4cd0:	1021883a 	mov	r16,r2
    4cd4:	d8800517 	ldw	r2,20(sp)
    4cd8:	d8c00b17 	ldw	r3,44(sp)
    4cdc:	10bfffc4 	addi	r2,r2,-1
    4ce0:	d8800515 	stw	r2,20(sp)
    4ce4:	183f761e 	bne	r3,zero,4ac0 <__alt_mem_onchip_memory+0xf7804ac0>
    4ce8:	d9000c17 	ldw	r4,48(sp)
    4cec:	0101730e 	bge	zero,r4,52bc <_dtoa_r+0x15cc>
    4cf0:	d9000615 	stw	r4,24(sp)
    4cf4:	003ed006 	br	4838 <__alt_mem_onchip_memory+0xf7804838>
    4cf8:	00800084 	movi	r2,2
    4cfc:	3081861e 	bne	r6,r2,5318 <_dtoa_r+0x1628>
    4d00:	d8000b15 	stw	zero,44(sp)
    4d04:	003f3c06 	br	49f8 <__alt_mem_onchip_memory+0xf78049f8>
    4d08:	dc000917 	ldw	r16,36(sp)
    4d0c:	003e9206 	br	4758 <__alt_mem_onchip_memory+0xf7804758>
    4d10:	d9c00317 	ldw	r7,12(sp)
    4d14:	00800084 	movi	r2,2
    4d18:	11fec50e 	bge	r2,r7,4830 <__alt_mem_onchip_memory+0xf7804830>
    4d1c:	d9000617 	ldw	r4,24(sp)
    4d20:	20013c1e 	bne	r4,zero,5214 <_dtoa_r+0x1524>
    4d24:	a80b883a 	mov	r5,r21
    4d28:	000f883a 	mov	r7,zero
    4d2c:	01800144 	movi	r6,5
    4d30:	e009883a 	mov	r4,fp
    4d34:	0005f5c0 	call	5f5c <__multadd>
    4d38:	100b883a 	mov	r5,r2
    4d3c:	8009883a 	mov	r4,r16
    4d40:	102b883a 	mov	r21,r2
    4d44:	00067540 	call	6754 <__mcmp>
    4d48:	dc000915 	stw	r16,36(sp)
    4d4c:	00bf410e 	bge	zero,r2,4a54 <__alt_mem_onchip_memory+0xf7804a54>
    4d50:	d9c00717 	ldw	r7,28(sp)
    4d54:	00800c44 	movi	r2,49
    4d58:	38800005 	stb	r2,0(r7)
    4d5c:	d8800517 	ldw	r2,20(sp)
    4d60:	3dc00044 	addi	r23,r7,1
    4d64:	10800044 	addi	r2,r2,1
    4d68:	d8800515 	stw	r2,20(sp)
    4d6c:	003f3d06 	br	4a64 <__alt_mem_onchip_memory+0xf7804a64>
    4d70:	d9800517 	ldw	r6,20(sp)
    4d74:	d9c00717 	ldw	r7,28(sp)
    4d78:	00800c44 	movi	r2,49
    4d7c:	31800044 	addi	r6,r6,1
    4d80:	d9800515 	stw	r6,20(sp)
    4d84:	38800005 	stb	r2,0(r7)
    4d88:	003edf06 	br	4908 <__alt_mem_onchip_memory+0xf7804908>
    4d8c:	d8000b15 	stw	zero,44(sp)
    4d90:	003c9f06 	br	4010 <__alt_mem_onchip_memory+0xf7804010>
    4d94:	903e7e1e 	bne	r18,zero,4790 <__alt_mem_onchip_memory+0xf7804790>
    4d98:	00800434 	movhi	r2,16
    4d9c:	10bfffc4 	addi	r2,r2,-1
    4da0:	9884703a 	and	r2,r19,r2
    4da4:	1000ea1e 	bne	r2,zero,5150 <_dtoa_r+0x1460>
    4da8:	9cdffc2c 	andhi	r19,r19,32752
    4dac:	9800e826 	beq	r19,zero,5150 <_dtoa_r+0x1460>
    4db0:	d9c00817 	ldw	r7,32(sp)
    4db4:	b5800044 	addi	r22,r22,1
    4db8:	04c00044 	movi	r19,1
    4dbc:	39c00044 	addi	r7,r7,1
    4dc0:	d9c00815 	stw	r7,32(sp)
    4dc4:	d8800d17 	ldw	r2,52(sp)
    4dc8:	103e721e 	bne	r2,zero,4794 <__alt_mem_onchip_memory+0xf7804794>
    4dcc:	00800044 	movi	r2,1
