
media.elf:     file format elf32-littlenios2
media.elf
architecture: nios2:r1, flags 0x00000112:
EXEC_P, HAS_SYMS, D_PAGED
start address 0x00000248

Program Header:
    LOAD off    0x00001000 vaddr 0x00000000 paddr 0x00000000 align 2**12
         filesz 0x00000020 memsz 0x00000020 flags r-x
    LOAD off    0x00001020 vaddr 0x00000020 paddr 0x00000020 align 2**12
         filesz 0x00007304 memsz 0x00007304 flags r-x
    LOAD off    0x00008324 vaddr 0x00007324 paddr 0x00008d58 align 2**12
         filesz 0x00001a34 memsz 0x00001a34 flags rw-
    LOAD off    0x0000a78c vaddr 0x0000a78c paddr 0x0000a78c align 2**12
         filesz 0x00000000 memsz 0x00000120 flags rw-

Sections:
Idx Name          Size      VMA       LMA       File off  Algn
  0 .entry        00000020  00000000  00000000  00001000  2**5
                  CONTENTS, ALLOC, LOAD, READONLY, CODE
  1 .exceptions   00000228  00000020  00000020  00001020  2**2
                  CONTENTS, ALLOC, LOAD, READONLY, CODE
  2 .text         00006ef4  00000248  00000248  00001248  2**2
                  CONTENTS, ALLOC, LOAD, READONLY, CODE
  3 .rodata       000001e8  0000713c  0000713c  0000813c  2**2
                  CONTENTS, ALLOC, LOAD, READONLY, DATA
  4 .rwdata       00001a34  00007324  00008d58  00008324  2**2
                  CONTENTS, ALLOC, LOAD, DATA, SMALL_DATA
  5 .bss          00000120  0000a78c  0000a78c  0000a78c  2**2
                  ALLOC, SMALL_DATA
  6 .sdram        00000000  0000a8ac  0000a8ac  00009d58  2**0
                  CONTENTS
  7 .flash_controller 00000000  08000000  08000000  00009d58  2**0
                  CONTENTS
  8 .onchip_memory 00000000  08800000  08800000  00009d58  2**0
                  CONTENTS
  9 .comment      00000023  00000000  00000000  00009d58  2**0
                  CONTENTS, READONLY
 10 .debug_aranges 00000778  00000000  00000000  00009d80  2**3
                  CONTENTS, READONLY, DEBUGGING
 11 .debug_info   0000c244  00000000  00000000  0000a4f8  2**0
                  CONTENTS, READONLY, DEBUGGING
 12 .debug_abbrev 00003947  00000000  00000000  0001673c  2**0
                  CONTENTS, READONLY, DEBUGGING
 13 .debug_line   00004203  00000000  00000000  0001a083  2**0
                  CONTENTS, READONLY, DEBUGGING
 14 .debug_frame  0000190c  00000000  00000000  0001e288  2**2
                  CONTENTS, READONLY, DEBUGGING
 15 .debug_str    00002eb5  00000000  00000000  0001fb94  2**0
                  CONTENTS, READONLY, DEBUGGING
 16 .debug_loc    00000d04  00000000  00000000  00022a49  2**0
                  CONTENTS, READONLY, DEBUGGING
 17 .debug_alt_sim_info 00000060  00000000  00000000  00023750  2**2
                  CONTENTS, READONLY, DEBUGGING
 18 .debug_ranges 000001e8  00000000  00000000  000237b0  2**3
                  CONTENTS, READONLY, DEBUGGING
 19 .thread_model 00000003  00000000  00000000  000267be  2**0
                  CONTENTS, READONLY
 20 .cpu          00000003  00000000  00000000  000267c1  2**0
                  CONTENTS, READONLY
 21 .qsys         00000001  00000000  00000000  000267c4  2**0
                  CONTENTS, READONLY
 22 .simulation_enabled 00000001  00000000  00000000  000267c5  2**0
                  CONTENTS, READONLY
 23 .sysid_hash   00000004  00000000  00000000  000267c6  2**0
                  CONTENTS, READONLY
 24 .sysid_base   00000004  00000000  00000000  000267ca  2**0
                  CONTENTS, READONLY
 25 .sysid_time   00000004  00000000  00000000  000267ce  2**0
                  CONTENTS, READONLY
 26 .stderr_dev   00000009  00000000  00000000  000267d2  2**0
                  CONTENTS, READONLY
 27 .stdin_dev    00000009  00000000  00000000  000267db  2**0
                  CONTENTS, READONLY
 28 .stdout_dev   00000009  00000000  00000000  000267e4  2**0
                  CONTENTS, READONLY
 29 .sopc_system_name 0000000b  00000000  00000000  000267ed  2**0
                  CONTENTS, READONLY
 30 .quartus_project_dir 00000044  00000000  00000000  000267f8  2**0
                  CONTENTS, READONLY
 31 .jdi          00003a07  00000000  00000000  0002683c  2**0
                  CONTENTS, READONLY
 32 .sopcinfo     000e2959  00000000  00000000  0002a243  2**0
                  CONTENTS, READONLY
SYMBOL TABLE:
00000000 l    d  .entry	00000000 .entry
00000020 l    d  .exceptions	00000000 .exceptions
00000248 l    d  .text	00000000 .text
0000713c l    d  .rodata	00000000 .rodata
00007324 l    d  .rwdata	00000000 .rwdata
0000a78c l    d  .bss	00000000 .bss
0000a8ac l    d  .sdram	00000000 .sdram
08000000 l    d  .flash_controller	00000000 .flash_controller
08800000 l    d  .onchip_memory	00000000 .onchip_memory
00000000 l    d  .comment	00000000 .comment
00000000 l    d  .debug_aranges	00000000 .debug_aranges
00000000 l    d  .debug_info	00000000 .debug_info
00000000 l    d  .debug_abbrev	00000000 .debug_abbrev
00000000 l    d  .debug_line	00000000 .debug_line
00000000 l    d  .debug_frame	00000000 .debug_frame
00000000 l    d  .debug_str	00000000 .debug_str
00000000 l    d  .debug_loc	00000000 .debug_loc
00000000 l    d  .debug_alt_sim_info	00000000 .debug_alt_sim_info
00000000 l    d  .debug_ranges	00000000 .debug_ranges
00000000 l    df *ABS*	00000000 ../media_bsp//obj/HAL/src/crt0.o
00000290 l       .text	00000000 alt_after_alt_main
00000000 l    df *ABS*	00000000 alt_irq_handler.c
00000000 l    df *ABS*	00000000 alt_instruction_exception_entry.c
00000000 l    df *ABS*	00000000 media.c
00000000 l    df *ABS*	00000000 memcpy.c
00000000 l    df *ABS*	00000000 alt_load.c
00000ff4 l     F .text	00000068 alt_load_section
00000000 l    df *ABS*	00000000 alt_main.c
00000000 l    df *ABS*	00000000 alt_sys_init.c
0000115c l     F .text	00000034 alt_dev_reg
00007324 l     O .rwdata	000000dc flash_controller
00007400 l     O .rwdata	00001060 jtag_uart
00008460 l     O .rwdata	00000030 audio_config
00008490 l     O .rwdata	00000030 audio
000084c0 l     O .rwdata	0000002c char_lcd
000084ec l     O .rwdata	0000002c green_leds
00008518 l     O .rwdata	0000002c HEX3_HEX0
00008544 l     O .rwdata	0000002c HEX7_HEX4
00008570 l     O .rwdata	0000002c pushbuttons
0000859c l     O .rwdata	0000002c red_leds
000085c8 l     O .rwdata	0000002c switches
000085f4 l     O .rwdata	00000038 ps2_key
0000862c l     O .rwdata	00000038 ps2_mouse
00008664 l     O .rwdata	0000002c serial_port
00008690 l     O .rwdata	00000048 mtl_char_buffer
000086d8 l     O .rwdata	00000054 mtl_pixel_buffer_dma
0000872c l     O .rwdata	0000002c SD_Card
00000000 l    df *ABS*	00000000 altera_avalon_cfi_flash.c
0000159c l     F .text	00000034 alt_flash_device_register
00000000 l    df *ABS*	00000000 altera_avalon_cfi_flash_table.c
000023ec l     F .text	00000080 alt_read_16bit_query_entry
00000000 l    df *ABS*	00000000 altera_avalon_jtag_uart_fd.c
00000000 l    df *ABS*	00000000 altera_avalon_jtag_uart_init.c
00003494 l     F .text	00000210 altera_avalon_jtag_uart_irq
000036a4 l     F .text	000000a0 altera_avalon_jtag_uart_timeout
00000000 l    df *ABS*	00000000 altera_avalon_jtag_uart_ioctl.c
00000000 l    df *ABS*	00000000 altera_avalon_jtag_uart_read.c
00000000 l    df *ABS*	00000000 altera_avalon_jtag_uart_write.c
00000000 l    df *ABS*	00000000 altera_avalon_timer_sc.c
00003cdc l     F .text	0000007c alt_avalon_timer_sc_irq
00000000 l    df *ABS*	00000000 altera_up_avalon_character_lcd.c
00000000 l    df *ABS*	00000000 altera_up_avalon_ps2.c
00000000 l    df *ABS*	00000000 altera_up_avalon_rs232.c
00000000 l    df *ABS*	00000000 altera_up_avalon_video_character_buffer_with_dma.c
00000000 l    df *ABS*	00000000 alt_alarm_start.c
00000000 l    df *ABS*	00000000 alt_close.c
0000510c l     F .text	0000003c alt_get_errno
00000000 l    df *ABS*	00000000 alt_dcache_flush.c
00000000 l    df *ABS*	00000000 alt_dcache_flush_all.c
00000000 l    df *ABS*	00000000 alt_dev.c
000052d8 l     F .text	0000002c alt_dev_null_write
00000000 l    df *ABS*	00000000 alt_dev_llist_insert.c
00005304 l     F .text	0000003c alt_get_errno
00000000 l    df *ABS*	00000000 alt_do_ctors.c
00000000 l    df *ABS*	00000000 alt_do_dtors.c
00000000 l    df *ABS*	00000000 alt_errno.c
00000000 l    df *ABS*	00000000 alt_find_dev.c
00000000 l    df *ABS*	00000000 alt_flash_dev.c
00000000 l    df *ABS*	00000000 alt_icache_flush_all.c
00000000 l    df *ABS*	00000000 alt_io_redirect.c
00005624 l     F .text	000000c4 alt_open_fd
00000000 l    df *ABS*	00000000 alt_irq_register.c
00000000 l    df *ABS*	00000000 alt_irq_vars.c
00000000 l    df *ABS*	00000000 alt_open.c
000058e4 l     F .text	0000003c alt_get_errno
00005920 l     F .text	000000c4 alt_file_locked
00000000 l    df *ABS*	00000000 alt_release_fd.c
00000000 l    df *ABS*	00000000 alt_tick.c
00000000 l    df *ABS*	00000000 altera_nios2_gen2_irq.c
00000000 l    df *ABS*	00000000 altera_avalon_cfi_flash_amd.c
000060f8 l     F .text	000000cc alt_write_word_amd
00005fdc l     F .text	0000011c alt_wait_for_command_to_complete_amd
00000000 l    df *ABS*	00000000 altera_avalon_cfi_flash_intel.c
000063d0 l     F .text	0000017c alt_unlock_block_intel
0000654c l     F .text	000000d4 alt_write_word_intel
00000000 l    df *ABS*	00000000 alt_find_file.c
00000000 l    df *ABS*	00000000 alt_get_fd.c
00000000 l    df *ABS*	00000000 alt_icache_flush.c
00000000 l    df *ABS*	00000000 alt_usleep.c
00000000 l    df *ABS*	00000000 alt_busy_sleep.c
00000000 l    df *ABS*	00000000 atexit.c
00000000 l    df *ABS*	00000000 exit.c
00000000 l    df *ABS*	00000000 impure.c
00008900 l     O .rwdata	00000424 impure_data
00000000 l    df *ABS*	00000000 int_errno.c
00000000 l    df *ABS*	00000000 memcmp.c
00000000 l    df *ABS*	00000000 strcmp.c
00000000 l    df *ABS*	00000000 strlen.c
00000000 l    df *ABS*	00000000 __atexit.c
00000000 l    df *ABS*	00000000 __call_atexit.c
00000000 l    df *ABS*	00000000 lib2-divmod.c
00000000 l    df *ABS*	00000000 alt_exit.c
0000a7a4 g     O .bss	00000004 alt_instruction_exception_handler
000010e0 g     F .text	0000007c alt_main
00001eb0 g     F .text	00000040 alt_read_query_entry_32bit
0000a7ac g     O .bss	00000100 alt_irq
0000450c g     F .text	00000060 alt_up_ps2_disable_read_interrupt
00001660 g     F .text	000002a8 alt_flash_cfi_write
00008d58 g       *ABS*	00000000 __flash_rwdata_start
00003e40 g     F .text	00000040 alt_up_character_lcd_send_cmd
00004e88 g     F .text	000000fc alt_up_char_buffer_string
00004324 g     F .text	00000034 read_CE_bit
000046ac g     F .text	0000009c alt_up_ps2_read_data_byte_timeout
00004ba0 g     F .text	00000090 alt_up_rs232_read_fd
00000a1c g     F .text	0000006c LCD_cursor
00004dbc g     F .text	000000cc alt_up_char_buffer_draw
00005d40 g     F .text	00000024 altera_nios2_gen2_irq_init
00003dcc g     F .text	00000074 get_DDRAM_addr
00002048 g     F .text	00000050 alt_write_flash_command_32bit_device_16bit_mode
00000000 g     F .entry	0000001c __reset
00000020 g       *ABS*	00000000 __flash_exceptions_start
00001b54 g     F .text	000002e0 alt_flash_program_block
0000a7a8 g     O .bss	00000004 errno
0000a790 g     O .bss	00000004 alt_argv
00010d24 g       *ABS*	00000000 _gp
0000685c g     F .text	00000030 usleep
00008780 g     O .rwdata	00000180 alt_fd_list
000054a4 g     F .text	00000090 alt_find_dev
00000eac g     F .text	00000148 memcpy
00003fe8 g     F .text	00000050 alt_up_character_lcd_write_fd
00004f84 g     F .text	0000005c alt_up_char_buffer_clear
000056e8 g     F .text	0000007c alt_io_redirect
0000713c g       *ABS*	00000000 __DTOR_END__
00004b2c g     F .text	00000074 alt_up_rs232_read_data
000069e4 g     F .text	0000009c alt_exception_cause_generated_bad_addr
08000000 g       *ABS*	00000000 __alt_mem_flash_controller
0000389c g     F .text	0000021c altera_avalon_jtag_uart_read
00000a88 g     F .text	0000006c LCD_text
0000704c g     F .text	00000064 .hidden __udivsi3
000067cc g     F .text	00000090 alt_icache_flush
000061c4 g     F .text	00000080 alt_program_intel
00005218 g     F .text	00000078 alt_dcache_flush
00008d34 g     O .rwdata	00000004 alt_max_fd
00004aa8 g     F .text	00000044 alt_up_rs232_check_parity
00001e34 g     F .text	0000003c alt_read_query_entry_8bit
00004358 g     F .text	00000030 read_num_bytes_available
00006244 g     F .text	0000018c alt_erase_block_intel
00005764 g     F .text	00000180 alt_irq_register
000042c0 g     F .text	00000034 read_RI_bit
00008d50 g     O .rwdata	00000004 _global_impure_ptr
0000a8ac g       *ABS*	00000000 __bss_end
00005c38 g     F .text	00000108 alt_tick
000043bc g     F .text	0000002c read_data_byte
00000de0 g     F .text	000000cc check_KEYs
00005b9c g     F .text	0000009c alt_alarm_stop
000042f4 g     F .text	00000030 read_RE_bit
0000a798 g     O .bss	00000004 alt_irq_active
000000fc g     F .exceptions	000000d8 alt_irq_handler
00008758 g     O .rwdata	00000028 alt_dev_null
00004288 g     F .text	00000038 alt_up_character_lcd_cursor_blink_on
00002350 g     F .text	0000009c alt_set_flash_algorithm_func
0000456c g     F .text	00000074 alt_up_ps2_write_data_byte
00005290 g     F .text	00000048 alt_dcache_flush_all
00001ef0 g     F .text	00000044 alt_write_flash_command_8bit_device_8bit_mode
00008d58 g       *ABS*	00000000 __ram_rwdata_end
08800000 g       *ABS*	00000000 __alt_mem_onchip_memory
00008d2c g     O .rwdata	00000008 alt_dev_list
00007324 g       *ABS*	00000000 __ram_rodata_end
00004c30 g     F .text	00000094 alt_up_rs232_write_fd
000031a4 g     F .text	000000d8 alt_check_primary_table
000070b0 g     F .text	00000058 .hidden __umodsi3
00001994 g     F .text	00000064 alt_flash_cfi_read
000020e8 g     F .text	00000038 alt_write_native_8bit
00000b2c g     F .text	00000098 MTL_text
0000a8ac g       *ABS*	00000000 end
0000489c g     F .text	00000098 alt_up_ps2_write_fd
00001f34 g     F .text	00000078 alt_write_flash_command_16bit_device_8bit_mode
00004d00 g     F .text	00000080 alt_up_char_buffer_init
0000246c g     F .text	000005c8 alt_read_cfi_table
000033e0 g     F .text	000000b4 altera_avalon_jtag_uart_init
000001d4 g     F .exceptions	00000074 alt_instruction_exception_entry
0000713c g       *ABS*	00000000 __CTOR_LIST__
08000000 g       *ABS*	00000000 __alt_stack_pointer
00000c84 g     F .text	0000015c HEX_PS2
00003d58 g     F .text	00000074 alt_avalon_timer_sc_init
00003ab8 g     F .text	00000224 altera_avalon_jtag_uart_write
000015d0 g     F .text	00000090 alt_flash_cfi_init
00003ef4 g     F .text	0000007c alt_up_character_lcd_write
00006dd4 g     F .text	00000180 __call_exitprocs
00000248 g     F .text	0000004c _start
0000a79c g     O .bss	00000004 _alt_tick_rate
0000a7a0 g     O .bss	00000004 _alt_nticks
000011c8 g     F .text	000003d4 alt_sys_init
00004138 g     F .text	0000008c alt_up_character_lcd_shift_display
00006cbc g     F .text	00000118 __register_exitproc
000047b8 g     F .text	00000058 alt_up_ps2_clear_fifo
00004a6c g     F .text	0000003c alt_up_rs232_get_available_space_in_write_FIFO
00001e70 g     F .text	00000040 alt_read_query_entry_16bit
000041c4 g     F .text	0000008c alt_up_character_lcd_erase_pos
00003744 g     F .text	00000068 altera_avalon_jtag_uart_close
00007324 g       *ABS*	00000000 __ram_rwdata_start
0000713c g       *ABS*	00000000 __ram_rodata_start
0000218c g     F .text	000001c4 alt_set_flash_width_func
0000327c g     F .text	00000060 altera_avalon_jtag_uart_read_fd
00006728 g     F .text	000000a4 alt_get_fd
0000688c g     F .text	00000158 alt_busy_sleep
00005dcc g     F .text	00000210 alt_erase_block_amd
00006acc g     F .text	0000007c memcmp
0000333c g     F .text	00000050 altera_avalon_jtag_uart_close_fd
0000a8ac g       *ABS*	00000000 __alt_stack_base
0000338c g     F .text	00000054 altera_avalon_jtag_uart_ioctl_fd
00002a34 g     F .text	00000770 alt_read_cfi_width
000049cc g     F .text	00000060 alt_up_rs232_disable_read_interrupt
00006620 g     F .text	00000108 alt_find_file
00005340 g     F .text	000000a4 alt_dev_llist_insert
00008d3c g     O .rwdata	00000008 alt_flash_dev_list
00001ffc g     F .text	0000004c alt_write_flash_command_16bit_device_16bit_mode
0000a78c g       *ABS*	00000000 __bss_start
00000294 g     F .text	00000788 main
0000a794 g     O .bss	00000004 alt_envp
00004d80 g     F .text	0000003c alt_up_char_buffer_open_dev
000032dc g     F .text	00000060 altera_avalon_jtag_uart_write_fd
00000af4 g     F .text	00000038 LCD_cursor_off
000040ac g     F .text	0000008c alt_up_character_lcd_shift_cursor
00004748 g     F .text	00000070 alt_up_ps2_read_data_byte
00008d38 g     O .rwdata	00000004 alt_errno
00002098 g     F .text	00000050 alt_write_flash_command_32bit_device_32bit_mode
000019f8 g     F .text	0000015c alt_write_value_to_flash
00004934 g     F .text	0000003c alt_up_ps2_open_dev
00002120 g     F .text	00000038 alt_write_native_16bit
00006f54 g     F .text	00000084 .hidden __divsi3
00003eb8 g     F .text	0000003c alt_up_character_lcd_open_dev
000044b0 g     F .text	0000005c alt_up_ps2_enable_read_interrupt
0000713c g       *ABS*	00000000 __CTOR_END__
00003e80 g     F .text	00000038 alt_up_character_lcd_init
00006b48 g     F .text	000000dc strcmp
0000713c g       *ABS*	00000000 __flash_rodata_start
0000713c g       *ABS*	00000000 __DTOR_LIST__
00004cc4 g     F .text	0000003c alt_up_rs232_open_dev
00001190 g     F .text	00000038 alt_irq_init
00005b38 g     F .text	00000064 alt_release_fd
00004388 g     F .text	00000034 read_data_valid
00004250 g     F .text	00000038 alt_up_character_lcd_cursor_off
00004648 g     F .text	00000064 alt_up_ps2_write_data_byte_with_ack
00006a80 g     F .text	00000014 atexit
00008d54 g     O .rwdata	00000004 _impure_ptr
0000a78c g     O .bss	00000004 alt_argc
00005444 g     F .text	00000060 _do_dtors
00000020 g       .exceptions	00000000 alt_irq_entry
00008d24 g     O .rwdata	00000008 alt_fs_list
00004970 g     F .text	0000005c alt_up_rs232_enable_read_interrupt
00001fac g     F .text	00000050 alt_write_flash_command_32bit_device_8bit_mode
00004aec g     F .text	00000040 alt_up_rs232_write_data
00000020 g       *ABS*	00000000 __ram_exceptions_start
00008d58 g       *ABS*	00000000 _edata
0000a8ac g       *ABS*	00000000 _end
00005534 g     F .text	00000068 alt_flash_open_dev
00000248 g       *ABS*	00000000 __ram_exceptions_end
000037ac g     F .text	000000f0 altera_avalon_jtag_uart_ioctl
00006a94 g     F .text	00000038 exit
000043e8 g     F .text	000000c8 alt_up_ps2_init
0000559c g     F .text	00000054 alt_flash_close_dev
00006fd8 g     F .text	00000074 .hidden __modsi3
08000000 g       *ABS*	00000000 __alt_data_end
00000020 g     F .exceptions	00000000 alt_exception
00000000 g       *ABS*	00000000 __alt_mem_sdram
00003f70 g     F .text	00000078 alt_up_character_lcd_string
00000bc4 g     F .text	000000c0 MTL_box
00007108 g     F .text	00000034 _exit
00004fe0 g     F .text	0000012c alt_alarm_start
00002158 g     F .text	00000034 alt_write_native_32bit
000045e0 g     F .text	00000068 alt_up_ps2_wait_for_ack
00006c24 g     F .text	00000098 strlen
000059e4 g     F .text	00000154 open
00001908 g     F .text	0000008c alt_flash_cfi_get_info
000055f0 g     F .text	00000034 alt_icache_flush_all
00004038 g     F .text	00000074 alt_up_character_lcd_set_cursor_pos
00008d44 g     O .rwdata	00000004 alt_priority_mask
00004810 g     F .text	0000008c alt_up_ps2_read_fd
00008d48 g     O .rwdata	00000008 alt_alarm_list
000053e4 g     F .text	00000060 _do_ctors
00004a2c g     F .text	00000040 alt_up_rs232_get_used_space_in_read_FIFO
00005148 g     F .text	000000d0 close
00005d64 g     F .text	00000068 alt_program_amd
0000105c g     F .text	00000084 alt_load



Disassembly of section .entry:

00000000 <__reset>:
#if NIOS2_ICACHE_SIZE > 0 && defined(ALT_ALLOW_CODE_AT_RESET) && (!defined(ALT_SIM_OPTIMIZE) || defined(NIOS2_ECC_PRESENT))
    /* Assume the instruction cache size is always a power of two. */
#if NIOS2_ICACHE_SIZE > 0x8000
    movhi r2, %hi(NIOS2_ICACHE_SIZE)
#else
    movui r2, NIOS2_ICACHE_SIZE
   0:	00840014 	movui	r2,4096
#endif

0:
    initi r2
   4:	1001483a 	initi	r2
    addi r2, r2, -NIOS2_ICACHE_LINE_SIZE
   8:	10bff804 	addi	r2,r2,-32
    bgt r2, zero, 0b
   c:	00bffd16 	blt	zero,r2,4 <__alt_mem_onchip_memory+0xf7800004>
 * Jump to the _start entry point in the .text section if reset code
 * is allowed or if optimizing for RTL simulation.
 */
#if defined(ALT_ALLOW_CODE_AT_RESET) || defined(ALT_SIM_OPTIMIZE)
    /* Jump to the _start entry point in the .text section. */
    movhi r1, %hi(_start)
  10:	00400034 	movhi	at,0
    ori r1, r1, %lo(_start)
  14:	08409214 	ori	at,at,584
    jmp r1
  18:	0800683a 	jmp	at
  1c:	00000000 	call	0 <__reset>

Disassembly of section .exceptions:

00000020 <alt_exception>:

#else /* ALT_EXCEPTION_STACK disabled */
        /* 
         * Reserve space on normal stack for registers about to be pushed.
         */
        addi  sp, sp, -76
  20:	deffed04 	addi	sp,sp,-76
         * documentation for details).
         *
         * Leave a gap in the stack frame at 4(sp) for the muldiv handler to
         * store zero into.
         */
        stw   ra,  0(sp)
  24:	dfc00015 	stw	ra,0(sp)
        stw   r1,   8(sp)
  28:	d8400215 	stw	at,8(sp)
        stw   r2,  12(sp)
  2c:	d8800315 	stw	r2,12(sp)
        stw   r3,  16(sp)
  30:	d8c00415 	stw	r3,16(sp)
        stw   r4,  20(sp)
  34:	d9000515 	stw	r4,20(sp)
        stw   r5,  24(sp)
  38:	d9400615 	stw	r5,24(sp)
        stw   r6,  28(sp)
  3c:	d9800715 	stw	r6,28(sp)
        stw   r7,  32(sp)
  40:	d9c00815 	stw	r7,32(sp)
        rdctl r5, estatus   /* Read early to avoid usage stall */
  44:	000b307a 	rdctl	r5,estatus
        stw   r8,  36(sp)
  48:	da000915 	stw	r8,36(sp)
        stw   r9,  40(sp)
  4c:	da400a15 	stw	r9,40(sp)
        stw   r10, 44(sp)
  50:	da800b15 	stw	r10,44(sp)
        stw   r11, 48(sp)
  54:	dac00c15 	stw	r11,48(sp)
        stw   r12, 52(sp)
  58:	db000d15 	stw	r12,52(sp)
        stw   r13, 56(sp)
  5c:	db400e15 	stw	r13,56(sp)
        stw   r14, 60(sp)
  60:	db800f15 	stw	r14,60(sp)
        stw   r15, 64(sp)
  64:	dbc01015 	stw	r15,64(sp)
        /*
         * ea-4 contains the address of the instruction being executed
         * when the exception occured. For interrupt exceptions, we will
         * will be re-issue the isntruction. Store it in 72(sp)
         */
        stw   r5,  68(sp)  /* estatus */
  68:	d9401115 	stw	r5,68(sp)
        addi  r15, ea, -4  /* instruction that caused exception */
  6c:	ebffff04 	addi	r15,ea,-4
        stw   r15,  72(sp)
  70:	dbc01215 	stw	r15,72(sp)
#else
        /*
         * Test to see if the exception was a software exception or caused 
         * by an external interrupt, and vector accordingly.
         */
        rdctl r4, ipending
  74:	0009313a 	rdctl	r4,ipending
        andi  r2, r5, 1
  78:	2880004c 	andi	r2,r5,1
        beq   r2, zero, .Lnot_irq
  7c:	10000326 	beq	r2,zero,8c <alt_exception+0x6c>
        beq   r4, zero, .Lnot_irq
  80:	20000226 	beq	r4,zero,8c <alt_exception+0x6c>
        /*
         * Now that all necessary registers have been preserved, call 
         * alt_irq_handler() to process the interrupts.
         */

        call alt_irq_handler
  84:	00000fc0 	call	fc <alt_irq_handler>

        .section .exceptions.irqreturn, "xa"

        br    .Lexception_exit
  88:	00000706 	br	a8 <alt_exception+0x88>
         * upon completion, so we write ea (address of instruction *after*
         * the one where the exception occured) into 72(sp). The actual
         * instruction that caused the exception is written in r2, which these
         * handlers will utilize.
         */
        stw ea, 72(sp) /* EA is PC+4 so will skip over instruction causing exception */
  8c:	df401215 	stw	ea,72(sp)
.Lunknown_16bit:
        addi.n r4, r4, 2 /* Need PC+2 to skip over instruction causing exception */
        stw r4, 72(sp)

#else /* CDX is not Enabled and all instructions are 32bits */
        ldw r2, -4(ea) /* Instruction value that caused exception */
  90:	e8bfff17 	ldw	r2,-4(ea)
         * debugger is present) or go into an infinite loop since the
         * handling behavior is undefined; in that case we will not return here.
         */

        /* Load exception-causing address as first argument (r4) */
        addi   r4, ea, -4
  94:	e93fff04 	addi	r4,ea,-4

        /* Call the instruction-exception entry */
        call   alt_instruction_exception_entry
  98:	00001d40 	call	1d4 <alt_instruction_exception_entry>
         * instruction
         *
         * Return code was 0: Skip. The instruction after the exception is
         * already stored in 72(sp).
         */
        bne   r2, r0, .Lexception_exit
  9c:	1000021e 	bne	r2,zero,a8 <alt_exception+0x88>

        /*
         * Otherwise, modify 72(sp) to re-issue the instruction that caused the
         * exception.
         */
        addi  r15, ea, -4  /* instruction that caused exception */
  a0:	ebffff04 	addi	r15,ea,-4
        stw   r15,  72(sp)
  a4:	dbc01215 	stw	r15,72(sp)
        /* 
         * Restore the saved registers, so that all general purpose registers 
         * have been restored to their state at the time the interrupt occured.
         */

        ldw   r5,  68(sp)
  a8:	d9401117 	ldw	r5,68(sp)
        ldw   ea,  72(sp)  /* This becomes the PC once eret is executed */
  ac:	df401217 	ldw	ea,72(sp)
        ldw   ra,   0(sp)
  b0:	dfc00017 	ldw	ra,0(sp)

        wrctl estatus, r5
  b4:	2801707a 	wrctl	estatus,r5

        ldw   r1,   8(sp)
  b8:	d8400217 	ldw	at,8(sp)
        ldw   r2,  12(sp)
  bc:	d8800317 	ldw	r2,12(sp)
        ldw   r3,  16(sp)
  c0:	d8c00417 	ldw	r3,16(sp)
        ldw   r4,  20(sp)
  c4:	d9000517 	ldw	r4,20(sp)
        ldw   r5,  24(sp)
  c8:	d9400617 	ldw	r5,24(sp)
        ldw   r6,  28(sp)
  cc:	d9800717 	ldw	r6,28(sp)
        ldw   r7,  32(sp)
  d0:	d9c00817 	ldw	r7,32(sp)

#if defined(ALT_EXCEPTION_STACK) && defined(ALT_STACK_CHECK)
        ldw   et, %gprel(alt_exception_old_stack_limit)(gp)
#endif

        ldw   r8,  36(sp)
  d4:	da000917 	ldw	r8,36(sp)
        ldw   r9,  40(sp)
  d8:	da400a17 	ldw	r9,40(sp)
        ldw   r10, 44(sp)
  dc:	da800b17 	ldw	r10,44(sp)
        ldw   r11, 48(sp)
  e0:	dac00c17 	ldw	r11,48(sp)
        ldw   r12, 52(sp)
  e4:	db000d17 	ldw	r12,52(sp)
        ldw   r13, 56(sp)
  e8:	db400e17 	ldw	r13,56(sp)
        ldw   r14, 60(sp)
  ec:	db800f17 	ldw	r14,60(sp)
        ldw   r15, 64(sp)
  f0:	dbc01017 	ldw	r15,64(sp)
        stw   et, %gprel(alt_stack_limit_value)(gp)
        stw   zero, %gprel(alt_exception_old_stack_limit)(gp)
#endif /* ALT_STACK_CHECK */
        ldw   sp,  76(sp)
#else /* ALT_EXCEPTION_STACK disabled */
        addi  sp, sp, 76
  f4:	dec01304 	addi	sp,sp,76

        /*
         * Return to the interrupted instruction.
         */

        eret
  f8:	ef80083a 	eret

000000fc <alt_irq_handler>:
 * instruction is present if the macro ALT_CI_INTERRUPT_VECTOR defined.
 */

void alt_irq_handler (void) __attribute__ ((section (".exceptions")));
void alt_irq_handler (void)
{
  fc:	defff904 	addi	sp,sp,-28
 100:	dfc00615 	stw	ra,24(sp)
 104:	df000515 	stw	fp,20(sp)
 108:	df000504 	addi	fp,sp,20
  
  /*
   * Notify the operating system that we are at interrupt level.
   */ 
  
  ALT_OS_INT_ENTER();
 10c:	0001883a 	nop
#ifndef NIOS2_EIC_PRESENT
static ALT_INLINE alt_u32 ALT_ALWAYS_INLINE alt_irq_pending (void)
{
  alt_u32 active;

  NIOS2_READ_IPENDING (active);
 110:	0005313a 	rdctl	r2,ipending
 114:	e0bffe15 	stw	r2,-8(fp)

  return active;
 118:	e0bffe17 	ldw	r2,-8(fp)
   * Consider the case where the high priority interupt is asserted during
   * the interrupt entry sequence for a lower priority interrupt to see why
   * this is the case.
   */

  active = alt_irq_pending ();
 11c:	e0bffb15 	stw	r2,-20(fp)

  do
  {
    i = 0;
 120:	e03ffd15 	stw	zero,-12(fp)
    mask = 1;
 124:	00800044 	movi	r2,1
 128:	e0bffc15 	stw	r2,-16(fp)
     * called to clear the interrupt condition.
     */

    do
    {
      if (active & mask)
 12c:	e0fffb17 	ldw	r3,-20(fp)
 130:	e0bffc17 	ldw	r2,-16(fp)
 134:	1884703a 	and	r2,r3,r2
 138:	10001526 	beq	r2,zero,190 <alt_irq_handler+0x94>
      { 
#ifdef ALT_ENHANCED_INTERRUPT_API_PRESENT
        alt_irq[i].handler(alt_irq[i].context); 
#else
        alt_irq[i].handler(alt_irq[i].context, i); 
 13c:	00800074 	movhi	r2,1
 140:	10a9eb04 	addi	r2,r2,-22612
 144:	e0fffd17 	ldw	r3,-12(fp)
 148:	180690fa 	slli	r3,r3,3
 14c:	10c5883a 	add	r2,r2,r3
 150:	10c00017 	ldw	r3,0(r2)
 154:	00800074 	movhi	r2,1
 158:	10a9eb04 	addi	r2,r2,-22612
 15c:	e13ffd17 	ldw	r4,-12(fp)
 160:	200890fa 	slli	r4,r4,3
 164:	1105883a 	add	r2,r2,r4
 168:	10800104 	addi	r2,r2,4
 16c:	10800017 	ldw	r2,0(r2)
 170:	e17ffd17 	ldw	r5,-12(fp)
 174:	1009883a 	mov	r4,r2
 178:	183ee83a 	callr	r3
#endif
        break;
 17c:	0001883a 	nop
#ifndef NIOS2_EIC_PRESENT
static ALT_INLINE alt_u32 ALT_ALWAYS_INLINE alt_irq_pending (void)
{
  alt_u32 active;

  NIOS2_READ_IPENDING (active);
 180:	0005313a 	rdctl	r2,ipending
 184:	e0bfff15 	stw	r2,-4(fp)

  return active;
 188:	e0bfff17 	ldw	r2,-4(fp)
 18c:	00000706 	br	1ac <alt_irq_handler+0xb0>
      }
      mask <<= 1;
 190:	e0bffc17 	ldw	r2,-16(fp)
 194:	1085883a 	add	r2,r2,r2
 198:	e0bffc15 	stw	r2,-16(fp)
      i++;
 19c:	e0bffd17 	ldw	r2,-12(fp)
 1a0:	10800044 	addi	r2,r2,1
 1a4:	e0bffd15 	stw	r2,-12(fp)

    } while (1);
 1a8:	003fe006 	br	12c <__alt_mem_onchip_memory+0xf780012c>

    active = alt_irq_pending ();
 1ac:	e0bffb15 	stw	r2,-20(fp)
    
  } while (active);
 1b0:	e0bffb17 	ldw	r2,-20(fp)
 1b4:	103fda1e 	bne	r2,zero,120 <__alt_mem_onchip_memory+0xf7800120>

  /*
   * Notify the operating system that interrupt processing is complete.
   */ 

  ALT_OS_INT_EXIT();
 1b8:	0001883a 	nop
}
 1bc:	0001883a 	nop
 1c0:	e037883a 	mov	sp,fp
 1c4:	dfc00117 	ldw	ra,4(sp)
 1c8:	df000017 	ldw	fp,0(sp)
 1cc:	dec00204 	addi	sp,sp,8
 1d0:	f800283a 	ret

000001d4 <alt_instruction_exception_entry>:
 * that handler if it has been registered. Absent a handler, it will
 * break break or hang as discussed below.
 */
int 
alt_instruction_exception_entry (alt_u32 exception_pc)
{
 1d4:	defffb04 	addi	sp,sp,-20
 1d8:	dfc00415 	stw	ra,16(sp)
 1dc:	df000315 	stw	fp,12(sp)
 1e0:	df000304 	addi	fp,sp,12
 1e4:	e13fff15 	stw	r4,-4(fp)
 * NIOS2_EXCEPTION_CAUSE_NOT_PRESENT. Your handling routine should
 * check the validity of the cause argument before proceeding.
 */
#ifdef NIOS2_HAS_EXTRA_EXCEPTION_INFO
  /* Get exception cause & "badaddr" */
  NIOS2_READ_EXCEPTION(cause);
 1e8:	000531fa 	rdctl	r2,exception
 1ec:	e0bffd15 	stw	r2,-12(fp)
  cause = ( (cause & NIOS2_EXCEPTION_REG_CAUSE_MASK) >>
 1f0:	e0bffd17 	ldw	r2,-12(fp)
 1f4:	10801f0c 	andi	r2,r2,124
 1f8:	1004d0ba 	srli	r2,r2,2
 1fc:	e0bffd15 	stw	r2,-12(fp)
              NIOS2_EXCEPTION_REG_CAUSE_OFST );

  NIOS2_READ_BADADDR(badaddr);
 200:	0005333a 	rdctl	r2,badaddr
 204:	e0bffe15 	stw	r2,-8(fp)
#else
  cause = NIOS2_EXCEPTION_CAUSE_NOT_PRESENT;
  badaddr = 0;
#endif /* NIOS2_HAS_EXTRA_EXCEPTION_INFO */

  if(alt_instruction_exception_handler) {
 208:	d0a6a017 	ldw	r2,-25984(gp)
 20c:	10000726 	beq	r2,zero,22c <alt_instruction_exception_entry+0x58>
     * Call handler. Its return value indicates whether the exception-causing
     * instruction should be re-issued. The code that called us,
     * alt_eceptions_entry.S, will look at this value and adjust the ea
     * register as necessary
     */
    return alt_instruction_exception_handler(cause, exception_pc, badaddr);
 210:	d0a6a017 	ldw	r2,-25984(gp)
 214:	e0fffd17 	ldw	r3,-12(fp)
 218:	e1bffe17 	ldw	r6,-8(fp)
 21c:	e17fff17 	ldw	r5,-4(fp)
 220:	1809883a 	mov	r4,r3
 224:	103ee83a 	callr	r2
 228:	00000206 	br	234 <alt_instruction_exception_entry+0x60>
   *    (a peripheral which negates its interrupt output before its
   *    interrupt handler has been executed will cause spurious interrupts)
   */
  else {
#ifdef NIOS2_HAS_DEBUG_STUB
    NIOS2_BREAK();
 22c:	003da03a 	break	0
      ;
#endif /* NIOS2_HAS_DEBUG_STUB */
  }

  /* We should not get here. Remove compiler warning. */
  return NIOS2_EXCEPTION_RETURN_REISSUE_INST;
 230:	0005883a 	mov	r2,zero
}
 234:	e037883a 	mov	sp,fp
 238:	dfc00117 	ldw	ra,4(sp)
 23c:	df000017 	ldw	fp,0(sp)
 240:	dec00204 	addi	sp,sp,8
 244:	f800283a 	ret

Disassembly of section .text:

00000248 <_start>:

    /* Assume the data cache size is always a power of two. */
#if NIOS2_DCACHE_SIZE > 0x8000
    movhi r2, %hi(NIOS2_DCACHE_SIZE)
#else
    movui r2, NIOS2_DCACHE_SIZE
     248:	00820014 	movui	r2,2048
#endif

0:
    initd 0(r2)
     24c:	10000033 	initd	0(r2)
#ifdef NIOS2_ECC_PRESENT
    addi r2, r2, -4
#else
    addi r2, r2, -NIOS2_DCACHE_LINE_SIZE
     250:	10bff804 	addi	r2,r2,-32
#endif
    bgt r2, zero, 0b
     254:	00bffd16 	blt	zero,r2,24c <__alt_mem_onchip_memory+0xf780024c>

    /*
     * Now that the caches are initialized, set up the stack pointer and global pointer.
     * The values provided by the linker are assumed to be correctly aligned.
     */
    movhi sp, %hi(__alt_stack_pointer)
     258:	06c20034 	movhi	sp,2048
    ori sp, sp, %lo(__alt_stack_pointer)
     25c:	dec00014 	ori	sp,sp,0
    movhi gp, %hi(_gp)
     260:	06800074 	movhi	gp,1
    ori gp, gp, %lo(_gp)
     264:	d6834914 	ori	gp,gp,3364
 */
#ifndef ALT_SIM_OPTIMIZE
    /* Log that the BSS is about to be cleared. */
    ALT_LOG_PUTS(alt_log_msg_bss)

    movhi r2, %hi(__bss_start)
     268:	00800034 	movhi	r2,0
    ori r2, r2, %lo(__bss_start)
     26c:	10a9e314 	ori	r2,r2,42892

    movhi r3, %hi(__bss_end)
     270:	00c00034 	movhi	r3,0
    ori r3, r3, %lo(__bss_end)
     274:	18ea2b14 	ori	r3,r3,43180

    beq r2, r3, 1f
     278:	10c00326 	beq	r2,r3,288 <_start+0x40>

0:
    stw zero, (r2)
     27c:	10000015 	stw	zero,0(r2)
    addi r2, r2, 4
     280:	10800104 	addi	r2,r2,4
    bltu r2, r3, 0b
     284:	10fffd36 	bltu	r2,r3,27c <__alt_mem_onchip_memory+0xf780027c>
     * section aren't defined until alt_load() has been called).
     */
    mov   et, zero
#endif

    call alt_load
     288:	000105c0 	call	105c <alt_load>

    /* Log that alt_main is about to be called. */
    ALT_LOG_PUTS(alt_log_msg_alt_main)

    /* Call the C entry point. It should never return. */
    call alt_main
     28c:	00010e00 	call	10e0 <alt_main>

00000290 <alt_after_alt_main>:

    /* Wait in infinite loop in case alt_main does return. */
alt_after_alt_main:
    br alt_after_alt_main
     290:	003fff06 	br	290 <__alt_mem_onchip_memory+0xf7800290>

00000294 <main>:
 *	5. Muestra en el display HEX los tres últimos bytes de datos recibidos
 *	   por el puerto PS/2.
 ********************************************************************************/

int main(void)
{
     294:	defffe04 	addi	sp,sp,-8
     298:	dfc00115 	stw	ra,4(sp)
     29c:	df000015 	stw	fp,0(sp)
     2a0:	d839883a 	mov	fp,sp
     2a4:	023ff0f4 	movhi	r8,65475
     2a8:	423da004 	addi	r8,r8,-2432
     2ac:	da37883a 	add	sp,sp,r8
  	volatile int * green_LED_ptr = (int *) GREEN_LEDS_BASE;		// dirección LED verde
     2b0:	00840034 	movhi	r2,4096
     2b4:	10800404 	addi	r2,r2,16
     2b8:	00fff0f4 	movhi	r3,65475
     2bc:	18fda304 	addi	r3,r3,-2420
     2c0:	1f07883a 	add	r3,r3,fp
     2c4:	18800015 	stw	r2,0(r3)
	volatile int * audio_ptr = (int *) AUDIO_BASE;			// dirección puerto audio
     2c8:	00840034 	movhi	r2,4096
     2cc:	10804404 	addi	r2,r2,272
     2d0:	013ff0f4 	movhi	r4,65475
     2d4:	213da404 	addi	r4,r4,-2416
     2d8:	2709883a 	add	r4,r4,fp
     2dc:	20800015 	stw	r2,0(r4)
	volatile int * PS2_ptr = (int *) PS2_KEY_BASE;			// dirección puerto PS/2
     2e0:	00840034 	movhi	r2,4096
     2e4:	10801804 	addi	r2,r2,96
     2e8:	017ff0f4 	movhi	r5,65475
     2ec:	297da504 	addi	r5,r5,-2412
     2f0:	2f0b883a 	add	r5,r5,fp
     2f4:	28800015 	stw	r2,0(r5)

	/* utiliado para grabar reproducir audio */
	int fifospace;
	int record = 0, play = 0, buffer_index = 0;
     2f8:	01bff0f4 	movhi	r6,65475
     2fc:	31bda904 	addi	r6,r6,-2396
     300:	370d883a 	add	r6,r6,fp
     304:	30000015 	stw	zero,0(r6)
     308:	00bff0f4 	movhi	r2,65475
     30c:	10bdaa04 	addi	r2,r2,-2392
     310:	1705883a 	add	r2,r2,fp
     314:	10000015 	stw	zero,0(r2)
     318:	00fff0f4 	movhi	r3,65475
     31c:	18fdab04 	addi	r3,r3,-2388
     320:	1f07883a 	add	r3,r3,fp
     324:	18000015 	stw	zero,0(r3)
	int left_buffer[BUF_SIZE];
	int right_buffer[BUF_SIZE];

	/* utilizado en el puerto PS/2 */
	int PS2_data, RVALID;
	char byte1 = 0, byte2 = 0, byte3 = 0;
     328:	013ff0f4 	movhi	r4,65475
     32c:	213da604 	addi	r4,r4,-2408
     330:	2709883a 	add	r4,r4,fp
     334:	20000005 	stb	zero,0(r4)
     338:	017ff0f4 	movhi	r5,65475
     33c:	297da204 	addi	r5,r5,-2424
     340:	2f0b883a 	add	r5,r5,fp
     344:	28000005 	stb	zero,0(r5)
     348:	01bff0f4 	movhi	r6,65475
     34c:	31bda244 	addi	r6,r6,-2423
     350:	370d883a 	add	r6,r6,fp
     354:	30000005 	stb	zero,0(r6)

	/* mensaje que se visualizará en el LCD y en la MTL */
	char text_top_row[40] = "Altera DE2-115\0";
     358:	00800f74 	movhi	r2,61
     35c:	10824b04 	addi	r2,r2,2348
     360:	00fff0f4 	movhi	r3,65475
     364:	18fda104 	addi	r3,r3,-2428
     368:	1f07883a 	add	r3,r3,fp
     36c:	1885883a 	add	r2,r3,r2
     370:	00c00034 	movhi	r3,0
     374:	18dc4f04 	addi	r3,r3,28988
     378:	19000017 	ldw	r4,0(r3)
     37c:	11000015 	stw	r4,0(r2)
     380:	19000117 	ldw	r4,4(r3)
     384:	11000115 	stw	r4,4(r2)
     388:	19000217 	ldw	r4,8(r3)
     38c:	11000215 	stw	r4,8(r2)
     390:	18c00317 	ldw	r3,12(r3)
     394:	10c00315 	stw	r3,12(r2)
     398:	10000415 	stw	zero,16(r2)
     39c:	10000515 	stw	zero,20(r2)
     3a0:	10000615 	stw	zero,24(r2)
     3a4:	10000715 	stw	zero,28(r2)
     3a8:	10000815 	stw	zero,32(r2)
     3ac:	10000915 	stw	zero,36(r2)
	char text_bottom_row[40] = "Media Computer\0";
     3b0:	00800f74 	movhi	r2,61
     3b4:	10825504 	addi	r2,r2,2388
     3b8:	013ff0f4 	movhi	r4,65475
     3bc:	213da104 	addi	r4,r4,-2428
     3c0:	2709883a 	add	r4,r4,fp
     3c4:	2085883a 	add	r2,r4,r2
     3c8:	00c00034 	movhi	r3,0
     3cc:	18dc5904 	addi	r3,r3,29028
     3d0:	19000017 	ldw	r4,0(r3)
     3d4:	11000015 	stw	r4,0(r2)
     3d8:	19000117 	ldw	r4,4(r3)
     3dc:	11000115 	stw	r4,4(r2)
     3e0:	19000217 	ldw	r4,8(r3)
     3e4:	11000215 	stw	r4,8(r2)
     3e8:	18c00317 	ldw	r3,12(r3)
     3ec:	10c00315 	stw	r3,12(r2)
     3f0:	10000415 	stw	zero,16(r2)
     3f4:	10000515 	stw	zero,20(r2)
     3f8:	10000615 	stw	zero,24(r2)
     3fc:	10000715 	stw	zero,28(r2)
     400:	10000815 	stw	zero,32(r2)
     404:	10000915 	stw	zero,36(r2)

	/* Sacar mensaje en el LCD */
	LCD_cursor (0,0);								// poner el cursor del LCD en la fila superior
     408:	000b883a 	mov	r5,zero
     40c:	0009883a 	mov	r4,zero
     410:	0000a1c0 	call	a1c <LCD_cursor>
	LCD_text (text_top_row);
     414:	00800f74 	movhi	r2,61
     418:	10824b04 	addi	r2,r2,2348
     41c:	017ff0f4 	movhi	r5,65475
     420:	297da104 	addi	r5,r5,-2428
     424:	2f0b883a 	add	r5,r5,fp
     428:	2885883a 	add	r2,r5,r2
     42c:	1009883a 	mov	r4,r2
     430:	0000a880 	call	a88 <LCD_text>
	LCD_cursor (0,1);								// poner el cursor del LCD en la fila inferior
     434:	01400044 	movi	r5,1
     438:	0009883a 	mov	r4,zero
     43c:	0000a1c0 	call	a1c <LCD_cursor>
	LCD_text (text_bottom_row);
     440:	00800f74 	movhi	r2,61
     444:	10825504 	addi	r2,r2,2388
     448:	01bff0f4 	movhi	r6,65475
     44c:	31bda104 	addi	r6,r6,-2428
     450:	370d883a 	add	r6,r6,fp
     454:	3085883a 	add	r2,r6,r2
     458:	1009883a 	mov	r4,r2
     45c:	0000a880 	call	a88 <LCD_text>
	LCD_cursor_off ();								// desactivar el cursor del LCD
     460:	0000af40 	call	af4 <LCD_cursor_off>

	/* crea el texto en medio del monitor MTL */
	MTL_text (20, 14, text_top_row);
     464:	00800f74 	movhi	r2,61
     468:	10824b04 	addi	r2,r2,2348
     46c:	00fff0f4 	movhi	r3,65475
     470:	18fda104 	addi	r3,r3,-2428
     474:	1f07883a 	add	r3,r3,fp
     478:	1885883a 	add	r2,r3,r2
     47c:	100d883a 	mov	r6,r2
     480:	01400384 	movi	r5,14
     484:	01000504 	movi	r4,20
     488:	0000b2c0 	call	b2c <MTL_text>
	MTL_text (20, 15, text_bottom_row);
     48c:	00800f74 	movhi	r2,61
     490:	10825504 	addi	r2,r2,2388
     494:	013ff0f4 	movhi	r4,65475
     498:	213da104 	addi	r4,r4,-2428
     49c:	2709883a 	add	r4,r4,fp
     4a0:	2085883a 	add	r2,r4,r2
     4a4:	100d883a 	mov	r6,r2
     4a8:	014003c4 	movi	r5,15
     4ac:	01000504 	movi	r4,20
     4b0:	0000b2c0 	call	b2c <MTL_text>
	MTL_box (0, 0, 50*8-1, 30*8-1, 0x0000); // Pinta de Negro toda la pantalla
     4b4:	d8000015 	stw	zero,0(sp)
     4b8:	01c03bc4 	movi	r7,239
     4bc:	018063c4 	movi	r6,399
     4c0:	000b883a 	mov	r5,zero
     4c4:	0009883a 	mov	r4,zero
     4c8:	0000bc40 	call	bc4 <MTL_box>
	MTL_box (19*8, 13*8, 35*8, 17*8, 0x187F); //Dibuja un cuadro azul en el centro
     4cc:	00861fc4 	movi	r2,6271
     4d0:	d8800015 	stw	r2,0(sp)
     4d4:	01c02204 	movi	r7,136
     4d8:	01804604 	movi	r6,280
     4dc:	01401a04 	movi	r5,104
     4e0:	01002604 	movi	r4,152
     4e4:	0000bc40 	call	bc4 <MTL_box>

	/* leer y reproducir audio */
	record = 0;
     4e8:	017ff0f4 	movhi	r5,65475
     4ec:	297da904 	addi	r5,r5,-2396
     4f0:	2f0b883a 	add	r5,r5,fp
     4f4:	28000015 	stw	zero,0(r5)
	play = 0;
     4f8:	01bff0f4 	movhi	r6,65475
     4fc:	31bdaa04 	addi	r6,r6,-2392
     500:	370d883a 	add	r6,r6,fp
     504:	30000015 	stw	zero,0(r6)

	// PS/2 necesita ser reseteado
	*(PS2_ptr) = 0xFF;		// reset
     508:	00fff0f4 	movhi	r3,65475
     50c:	18fda504 	addi	r3,r3,-2412
     510:	1f07883a 	add	r3,r3,fp
     514:	18800017 	ldw	r2,0(r3)
     518:	00c03fc4 	movi	r3,255
     51c:	10c00015 	stw	r3,0(r2)
	while(1)
	{
		check_KEYs ( &record, &play, &buffer_index );
     520:	017ff0f4 	movhi	r5,65475
     524:	297dab04 	addi	r5,r5,-2388
     528:	e149883a 	add	r4,fp,r5
     52c:	01bff0f4 	movhi	r6,65475
     530:	31bdaa04 	addi	r6,r6,-2392
     534:	e187883a 	add	r3,fp,r6
     538:	017ff0f4 	movhi	r5,65475
     53c:	297da904 	addi	r5,r5,-2396
     540:	e145883a 	add	r2,fp,r5
     544:	200d883a 	mov	r6,r4
     548:	180b883a 	mov	r5,r3
     54c:	1009883a 	mov	r4,r2
     550:	0000de00 	call	de0 <check_KEYs>
		if (record)
     554:	01bff0f4 	movhi	r6,65475
     558:	31bda904 	addi	r6,r6,-2396
     55c:	370d883a 	add	r6,r6,fp
     560:	30800017 	ldw	r2,0(r6)
     564:	10006b26 	beq	r2,zero,714 <main+0x480>
		{
			*(green_LED_ptr) = 0x1;					// LEDG[0] on
     568:	00fff0f4 	movhi	r3,65475
     56c:	18fda304 	addi	r3,r3,-2420
     570:	1f07883a 	add	r3,r3,fp
     574:	18800017 	ldw	r2,0(r3)
     578:	00c00044 	movi	r3,1
     57c:	10c00015 	stw	r3,0(r2)
			fifospace = *(audio_ptr + 1);	 		// leer el puerto de audio
     580:	013ff0f4 	movhi	r4,65475
     584:	213da404 	addi	r4,r4,-2416
     588:	2709883a 	add	r4,r4,fp
     58c:	20800017 	ldw	r2,0(r4)
     590:	10800117 	ldw	r2,4(r2)
     594:	017ff0f4 	movhi	r5,65475
     598:	297da104 	addi	r5,r5,-2428
     59c:	2f0b883a 	add	r5,r5,fp
     5a0:	28800015 	stw	r2,0(r5)
			if ( (fifospace & 0x000000FF) > BUF_THRESHOLD ) 	// chequear RARC
     5a4:	01bff0f4 	movhi	r6,65475
     5a8:	31bda104 	addi	r6,r6,-2428
     5ac:	370d883a 	add	r6,r6,fp
     5b0:	30800017 	ldw	r2,0(r6)
     5b4:	10803fcc 	andi	r2,r2,255
     5b8:	10801850 	cmplti	r2,r2,97
     5bc:	1000c61e 	bne	r2,zero,8d8 <main+0x644>
			{
				// almacenar datos hasta que la FIFO este vacia o el buffer este lleno
				while ( (fifospace & 0x000000FF) && (buffer_index < BUF_SIZE) )
     5c0:	00004606 	br	6dc <main+0x448>
				{
					left_buffer[buffer_index] = *(audio_ptr + 2);
     5c4:	00fff0f4 	movhi	r3,65475
     5c8:	18fdab04 	addi	r3,r3,-2388
     5cc:	1f07883a 	add	r3,r3,fp
     5d0:	18800017 	ldw	r2,0(r3)
     5d4:	013ff0f4 	movhi	r4,65475
     5d8:	213da404 	addi	r4,r4,-2416
     5dc:	2709883a 	add	r4,r4,fp
     5e0:	20c00017 	ldw	r3,0(r4)
     5e4:	18c00217 	ldw	r3,8(r3)
     5e8:	1085883a 	add	r2,r2,r2
     5ec:	1085883a 	add	r2,r2,r2
     5f0:	017ff0f4 	movhi	r5,65475
     5f4:	297da104 	addi	r5,r5,-2428
     5f8:	2f0b883a 	add	r5,r5,fp
     5fc:	2885883a 	add	r2,r5,r2
     600:	10800b04 	addi	r2,r2,44
     604:	10c00015 	stw	r3,0(r2)
					right_buffer[buffer_index] = *(audio_ptr + 3);
     608:	01bff0f4 	movhi	r6,65475
     60c:	31bdab04 	addi	r6,r6,-2388
     610:	370d883a 	add	r6,r6,fp
     614:	30c00017 	ldw	r3,0(r6)
     618:	013ff0f4 	movhi	r4,65475
     61c:	213da404 	addi	r4,r4,-2416
     620:	2709883a 	add	r4,r4,fp
     624:	20800017 	ldw	r2,0(r4)
     628:	11000317 	ldw	r4,12(r2)
     62c:	008007f4 	movhi	r2,31
     630:	10a12b04 	addi	r2,r2,-31572
     634:	01bff0f4 	movhi	r6,65475
     638:	31bda104 	addi	r6,r6,-2428
     63c:	370d883a 	add	r6,r6,fp
     640:	308b883a 	add	r5,r6,r2
     644:	18c5883a 	add	r2,r3,r3
     648:	1085883a 	add	r2,r2,r2
     64c:	2885883a 	add	r2,r5,r2
     650:	11000015 	stw	r4,0(r2)
					++buffer_index;
     654:	00fff0f4 	movhi	r3,65475
     658:	18fdab04 	addi	r3,r3,-2388
     65c:	1f07883a 	add	r3,r3,fp
     660:	18800017 	ldw	r2,0(r3)
     664:	10800044 	addi	r2,r2,1
     668:	013ff0f4 	movhi	r4,65475
     66c:	213dab04 	addi	r4,r4,-2388
     670:	2709883a 	add	r4,r4,fp
     674:	20800015 	stw	r2,0(r4)

					if (buffer_index == BUF_SIZE)
     678:	017ff0f4 	movhi	r5,65475
     67c:	297dab04 	addi	r5,r5,-2388
     680:	2f0b883a 	add	r5,r5,fp
     684:	28c00017 	ldw	r3,0(r5)
     688:	00800234 	movhi	r2,8
     68c:	10a84804 	addi	r2,r2,-24288
     690:	1880091e 	bne	r3,r2,6b8 <main+0x424>
					{
						// grabación terminada
						record = 0;
     694:	01bff0f4 	movhi	r6,65475
     698:	31bda904 	addi	r6,r6,-2396
     69c:	370d883a 	add	r6,r6,fp
     6a0:	30000015 	stw	zero,0(r6)
						*(green_LED_ptr) = 0x0;				// LEDG off
     6a4:	00fff0f4 	movhi	r3,65475
     6a8:	18fda304 	addi	r3,r3,-2420
     6ac:	1f07883a 	add	r3,r3,fp
     6b0:	18800017 	ldw	r2,0(r3)
     6b4:	10000015 	stw	zero,0(r2)
					}
					fifospace = *(audio_ptr + 1);	// leer el puerto de audio
     6b8:	013ff0f4 	movhi	r4,65475
     6bc:	213da404 	addi	r4,r4,-2416
     6c0:	2709883a 	add	r4,r4,fp
     6c4:	20800017 	ldw	r2,0(r4)
     6c8:	10800117 	ldw	r2,4(r2)
     6cc:	017ff0f4 	movhi	r5,65475
     6d0:	297da104 	addi	r5,r5,-2428
     6d4:	2f0b883a 	add	r5,r5,fp
     6d8:	28800015 	stw	r2,0(r5)
			*(green_LED_ptr) = 0x1;					// LEDG[0] on
			fifospace = *(audio_ptr + 1);	 		// leer el puerto de audio
			if ( (fifospace & 0x000000FF) > BUF_THRESHOLD ) 	// chequear RARC
			{
				// almacenar datos hasta que la FIFO este vacia o el buffer este lleno
				while ( (fifospace & 0x000000FF) && (buffer_index < BUF_SIZE) )
     6dc:	01bff0f4 	movhi	r6,65475
     6e0:	31bda104 	addi	r6,r6,-2428
     6e4:	370d883a 	add	r6,r6,fp
     6e8:	30800017 	ldw	r2,0(r6)
     6ec:	10803fcc 	andi	r2,r2,255
     6f0:	10007926 	beq	r2,zero,8d8 <main+0x644>
     6f4:	00bff0f4 	movhi	r2,65475
     6f8:	10bdab04 	addi	r2,r2,-2388
     6fc:	1705883a 	add	r2,r2,fp
     700:	10c00017 	ldw	r3,0(r2)
     704:	00800234 	movhi	r2,8
     708:	10a847c4 	addi	r2,r2,-24289
     70c:	10ffad0e 	bge	r2,r3,5c4 <__alt_mem_onchip_memory+0xf78005c4>
     710:	00007106 	br	8d8 <main+0x644>
					}
					fifospace = *(audio_ptr + 1);	// leer el puerto de audio
				}
			}
		}
		else if (play)
     714:	00fff0f4 	movhi	r3,65475
     718:	18fdaa04 	addi	r3,r3,-2392
     71c:	1f07883a 	add	r3,r3,fp
     720:	18800017 	ldw	r2,0(r3)
     724:	10006c26 	beq	r2,zero,8d8 <main+0x644>
		{
			*(green_LED_ptr) = 0x2;					// LEDG[1] on
     728:	013ff0f4 	movhi	r4,65475
     72c:	213da304 	addi	r4,r4,-2420
     730:	2709883a 	add	r4,r4,fp
     734:	20800017 	ldw	r2,0(r4)
     738:	00c00084 	movi	r3,2
     73c:	10c00015 	stw	r3,0(r2)
			fifospace = *(audio_ptr + 1);	 		// leer el puerto de audio
     740:	017ff0f4 	movhi	r5,65475
     744:	297da404 	addi	r5,r5,-2416
     748:	2f0b883a 	add	r5,r5,fp
     74c:	28800017 	ldw	r2,0(r5)
     750:	10800117 	ldw	r2,4(r2)
     754:	01bff0f4 	movhi	r6,65475
     758:	31bda104 	addi	r6,r6,-2428
     75c:	370d883a 	add	r6,r6,fp
     760:	30800015 	stw	r2,0(r6)
			if ( (fifospace & 0x00FF0000) > BUF_THRESHOLD ) 	// chequear WSRC
     764:	00fff0f4 	movhi	r3,65475
     768:	18fda104 	addi	r3,r3,-2428
     76c:	1f07883a 	add	r3,r3,fp
     770:	18800017 	ldw	r2,0(r3)
     774:	10803fec 	andhi	r2,r2,255
     778:	10801850 	cmplti	r2,r2,97
     77c:	1000561e 	bne	r2,zero,8d8 <main+0x644>
			{
				// sacar datos de audio hasta que el buffer se vacie o la FIFO se llene
				while ( (fifospace & 0x00FF0000) && (buffer_index < BUF_SIZE) )
     780:	00004806 	br	8a4 <main+0x610>
				{
					*(audio_ptr + 2) = left_buffer[buffer_index];
     784:	013ff0f4 	movhi	r4,65475
     788:	213da404 	addi	r4,r4,-2416
     78c:	2709883a 	add	r4,r4,fp
     790:	20800017 	ldw	r2,0(r4)
     794:	10c00204 	addi	r3,r2,8
     798:	017ff0f4 	movhi	r5,65475
     79c:	297dab04 	addi	r5,r5,-2388
     7a0:	2f0b883a 	add	r5,r5,fp
     7a4:	28800017 	ldw	r2,0(r5)
     7a8:	1085883a 	add	r2,r2,r2
     7ac:	1085883a 	add	r2,r2,r2
     7b0:	01bff0f4 	movhi	r6,65475
     7b4:	31bda104 	addi	r6,r6,-2428
     7b8:	370d883a 	add	r6,r6,fp
     7bc:	3085883a 	add	r2,r6,r2
     7c0:	10800b04 	addi	r2,r2,44
     7c4:	10800017 	ldw	r2,0(r2)
     7c8:	18800015 	stw	r2,0(r3)
					*(audio_ptr + 3) = right_buffer[buffer_index];
     7cc:	00fff0f4 	movhi	r3,65475
     7d0:	18fda404 	addi	r3,r3,-2416
     7d4:	1f07883a 	add	r3,r3,fp
     7d8:	18800017 	ldw	r2,0(r3)
     7dc:	11000304 	addi	r4,r2,12
     7e0:	017ff0f4 	movhi	r5,65475
     7e4:	297dab04 	addi	r5,r5,-2388
     7e8:	2f0b883a 	add	r5,r5,fp
     7ec:	28c00017 	ldw	r3,0(r5)
     7f0:	008007f4 	movhi	r2,31
     7f4:	10a12b04 	addi	r2,r2,-31572
     7f8:	01bff0f4 	movhi	r6,65475
     7fc:	31bda104 	addi	r6,r6,-2428
     800:	370d883a 	add	r6,r6,fp
     804:	308b883a 	add	r5,r6,r2
     808:	18c5883a 	add	r2,r3,r3
     80c:	1085883a 	add	r2,r2,r2
     810:	2885883a 	add	r2,r5,r2
     814:	10800017 	ldw	r2,0(r2)
     818:	20800015 	stw	r2,0(r4)
					++buffer_index;
     81c:	00fff0f4 	movhi	r3,65475
     820:	18fdab04 	addi	r3,r3,-2388
     824:	1f07883a 	add	r3,r3,fp
     828:	18800017 	ldw	r2,0(r3)
     82c:	10800044 	addi	r2,r2,1
     830:	013ff0f4 	movhi	r4,65475
     834:	213dab04 	addi	r4,r4,-2388
     838:	2709883a 	add	r4,r4,fp
     83c:	20800015 	stw	r2,0(r4)

					if (buffer_index == BUF_SIZE)
     840:	017ff0f4 	movhi	r5,65475
     844:	297dab04 	addi	r5,r5,-2388
     848:	2f0b883a 	add	r5,r5,fp
     84c:	28c00017 	ldw	r3,0(r5)
     850:	00800234 	movhi	r2,8
     854:	10a84804 	addi	r2,r2,-24288
     858:	1880091e 	bne	r3,r2,880 <main+0x5ec>
					{
						// reproducción terminada
						play = 0;
     85c:	01bff0f4 	movhi	r6,65475
     860:	31bdaa04 	addi	r6,r6,-2392
     864:	370d883a 	add	r6,r6,fp
     868:	30000015 	stw	zero,0(r6)
						*(green_LED_ptr) = 0x0;				// LEDG off
     86c:	00fff0f4 	movhi	r3,65475
     870:	18fda304 	addi	r3,r3,-2420
     874:	1f07883a 	add	r3,r3,fp
     878:	18800017 	ldw	r2,0(r3)
     87c:	10000015 	stw	zero,0(r2)
					}
					fifospace = *(audio_ptr + 1);	// leer el puerto de audio
     880:	013ff0f4 	movhi	r4,65475
     884:	213da404 	addi	r4,r4,-2416
     888:	2709883a 	add	r4,r4,fp
     88c:	20800017 	ldw	r2,0(r4)
     890:	10800117 	ldw	r2,4(r2)
     894:	017ff0f4 	movhi	r5,65475
     898:	297da104 	addi	r5,r5,-2428
     89c:	2f0b883a 	add	r5,r5,fp
     8a0:	28800015 	stw	r2,0(r5)
			*(green_LED_ptr) = 0x2;					// LEDG[1] on
			fifospace = *(audio_ptr + 1);	 		// leer el puerto de audio
			if ( (fifospace & 0x00FF0000) > BUF_THRESHOLD ) 	// chequear WSRC
			{
				// sacar datos de audio hasta que el buffer se vacie o la FIFO se llene
				while ( (fifospace & 0x00FF0000) && (buffer_index < BUF_SIZE) )
     8a4:	01bff0f4 	movhi	r6,65475
     8a8:	31bda104 	addi	r6,r6,-2428
     8ac:	370d883a 	add	r6,r6,fp
     8b0:	30800017 	ldw	r2,0(r6)
     8b4:	10803fec 	andhi	r2,r2,255
     8b8:	10000726 	beq	r2,zero,8d8 <main+0x644>
     8bc:	00bff0f4 	movhi	r2,65475
     8c0:	10bdab04 	addi	r2,r2,-2388
     8c4:	1705883a 	add	r2,r2,fp
     8c8:	10c00017 	ldw	r3,0(r2)
     8cc:	00800234 	movhi	r2,8
     8d0:	10a847c4 	addi	r2,r2,-24289
     8d4:	10ffab0e 	bge	r2,r3,784 <__alt_mem_onchip_memory+0xf7800784>
					fifospace = *(audio_ptr + 1);	// leer el puerto de audio
				}
			}
		}
		/* chequear datos PS/2 -- mostrar en display HEX */
		PS2_data = *(PS2_ptr);			// leer el puerto de datos PS/2
     8d8:	00fff0f4 	movhi	r3,65475
     8dc:	18fda504 	addi	r3,r3,-2412
     8e0:	1f07883a 	add	r3,r3,fp
     8e4:	18800017 	ldw	r2,0(r3)
     8e8:	10800017 	ldw	r2,0(r2)
     8ec:	013ff0f4 	movhi	r4,65475
     8f0:	213da704 	addi	r4,r4,-2404
     8f4:	2709883a 	add	r4,r4,fp
     8f8:	20800015 	stw	r2,0(r4)
		RVALID = PS2_data & 0x8000;	// obtener el campo RVALID
     8fc:	017ff0f4 	movhi	r5,65475
     900:	297da704 	addi	r5,r5,-2404
     904:	2f0b883a 	add	r5,r5,fp
     908:	28800017 	ldw	r2,0(r5)
     90c:	10a0000c 	andi	r2,r2,32768
     910:	01bff0f4 	movhi	r6,65475
     914:	31bda804 	addi	r6,r6,-2400
     918:	370d883a 	add	r6,r6,fp
     91c:	30800015 	stw	r2,0(r6)
		if (RVALID)
     920:	00fff0f4 	movhi	r3,65475
     924:	18fda804 	addi	r3,r3,-2400
     928:	1f07883a 	add	r3,r3,fp
     92c:	18800017 	ldw	r2,0(r3)
     930:	103efb26 	beq	r2,zero,520 <__alt_mem_onchip_memory+0xf7800520>
		{
			/* desplazar el nuevo dato al display */
			byte1 = byte2;
     934:	013ff0f4 	movhi	r4,65475
     938:	213da204 	addi	r4,r4,-2424
     93c:	2709883a 	add	r4,r4,fp
     940:	20800003 	ldbu	r2,0(r4)
     944:	017ff0f4 	movhi	r5,65475
     948:	297da604 	addi	r5,r5,-2408
     94c:	2f0b883a 	add	r5,r5,fp
     950:	28800005 	stb	r2,0(r5)
			byte2 = byte3;
     954:	01bff0f4 	movhi	r6,65475
     958:	31bda244 	addi	r6,r6,-2423
     95c:	370d883a 	add	r6,r6,fp
     960:	30800003 	ldbu	r2,0(r6)
     964:	00fff0f4 	movhi	r3,65475
     968:	18fda204 	addi	r3,r3,-2424
     96c:	1f07883a 	add	r3,r3,fp
     970:	18800005 	stb	r2,0(r3)
			byte3 = PS2_data & 0xFF;
     974:	013ff0f4 	movhi	r4,65475
     978:	213da704 	addi	r4,r4,-2404
     97c:	2709883a 	add	r4,r4,fp
     980:	20800017 	ldw	r2,0(r4)
     984:	017ff0f4 	movhi	r5,65475
     988:	297da244 	addi	r5,r5,-2423
     98c:	2f0b883a 	add	r5,r5,fp
     990:	28800005 	stb	r2,0(r5)
			HEX_PS2 (byte1, byte2, byte3);
     994:	01bff0f4 	movhi	r6,65475
     998:	31bda604 	addi	r6,r6,-2408
     99c:	370d883a 	add	r6,r6,fp
     9a0:	30800007 	ldb	r2,0(r6)
     9a4:	013ff0f4 	movhi	r4,65475
     9a8:	213da204 	addi	r4,r4,-2424
     9ac:	2709883a 	add	r4,r4,fp
     9b0:	20c00007 	ldb	r3,0(r4)
     9b4:	017ff0f4 	movhi	r5,65475
     9b8:	297da244 	addi	r5,r5,-2423
     9bc:	2f0b883a 	add	r5,r5,fp
     9c0:	29000007 	ldb	r4,0(r5)
     9c4:	200d883a 	mov	r6,r4
     9c8:	180b883a 	mov	r5,r3
     9cc:	1009883a 	mov	r4,r2
     9d0:	0000c840 	call	c84 <HEX_PS2>

			if ( (byte2 == (char) 0xAA) && (byte3 == (char) 0x00) )
     9d4:	01bff0f4 	movhi	r6,65475
     9d8:	31bda204 	addi	r6,r6,-2424
     9dc:	370d883a 	add	r6,r6,fp
     9e0:	30800007 	ldb	r2,0(r6)
     9e4:	10bfea98 	cmpnei	r2,r2,-86
     9e8:	103ecd1e 	bne	r2,zero,520 <__alt_mem_onchip_memory+0xf7800520>
     9ec:	00fff0f4 	movhi	r3,65475
     9f0:	18fda244 	addi	r3,r3,-2423
     9f4:	1f07883a 	add	r3,r3,fp
     9f8:	18800007 	ldb	r2,0(r3)
     9fc:	103ec81e 	bne	r2,zero,520 <__alt_mem_onchip_memory+0xf7800520>
				// raton conectado; initializar envio de datos
				*(PS2_ptr) = 0xF4;
     a00:	013ff0f4 	movhi	r4,65475
     a04:	213da504 	addi	r4,r4,-2412
     a08:	2709883a 	add	r4,r4,fp
     a0c:	20800017 	ldw	r2,0(r4)
     a10:	00c03d04 	movi	r3,244
     a14:	10c00015 	stw	r3,0(r2)
		}
	}
     a18:	003ec106 	br	520 <__alt_mem_onchip_memory+0xf7800520>

00000a1c <LCD_cursor>:

/****************************************************************************************
 * Subrutina para mover el cursor del LCD
****************************************************************************************/
void LCD_cursor(int x, int y)
{
     a1c:	defffb04 	addi	sp,sp,-20
     a20:	df000415 	stw	fp,16(sp)
     a24:	df000404 	addi	fp,sp,16
     a28:	e13ffe15 	stw	r4,-8(fp)
     a2c:	e17fff15 	stw	r5,-4(fp)
  	volatile char * LCD_display_ptr = (char *) CHAR_LCD_BASE;	// display LCD 16x2
     a30:	00840034 	movhi	r2,4096
     a34:	10802404 	addi	r2,r2,144
     a38:	e0bffd15 	stw	r2,-12(fp)
	char instruction;

	instruction = x;
     a3c:	e0bffe17 	ldw	r2,-8(fp)
     a40:	e0bffc05 	stb	r2,-16(fp)
	if (y != 0) instruction |= 0x40;			// activar el bit 6 para la fila inferior
     a44:	e0bfff17 	ldw	r2,-4(fp)
     a48:	10000326 	beq	r2,zero,a58 <LCD_cursor+0x3c>
     a4c:	e0bffc03 	ldbu	r2,-16(fp)
     a50:	10801014 	ori	r2,r2,64
     a54:	e0bffc05 	stb	r2,-16(fp)
	instruction |= 0x80;						// hay que activar el bit 7 para indicar el lugar
     a58:	e0fffc03 	ldbu	r3,-16(fp)
     a5c:	00bfe004 	movi	r2,-128
     a60:	1884b03a 	or	r2,r3,r2
     a64:	e0bffc05 	stb	r2,-16(fp)
	*(LCD_display_ptr) = instruction;			// escribe registro de instrucciones del LCD
     a68:	e0bffd17 	ldw	r2,-12(fp)
     a6c:	e0fffc03 	ldbu	r3,-16(fp)
     a70:	10c00005 	stb	r3,0(r2)
}
     a74:	0001883a 	nop
     a78:	e037883a 	mov	sp,fp
     a7c:	df000017 	ldw	fp,0(sp)
     a80:	dec00104 	addi	sp,sp,4
     a84:	f800283a 	ret

00000a88 <LCD_text>:

/****************************************************************************************
 * Subrutina para enviar una cadena de texto al LCD
****************************************************************************************/
void LCD_text(char * text_ptr)
{
     a88:	defffd04 	addi	sp,sp,-12
     a8c:	df000215 	stw	fp,8(sp)
     a90:	df000204 	addi	fp,sp,8
     a94:	e13fff15 	stw	r4,-4(fp)
  	volatile char * LCD_display_ptr = (char *) CHAR_LCD_BASE;	// display LCD 16x2
     a98:	00840034 	movhi	r2,4096
     a9c:	10802404 	addi	r2,r2,144
     aa0:	e0bffe15 	stw	r2,-8(fp)

	while ( *(text_ptr) )
     aa4:	00000806 	br	ac8 <LCD_text+0x40>
	{
		*(LCD_display_ptr + 1) = *(text_ptr);	// escribe los datos en el LCD
     aa8:	e0bffe17 	ldw	r2,-8(fp)
     aac:	10800044 	addi	r2,r2,1
     ab0:	e0ffff17 	ldw	r3,-4(fp)
     ab4:	18c00003 	ldbu	r3,0(r3)
     ab8:	10c00005 	stb	r3,0(r2)
		++text_ptr;
     abc:	e0bfff17 	ldw	r2,-4(fp)
     ac0:	10800044 	addi	r2,r2,1
     ac4:	e0bfff15 	stw	r2,-4(fp)
****************************************************************************************/
void LCD_text(char * text_ptr)
{
  	volatile char * LCD_display_ptr = (char *) CHAR_LCD_BASE;	// display LCD 16x2

	while ( *(text_ptr) )
     ac8:	e0bfff17 	ldw	r2,-4(fp)
     acc:	10800003 	ldbu	r2,0(r2)
     ad0:	10803fcc 	andi	r2,r2,255
     ad4:	1080201c 	xori	r2,r2,128
     ad8:	10bfe004 	addi	r2,r2,-128
     adc:	103ff21e 	bne	r2,zero,aa8 <__alt_mem_onchip_memory+0xf7800aa8>
	{
		*(LCD_display_ptr + 1) = *(text_ptr);	// escribe los datos en el LCD
		++text_ptr;
	}
}
     ae0:	0001883a 	nop
     ae4:	e037883a 	mov	sp,fp
     ae8:	df000017 	ldw	fp,0(sp)
     aec:	dec00104 	addi	sp,sp,4
     af0:	f800283a 	ret

00000af4 <LCD_cursor_off>:

/****************************************************************************************
 * Subrutina para apagar el cursor del LCD
****************************************************************************************/
void LCD_cursor_off(void)
{
     af4:	defffe04 	addi	sp,sp,-8
     af8:	df000115 	stw	fp,4(sp)
     afc:	df000104 	addi	fp,sp,4
  	volatile char * LCD_display_ptr = (char *) CHAR_LCD_BASE;	// display LCD 16x2
     b00:	00840034 	movhi	r2,4096
     b04:	10802404 	addi	r2,r2,144
     b08:	e0bfff15 	stw	r2,-4(fp)
	*(LCD_display_ptr) = 0x0C;					// desactiva el curso del LCD
     b0c:	e0bfff17 	ldw	r2,-4(fp)
     b10:	00c00304 	movi	r3,12
     b14:	10c00005 	stb	r3,0(r2)
}
     b18:	0001883a 	nop
     b1c:	e037883a 	mov	sp,fp
     b20:	df000017 	ldw	fp,0(sp)
     b24:	dec00104 	addi	sp,sp,4
     b28:	f800283a 	ret

00000b2c <MTL_text>:

/****************************************************************************************
 * Subrutina para enviar una cadena de texto a la pantalla MTL
****************************************************************************************/
void MTL_text(int x, int y, char * text_ptr)
{
     b2c:	defffa04 	addi	sp,sp,-24
     b30:	df000515 	stw	fp,20(sp)
     b34:	df000504 	addi	fp,sp,20
     b38:	e13ffd15 	stw	r4,-12(fp)
     b3c:	e17ffe15 	stw	r5,-8(fp)
     b40:	e1bfff15 	stw	r6,-4(fp)
	int offset;
  	volatile char * character_buffer = (char *)  MTL_CHAR_BUFFER_AVALON_CHAR_BUFFER_SLAVE_BASE;	// MTL character buffer
     b44:	00840034 	movhi	r2,4096
     b48:	10860004 	addi	r2,r2,6144
     b4c:	e0bffc15 	stw	r2,-16(fp)

	/* asume que la cadena de texto comienza en la primera fila */
	offset = (y << 6) + x;
     b50:	e0bffe17 	ldw	r2,-8(fp)
     b54:	100691ba 	slli	r3,r2,6
     b58:	e0bffd17 	ldw	r2,-12(fp)
     b5c:	1885883a 	add	r2,r3,r2
     b60:	e0bffb15 	stw	r2,-20(fp)
	while ( *(text_ptr) )
     b64:	00000c06 	br	b98 <MTL_text+0x6c>
	{
		*(character_buffer + offset) = *(text_ptr);	// escribe en el buffer
     b68:	e0bffb17 	ldw	r2,-20(fp)
     b6c:	e0fffc17 	ldw	r3,-16(fp)
     b70:	1885883a 	add	r2,r3,r2
     b74:	e0ffff17 	ldw	r3,-4(fp)
     b78:	18c00003 	ldbu	r3,0(r3)
     b7c:	10c00005 	stb	r3,0(r2)
		++text_ptr;
     b80:	e0bfff17 	ldw	r2,-4(fp)
     b84:	10800044 	addi	r2,r2,1
     b88:	e0bfff15 	stw	r2,-4(fp)
		++offset;
     b8c:	e0bffb17 	ldw	r2,-20(fp)
     b90:	10800044 	addi	r2,r2,1
     b94:	e0bffb15 	stw	r2,-20(fp)
	int offset;
  	volatile char * character_buffer = (char *)  MTL_CHAR_BUFFER_AVALON_CHAR_BUFFER_SLAVE_BASE;	// MTL character buffer

	/* asume que la cadena de texto comienza en la primera fila */
	offset = (y << 6) + x;
	while ( *(text_ptr) )
     b98:	e0bfff17 	ldw	r2,-4(fp)
     b9c:	10800003 	ldbu	r2,0(r2)
     ba0:	10803fcc 	andi	r2,r2,255
     ba4:	1080201c 	xori	r2,r2,128
     ba8:	10bfe004 	addi	r2,r2,-128
     bac:	103fee1e 	bne	r2,zero,b68 <__alt_mem_onchip_memory+0xf7800b68>
	{
		*(character_buffer + offset) = *(text_ptr);	// escribe en el buffer
		++text_ptr;
		++offset;
	}
}
     bb0:	0001883a 	nop
     bb4:	e037883a 	mov	sp,fp
     bb8:	df000017 	ldw	fp,0(sp)
     bbc:	dec00104 	addi	sp,sp,4
     bc0:	f800283a 	ret

00000bc4 <MTL_box>:

/****************************************************************************************
 * Dibujar un rectangulo en la pantalla MTL
****************************************************************************************/
void MTL_box(int x1, int y1, int x2, int y2, short pixel_color)
{
     bc4:	defff504 	addi	sp,sp,-44
     bc8:	df000a15 	stw	fp,40(sp)
     bcc:	df000a04 	addi	fp,sp,40
     bd0:	e13ffb15 	stw	r4,-20(fp)
     bd4:	e17ffc15 	stw	r5,-16(fp)
     bd8:	e1bffd15 	stw	r6,-12(fp)
     bdc:	e1fffe15 	stw	r7,-8(fp)
     be0:	e0800117 	ldw	r2,4(fp)
     be4:	e0bfff0d 	sth	r2,-4(fp)
	int offset, row, col;
	int SRAM_BASE_SIN_CACHE = (SRAM_BASE + 0x080000000);  //Activando el bit más significativo se elude la cache de datos
     be8:	00a24034 	movhi	r2,35072
     bec:	e0bff815 	stw	r2,-32(fp)
  	volatile short * pixel_buffer = (short *) SRAM_BASE_SIN_CACHE;	// VGA pixel buffer
     bf0:	e0bff817 	ldw	r2,-32(fp)
     bf4:	e0bff915 	stw	r2,-28(fp)

	/* se asume que las coordenadas del rectangulo son correctas */
	for (row = y1; row <= y2; row++)
     bf8:	e0bffc17 	ldw	r2,-16(fp)
     bfc:	e0bff615 	stw	r2,-40(fp)
     c00:	00001806 	br	c64 <MTL_box+0xa0>
	{
		col = x1;
     c04:	e0bffb17 	ldw	r2,-20(fp)
     c08:	e0bff715 	stw	r2,-36(fp)
		while (col <= x2)
     c0c:	00000f06 	br	c4c <MTL_box+0x88>
		{
			offset = (row << 9) + col;
     c10:	e0bff617 	ldw	r2,-40(fp)
     c14:	1006927a 	slli	r3,r2,9
     c18:	e0bff717 	ldw	r2,-36(fp)
     c1c:	1885883a 	add	r2,r3,r2
     c20:	e0bffa15 	stw	r2,-24(fp)
			*(pixel_buffer + offset) = pixel_color;	//procesa mitad direcciones
     c24:	e0bffa17 	ldw	r2,-24(fp)
     c28:	1085883a 	add	r2,r2,r2
     c2c:	1007883a 	mov	r3,r2
     c30:	e0bff917 	ldw	r2,-28(fp)
     c34:	10c5883a 	add	r2,r2,r3
     c38:	e0ffff0b 	ldhu	r3,-4(fp)
     c3c:	10c0000d 	sth	r3,0(r2)
			++col;
     c40:	e0bff717 	ldw	r2,-36(fp)
     c44:	10800044 	addi	r2,r2,1
     c48:	e0bff715 	stw	r2,-36(fp)

	/* se asume que las coordenadas del rectangulo son correctas */
	for (row = y1; row <= y2; row++)
	{
		col = x1;
		while (col <= x2)
     c4c:	e0bff717 	ldw	r2,-36(fp)
     c50:	e0fffd17 	ldw	r3,-12(fp)
     c54:	18bfee0e 	bge	r3,r2,c10 <__alt_mem_onchip_memory+0xf7800c10>
	int offset, row, col;
	int SRAM_BASE_SIN_CACHE = (SRAM_BASE + 0x080000000);  //Activando el bit más significativo se elude la cache de datos
  	volatile short * pixel_buffer = (short *) SRAM_BASE_SIN_CACHE;	// VGA pixel buffer

	/* se asume que las coordenadas del rectangulo son correctas */
	for (row = y1; row <= y2; row++)
     c58:	e0bff617 	ldw	r2,-40(fp)
     c5c:	10800044 	addi	r2,r2,1
     c60:	e0bff615 	stw	r2,-40(fp)
     c64:	e0bff617 	ldw	r2,-40(fp)
     c68:	e0fffe17 	ldw	r3,-8(fp)
     c6c:	18bfe50e 	bge	r3,r2,c04 <__alt_mem_onchip_memory+0xf7800c04>
			offset = (row << 9) + col;
			*(pixel_buffer + offset) = pixel_color;	//procesa mitad direcciones
			++col;
		}
	}
}
     c70:	0001883a 	nop
     c74:	e037883a 	mov	sp,fp
     c78:	df000017 	ldw	fp,0(sp)
     c7c:	dec00104 	addi	sp,sp,4
     c80:	f800283a 	ret

00000c84 <HEX_PS2>:

/****************************************************************************************
 * Subrutine to para mostrar una cadena de datos HEX en el display HEX
****************************************************************************************/
void HEX_PS2(char b1, char b2, char b3)
{
     c84:	deffef04 	addi	sp,sp,-68
     c88:	dfc01015 	stw	ra,64(sp)
     c8c:	df000f15 	stw	fp,60(sp)
     c90:	df000f04 	addi	fp,sp,60
     c94:	2807883a 	mov	r3,r5
     c98:	3005883a 	mov	r2,r6
     c9c:	e13ffd05 	stb	r4,-12(fp)
     ca0:	e0fffe05 	stb	r3,-8(fp)
     ca4:	e0bfff05 	stb	r2,-4(fp)
	volatile int * HEX3_HEX0_ptr = (int *) HEX3_HEX0_BASE;
     ca8:	00840034 	movhi	r2,4096
     cac:	10800804 	addi	r2,r2,32
     cb0:	e0bff315 	stw	r2,-52(fp)
	volatile int * HEX7_HEX4_ptr = (int *) HEX7_HEX4_BASE;
     cb4:	00840034 	movhi	r2,4096
     cb8:	10800c04 	addi	r2,r2,48
     cbc:	e0bff415 	stw	r2,-48(fp)

	unsigned char	seven_seg_decode_table[] = {	0x3F, 0x06, 0x5B, 0x4F, 0x66, 0x6D, 0x7D, 0x07,
     cc0:	00800034 	movhi	r2,0
     cc4:	109c6304 	addi	r2,r2,29068
     cc8:	e0fff644 	addi	r3,fp,-39
     ccc:	1009883a 	mov	r4,r2
     cd0:	00800404 	movi	r2,16
     cd4:	100d883a 	mov	r6,r2
     cd8:	200b883a 	mov	r5,r4
     cdc:	1809883a 	mov	r4,r3
     ce0:	0000eac0 	call	eac <memcpy>
                                                        0x7F, 0x67, 0x77, 0x7C, 0x39, 0x5E, 0x79, 0x71 };
	unsigned char	hex_segs[] = { 0, 0, 0, 0, 0, 0, 0, 0 };
     ce4:	e03ffa45 	stb	zero,-23(fp)
     ce8:	e03ffa85 	stb	zero,-22(fp)
     cec:	e03ffac5 	stb	zero,-21(fp)
     cf0:	e03ffb05 	stb	zero,-20(fp)
     cf4:	e03ffb45 	stb	zero,-19(fp)
     cf8:	e03ffb85 	stb	zero,-18(fp)
     cfc:	e03ffbc5 	stb	zero,-17(fp)
     d00:	e03ffc05 	stb	zero,-16(fp)
	unsigned int shift_buffer, nibble;
	unsigned char code;
	int i;

	shift_buffer = (b1 << 16) | (b2 << 8) | b3;
     d04:	e0bffd07 	ldb	r2,-12(fp)
     d08:	1006943a 	slli	r3,r2,16
     d0c:	e0bffe07 	ldb	r2,-8(fp)
     d10:	1004923a 	slli	r2,r2,8
     d14:	1886b03a 	or	r3,r3,r2
     d18:	e0bfff07 	ldb	r2,-4(fp)
     d1c:	1884b03a 	or	r2,r3,r2
     d20:	e0bff115 	stw	r2,-60(fp)
	for ( i = 0; i < 6; ++i )
     d24:	e03ff215 	stw	zero,-56(fp)
     d28:	00001306 	br	d78 <HEX_PS2+0xf4>
	{
		nibble = shift_buffer & 0x0000000F;
     d2c:	e0bff117 	ldw	r2,-60(fp)
     d30:	108003cc 	andi	r2,r2,15
     d34:	e0bff515 	stw	r2,-44(fp)
		code = seven_seg_decode_table[nibble];
     d38:	e0fff644 	addi	r3,fp,-39
     d3c:	e0bff517 	ldw	r2,-44(fp)
     d40:	1885883a 	add	r2,r3,r2
     d44:	10800003 	ldbu	r2,0(r2)
     d48:	e0bff605 	stb	r2,-40(fp)
		hex_segs[i] = code;
     d4c:	e0fffa44 	addi	r3,fp,-23
     d50:	e0bff217 	ldw	r2,-56(fp)
     d54:	1885883a 	add	r2,r3,r2
     d58:	e0fff603 	ldbu	r3,-40(fp)
     d5c:	10c00005 	stb	r3,0(r2)
		shift_buffer = shift_buffer >> 4;
     d60:	e0bff117 	ldw	r2,-60(fp)
     d64:	1004d13a 	srli	r2,r2,4
     d68:	e0bff115 	stw	r2,-60(fp)
	unsigned int shift_buffer, nibble;
	unsigned char code;
	int i;

	shift_buffer = (b1 << 16) | (b2 << 8) | b3;
	for ( i = 0; i < 6; ++i )
     d6c:	e0bff217 	ldw	r2,-56(fp)
     d70:	10800044 	addi	r2,r2,1
     d74:	e0bff215 	stw	r2,-56(fp)
     d78:	e0bff217 	ldw	r2,-56(fp)
     d7c:	10800190 	cmplti	r2,r2,6
     d80:	103fea1e 	bne	r2,zero,d2c <__alt_mem_onchip_memory+0xf7800d2c>
		code = seven_seg_decode_table[nibble];
		hex_segs[i] = code;
		shift_buffer = shift_buffer >> 4;
	}

	*(HEX3_HEX0_ptr) = *(int *) (hex_segs);
     d84:	e0bffa44 	addi	r2,fp,-23
     d88:	10c00017 	ldw	r3,0(r2)
     d8c:	e0bff317 	ldw	r2,-52(fp)
     d90:	10c00015 	stw	r3,0(r2)
	*(HEX7_HEX4_ptr) = *(int *) (hex_segs+4);
     d94:	e0bffb43 	ldbu	r2,-19(fp)
     d98:	e0fffb83 	ldbu	r3,-18(fp)
     d9c:	1806923a 	slli	r3,r3,8
     da0:	1884b03a 	or	r2,r3,r2
     da4:	e0fffbc3 	ldbu	r3,-17(fp)
     da8:	1806943a 	slli	r3,r3,16
     dac:	1884b03a 	or	r2,r3,r2
     db0:	e0fffc03 	ldbu	r3,-16(fp)
     db4:	1806963a 	slli	r3,r3,24
     db8:	1884b03a 	or	r2,r3,r2
     dbc:	1007883a 	mov	r3,r2
     dc0:	e0bff417 	ldw	r2,-48(fp)
     dc4:	10c00015 	stw	r3,0(r2)
}
     dc8:	0001883a 	nop
     dcc:	e037883a 	mov	sp,fp
     dd0:	dfc00117 	ldw	ra,4(sp)
     dd4:	df000017 	ldw	fp,0(sp)
     dd8:	dec00204 	addi	sp,sp,8
     ddc:	f800283a 	ret

00000de0 <check_KEYs>:

/****************************************************************************************
 * Subrutina para leer KEYs
****************************************************************************************/
void check_KEYs(int * KEY1, int * KEY2, int * counter)
{
     de0:	defff904 	addi	sp,sp,-28
     de4:	df000615 	stw	fp,24(sp)
     de8:	df000604 	addi	fp,sp,24
     dec:	e13ffd15 	stw	r4,-12(fp)
     df0:	e17ffe15 	stw	r5,-8(fp)
     df4:	e1bfff15 	stw	r6,-4(fp)
	volatile int * KEY_ptr = (int *) PUSHBUTTONS_BASE;
     df8:	00840034 	movhi	r2,4096
     dfc:	10801404 	addi	r2,r2,80
     e00:	e0bffa15 	stw	r2,-24(fp)
	volatile int * audio_ptr = (int *) AUDIO_BASE;
     e04:	00840034 	movhi	r2,4096
     e08:	10804404 	addi	r2,r2,272
     e0c:	e0bffb15 	stw	r2,-20(fp)
	int KEY_value;

	KEY_value = *(KEY_ptr);
     e10:	e0bffa17 	ldw	r2,-24(fp)
     e14:	10800017 	ldw	r2,0(r2)
     e18:	e0bffc15 	stw	r2,-16(fp)
	while (*KEY_ptr);
     e1c:	0001883a 	nop
     e20:	e0bffa17 	ldw	r2,-24(fp)
     e24:	10800017 	ldw	r2,0(r2)
     e28:	103ffd1e 	bne	r2,zero,e20 <__alt_mem_onchip_memory+0xf7800e20>

	if (KEY_value == 0x2)
     e2c:	e0bffc17 	ldw	r2,-16(fp)
     e30:	10800098 	cmpnei	r2,r2,2
     e34:	10000b1e 	bne	r2,zero,e64 <check_KEYs+0x84>
	{
		// borrar contador para empezar a grabar
		*counter = 0;
     e38:	e0bfff17 	ldw	r2,-4(fp)
     e3c:	10000015 	stw	zero,0(r2)
		// borrar FIFO audio entrada
		*(audio_ptr) = 0x4;
     e40:	e0bffb17 	ldw	r2,-20(fp)
     e44:	00c00104 	movi	r3,4
     e48:	10c00015 	stw	r3,0(r2)
		*(audio_ptr) = 0x0;
     e4c:	e0bffb17 	ldw	r2,-20(fp)
     e50:	10000015 	stw	zero,0(r2)

		*KEY1 = 1;
     e54:	e0bffd17 	ldw	r2,-12(fp)
     e58:	00c00044 	movi	r3,1
     e5c:	10c00015 	stw	r3,0(r2)
		*(audio_ptr) = 0x8;
		*(audio_ptr) = 0x0;

		*KEY2 = 1;
	}
}
     e60:	00000d06 	br	e98 <check_KEYs+0xb8>
		*(audio_ptr) = 0x4;
		*(audio_ptr) = 0x0;

		*KEY1 = 1;
	}
	else if (KEY_value == 0x4)
     e64:	e0bffc17 	ldw	r2,-16(fp)
     e68:	10800118 	cmpnei	r2,r2,4
     e6c:	10000a1e 	bne	r2,zero,e98 <check_KEYs+0xb8>
	{
		// borrar contador para empezar a reproducir
		*counter = 0;
     e70:	e0bfff17 	ldw	r2,-4(fp)
     e74:	10000015 	stw	zero,0(r2)
		// borrar FIFO audio salida
		*(audio_ptr) = 0x8;
     e78:	e0bffb17 	ldw	r2,-20(fp)
     e7c:	00c00204 	movi	r3,8
     e80:	10c00015 	stw	r3,0(r2)
		*(audio_ptr) = 0x0;
     e84:	e0bffb17 	ldw	r2,-20(fp)
     e88:	10000015 	stw	zero,0(r2)

		*KEY2 = 1;
     e8c:	e0bffe17 	ldw	r2,-8(fp)
     e90:	00c00044 	movi	r3,1
     e94:	10c00015 	stw	r3,0(r2)
	}
}
     e98:	0001883a 	nop
     e9c:	e037883a 	mov	sp,fp
     ea0:	df000017 	ldw	fp,0(sp)
     ea4:	dec00104 	addi	sp,sp,4
     ea8:	f800283a 	ret

00000eac <memcpy>:
     eac:	defffd04 	addi	sp,sp,-12
     eb0:	dfc00215 	stw	ra,8(sp)
     eb4:	dc400115 	stw	r17,4(sp)
     eb8:	dc000015 	stw	r16,0(sp)
     ebc:	00c003c4 	movi	r3,15
     ec0:	2005883a 	mov	r2,r4
     ec4:	1980452e 	bgeu	r3,r6,fdc <memcpy+0x130>
     ec8:	2906b03a 	or	r3,r5,r4
     ecc:	18c000cc 	andi	r3,r3,3
     ed0:	1800441e 	bne	r3,zero,fe4 <memcpy+0x138>
     ed4:	347ffc04 	addi	r17,r6,-16
     ed8:	8822d13a 	srli	r17,r17,4
     edc:	28c00104 	addi	r3,r5,4
     ee0:	23400104 	addi	r13,r4,4
     ee4:	8820913a 	slli	r16,r17,4
     ee8:	2b000204 	addi	r12,r5,8
     eec:	22c00204 	addi	r11,r4,8
     ef0:	84000504 	addi	r16,r16,20
     ef4:	2a800304 	addi	r10,r5,12
     ef8:	22400304 	addi	r9,r4,12
     efc:	2c21883a 	add	r16,r5,r16
     f00:	2811883a 	mov	r8,r5
     f04:	200f883a 	mov	r7,r4
     f08:	41000017 	ldw	r4,0(r8)
     f0c:	1fc00017 	ldw	ra,0(r3)
     f10:	63c00017 	ldw	r15,0(r12)
     f14:	39000015 	stw	r4,0(r7)
     f18:	53800017 	ldw	r14,0(r10)
     f1c:	6fc00015 	stw	ra,0(r13)
     f20:	5bc00015 	stw	r15,0(r11)
     f24:	4b800015 	stw	r14,0(r9)
     f28:	18c00404 	addi	r3,r3,16
     f2c:	39c00404 	addi	r7,r7,16
     f30:	42000404 	addi	r8,r8,16
     f34:	6b400404 	addi	r13,r13,16
     f38:	63000404 	addi	r12,r12,16
     f3c:	5ac00404 	addi	r11,r11,16
     f40:	52800404 	addi	r10,r10,16
     f44:	4a400404 	addi	r9,r9,16
     f48:	1c3fef1e 	bne	r3,r16,f08 <__alt_mem_onchip_memory+0xf7800f08>
     f4c:	89c00044 	addi	r7,r17,1
     f50:	380e913a 	slli	r7,r7,4
     f54:	310003cc 	andi	r4,r6,15
     f58:	02c000c4 	movi	r11,3
     f5c:	11c7883a 	add	r3,r2,r7
     f60:	29cb883a 	add	r5,r5,r7
     f64:	5900212e 	bgeu	r11,r4,fec <memcpy+0x140>
     f68:	1813883a 	mov	r9,r3
     f6c:	2811883a 	mov	r8,r5
     f70:	200f883a 	mov	r7,r4
     f74:	42800017 	ldw	r10,0(r8)
     f78:	4a400104 	addi	r9,r9,4
     f7c:	39ffff04 	addi	r7,r7,-4
     f80:	4abfff15 	stw	r10,-4(r9)
     f84:	42000104 	addi	r8,r8,4
     f88:	59fffa36 	bltu	r11,r7,f74 <__alt_mem_onchip_memory+0xf7800f74>
     f8c:	213fff04 	addi	r4,r4,-4
     f90:	2008d0ba 	srli	r4,r4,2
     f94:	318000cc 	andi	r6,r6,3
     f98:	21000044 	addi	r4,r4,1
     f9c:	2109883a 	add	r4,r4,r4
     fa0:	2109883a 	add	r4,r4,r4
     fa4:	1907883a 	add	r3,r3,r4
     fa8:	290b883a 	add	r5,r5,r4
     fac:	30000626 	beq	r6,zero,fc8 <memcpy+0x11c>
     fb0:	198d883a 	add	r6,r3,r6
     fb4:	29c00003 	ldbu	r7,0(r5)
     fb8:	18c00044 	addi	r3,r3,1
     fbc:	29400044 	addi	r5,r5,1
     fc0:	19ffffc5 	stb	r7,-1(r3)
     fc4:	19bffb1e 	bne	r3,r6,fb4 <__alt_mem_onchip_memory+0xf7800fb4>
     fc8:	dfc00217 	ldw	ra,8(sp)
     fcc:	dc400117 	ldw	r17,4(sp)
     fd0:	dc000017 	ldw	r16,0(sp)
     fd4:	dec00304 	addi	sp,sp,12
     fd8:	f800283a 	ret
     fdc:	2007883a 	mov	r3,r4
     fe0:	003ff206 	br	fac <__alt_mem_onchip_memory+0xf7800fac>
     fe4:	2007883a 	mov	r3,r4
     fe8:	003ff106 	br	fb0 <__alt_mem_onchip_memory+0xf7800fb0>
     fec:	200d883a 	mov	r6,r4
     ff0:	003fee06 	br	fac <__alt_mem_onchip_memory+0xf7800fac>

00000ff4 <alt_load_section>:
 */

static void ALT_INLINE alt_load_section (alt_u32* from, 
                                         alt_u32* to, 
                                         alt_u32* end)
{
     ff4:	defffc04 	addi	sp,sp,-16
     ff8:	df000315 	stw	fp,12(sp)
     ffc:	df000304 	addi	fp,sp,12
    1000:	e13ffd15 	stw	r4,-12(fp)
    1004:	e17ffe15 	stw	r5,-8(fp)
    1008:	e1bfff15 	stw	r6,-4(fp)
  if (to != from)
    100c:	e0fffe17 	ldw	r3,-8(fp)
    1010:	e0bffd17 	ldw	r2,-12(fp)
    1014:	18800c26 	beq	r3,r2,1048 <alt_load_section+0x54>
  {
    while( to != end )
    1018:	00000806 	br	103c <alt_load_section+0x48>
    {
      *to++ = *from++;
    101c:	e0bffe17 	ldw	r2,-8(fp)
    1020:	10c00104 	addi	r3,r2,4
    1024:	e0fffe15 	stw	r3,-8(fp)
    1028:	e0fffd17 	ldw	r3,-12(fp)
    102c:	19000104 	addi	r4,r3,4
    1030:	e13ffd15 	stw	r4,-12(fp)
    1034:	18c00017 	ldw	r3,0(r3)
    1038:	10c00015 	stw	r3,0(r2)
                                         alt_u32* to, 
                                         alt_u32* end)
{
  if (to != from)
  {
    while( to != end )
    103c:	e0fffe17 	ldw	r3,-8(fp)
    1040:	e0bfff17 	ldw	r2,-4(fp)
    1044:	18bff51e 	bne	r3,r2,101c <__alt_mem_onchip_memory+0xf780101c>
    {
      *to++ = *from++;
    }
  }
}
    1048:	0001883a 	nop
    104c:	e037883a 	mov	sp,fp
    1050:	df000017 	ldw	fp,0(sp)
    1054:	dec00104 	addi	sp,sp,4
    1058:	f800283a 	ret

0000105c <alt_load>:
 * there is no bootloader, so this application is responsible for loading to
 * RAM any sections that are required.
 */  

void alt_load (void)
{
    105c:	defffe04 	addi	sp,sp,-8
    1060:	dfc00115 	stw	ra,4(sp)
    1064:	df000015 	stw	fp,0(sp)
    1068:	d839883a 	mov	fp,sp
  /* 
   * Copy the .rwdata section. 
   */

  alt_load_section (&__flash_rwdata_start, 
    106c:	01800074 	movhi	r6,1
    1070:	31a35604 	addi	r6,r6,-29352
    1074:	01400034 	movhi	r5,0
    1078:	295cc904 	addi	r5,r5,29476
    107c:	01000074 	movhi	r4,1
    1080:	21235604 	addi	r4,r4,-29352
    1084:	0000ff40 	call	ff4 <alt_load_section>

  /*
   * Copy the exception handler.
   */

  alt_load_section (&__flash_exceptions_start, 
    1088:	01800034 	movhi	r6,0
    108c:	31809204 	addi	r6,r6,584
    1090:	01400034 	movhi	r5,0
    1094:	29400804 	addi	r5,r5,32
    1098:	01000034 	movhi	r4,0
    109c:	21000804 	addi	r4,r4,32
    10a0:	0000ff40 	call	ff4 <alt_load_section>

  /*
   * Copy the .rodata section.
   */

  alt_load_section (&__flash_rodata_start, 
    10a4:	01800034 	movhi	r6,0
    10a8:	319cc904 	addi	r6,r6,29476
    10ac:	01400034 	movhi	r5,0
    10b0:	295c4f04 	addi	r5,r5,28988
    10b4:	01000034 	movhi	r4,0
    10b8:	211c4f04 	addi	r4,r4,28988
    10bc:	0000ff40 	call	ff4 <alt_load_section>
  
  /*
   * Now ensure that the caches are in synch.
   */
  
  alt_dcache_flush_all();
    10c0:	00052900 	call	5290 <alt_dcache_flush_all>
  alt_icache_flush_all();
    10c4:	00055f00 	call	55f0 <alt_icache_flush_all>
}
    10c8:	0001883a 	nop
    10cc:	e037883a 	mov	sp,fp
    10d0:	dfc00117 	ldw	ra,4(sp)
    10d4:	df000017 	ldw	fp,0(sp)
    10d8:	dec00204 	addi	sp,sp,8
    10dc:	f800283a 	ret

000010e0 <alt_main>:
 * devices/filesystems/components in the system; and call the entry point for
 * the users application, i.e. main().
 */

void alt_main (void)
{
    10e0:	defffd04 	addi	sp,sp,-12
    10e4:	dfc00215 	stw	ra,8(sp)
    10e8:	df000115 	stw	fp,4(sp)
    10ec:	df000104 	addi	fp,sp,4
#endif

  /* ALT LOG - please see HAL/sys/alt_log_printf.h for details */
  ALT_LOG_PRINT_BOOT("[alt_main.c] Entering alt_main, calling alt_irq_init.\r\n");
  /* Initialize the interrupt controller. */
  alt_irq_init (NULL);
    10f0:	0009883a 	mov	r4,zero
    10f4:	00011900 	call	1190 <alt_irq_init>

  /* Initialize the operating system */
  ALT_LOG_PRINT_BOOT("[alt_main.c] Done alt_irq_init, calling alt_os_init.\r\n");
  ALT_OS_INIT();
    10f8:	0001883a 	nop
  ALT_LOG_PRINT_BOOT("[alt_main.c] Done OS Init, calling alt_sem_create.\r\n");
  ALT_SEM_CREATE (&alt_fd_list_lock, 1);

  /* Initialize the device drivers/software components. */
  ALT_LOG_PRINT_BOOT("[alt_main.c] Calling alt_sys_init.\r\n");
  alt_sys_init();
    10fc:	00011c80 	call	11c8 <alt_sys_init>
   * devices be present (not equal to /dev/null) and if direct drivers
   * aren't being used.
   */

    ALT_LOG_PRINT_BOOT("[alt_main.c] Redirecting IO.\r\n");
    alt_io_redirect(ALT_STDOUT, ALT_STDIN, ALT_STDERR);
    1100:	01800034 	movhi	r6,0
    1104:	319c6704 	addi	r6,r6,29084
    1108:	01400034 	movhi	r5,0
    110c:	295c6704 	addi	r5,r5,29084
    1110:	01000034 	movhi	r4,0
    1114:	211c6704 	addi	r4,r4,29084
    1118:	00056e80 	call	56e8 <alt_io_redirect>
  /* 
   * Call the C++ constructors 
   */

  ALT_LOG_PRINT_BOOT("[alt_main.c] Calling C++ constructors.\r\n");
  _do_ctors ();
    111c:	00053e40 	call	53e4 <_do_ctors>
   * redefined as _exit()). This is in the interest of reducing code footprint,
   * in that the atexit() overhead is removed when it's not needed.
   */

  ALT_LOG_PRINT_BOOT("[alt_main.c] Calling atexit.\r\n");
  atexit (_do_dtors);
    1120:	01000034 	movhi	r4,0
    1124:	21151104 	addi	r4,r4,21572
    1128:	0006a800 	call	6a80 <atexit>
  ALT_LOG_PRINT_BOOT("[alt_main.c] Calling main.\r\n");

#ifdef ALT_NO_EXIT
  main (alt_argc, alt_argv, alt_envp);
#else
  result = main (alt_argc, alt_argv, alt_envp);
    112c:	d0a69a17 	ldw	r2,-26008(gp)
    1130:	d0e69b17 	ldw	r3,-26004(gp)
    1134:	d1269c17 	ldw	r4,-26000(gp)
    1138:	200d883a 	mov	r6,r4
    113c:	180b883a 	mov	r5,r3
    1140:	1009883a 	mov	r4,r2
    1144:	00002940 	call	294 <main>
    1148:	e0bfff15 	stw	r2,-4(fp)
  close(STDOUT_FILENO);
    114c:	01000044 	movi	r4,1
    1150:	00051480 	call	5148 <close>
  exit (result);
    1154:	e13fff17 	ldw	r4,-4(fp)
    1158:	0006a940 	call	6a94 <exit>

0000115c <alt_dev_reg>:
 */

extern int alt_fs_reg  (alt_dev* dev); 

static ALT_INLINE int alt_dev_reg (alt_dev* dev)
{
    115c:	defffd04 	addi	sp,sp,-12
    1160:	dfc00215 	stw	ra,8(sp)
    1164:	df000115 	stw	fp,4(sp)
    1168:	df000104 	addi	fp,sp,4
    116c:	e13fff15 	stw	r4,-4(fp)
  extern alt_llist alt_dev_list;

  return alt_dev_llist_insert ((alt_dev_llist*) dev, &alt_dev_list);
    1170:	d1600204 	addi	r5,gp,-32760
    1174:	e13fff17 	ldw	r4,-4(fp)
    1178:	00053400 	call	5340 <alt_dev_llist_insert>
}
    117c:	e037883a 	mov	sp,fp
    1180:	dfc00117 	ldw	ra,4(sp)
    1184:	df000017 	ldw	fp,0(sp)
    1188:	dec00204 	addi	sp,sp,8
    118c:	f800283a 	ret

00001190 <alt_irq_init>:
 * The "base" parameter is ignored and only
 * present for backwards-compatibility.
 */

void alt_irq_init ( const void* base )
{
    1190:	defffd04 	addi	sp,sp,-12
    1194:	dfc00215 	stw	ra,8(sp)
    1198:	df000115 	stw	fp,4(sp)
    119c:	df000104 	addi	fp,sp,4
    11a0:	e13fff15 	stw	r4,-4(fp)
    ALTERA_NIOS2_GEN2_IRQ_INIT ( CPU, cpu);
    11a4:	0005d400 	call	5d40 <altera_nios2_gen2_irq_init>
 * alt_irq_cpu_enable_interrupts() enables the CPU to start taking interrupts.
 */
static ALT_INLINE void ALT_ALWAYS_INLINE 
       alt_irq_cpu_enable_interrupts (void)
{
    NIOS2_WRITE_STATUS(NIOS2_STATUS_PIE_MSK
    11a8:	00800044 	movi	r2,1
    11ac:	1001703a 	wrctl	status,r2
    alt_irq_cpu_enable_interrupts();
}
    11b0:	0001883a 	nop
    11b4:	e037883a 	mov	sp,fp
    11b8:	dfc00117 	ldw	ra,4(sp)
    11bc:	df000017 	ldw	fp,0(sp)
    11c0:	dec00204 	addi	sp,sp,8
    11c4:	f800283a 	ret

000011c8 <alt_sys_init>:
 * Initialize the non-interrupt controller devices.
 * Called after alt_irq_init().
 */

void alt_sys_init( void )
{
    11c8:	defffd04 	addi	sp,sp,-12
    11cc:	dfc00215 	stw	ra,8(sp)
    11d0:	df000115 	stw	fp,4(sp)
    11d4:	df000104 	addi	fp,sp,4
    ALTERA_AVALON_TIMER_INIT ( TIMER, timer);
    11d8:	01c0fa04 	movi	r7,1000
    11dc:	000d883a 	mov	r6,zero
    11e0:	000b883a 	mov	r5,zero
    11e4:	01040034 	movhi	r4,4096
    11e8:	21040804 	addi	r4,r4,4128
    11ec:	0003d580 	call	3d58 <alt_avalon_timer_sc_init>
    ALTERA_AVALON_CFI_FLASH_INIT ( FLASH_CONTROLLER, flash_controller);
    11f0:	01000034 	movhi	r4,0
    11f4:	211cc904 	addi	r4,r4,29476
    11f8:	00015d00 	call	15d0 <alt_flash_cfi_init>
    ALTERA_AVALON_JTAG_UART_INIT ( JTAG_UART, jtag_uart);
    11fc:	01800204 	movi	r6,8
    1200:	000b883a 	mov	r5,zero
    1204:	01000034 	movhi	r4,0
    1208:	211d0a04 	addi	r4,r4,29736
    120c:	00033e00 	call	33e0 <altera_avalon_jtag_uart_init>
    1210:	01000034 	movhi	r4,0
    1214:	211d0004 	addi	r4,r4,29696
    1218:	000115c0 	call	115c <alt_dev_reg>
    ALTERA_AVALON_PERFORMANCE_COUNTER_INIT ( PERFORMANCE_COUNTER, performance_counter);
    121c:	00c00044 	movi	r3,1
    1220:	00840034 	movhi	r2,4096
    1224:	10842004 	addi	r2,r2,4224
    1228:	10c00035 	stwio	r3,0(r2)
    ALTERA_AVALON_SYSID_QSYS_INIT ( SYSID, sysid);
    122c:	0001883a 	nop
    ALTERA_UP_AVALON_AUDIO_AND_VIDEO_CONFIG_INIT ( AUDIO_CONFIG, audio_config);
    1230:	01000074 	movhi	r4,1
    1234:	21211804 	addi	r4,r4,-31648
    1238:	000115c0 	call	115c <alt_dev_reg>
    ALTERA_UP_AVALON_AUDIO_INIT ( AUDIO, audio);
    123c:	01000074 	movhi	r4,1
    1240:	21212404 	addi	r4,r4,-31600
    1244:	000115c0 	call	115c <alt_dev_reg>
    ALTERA_UP_AVALON_CHARACTER_LCD_INIT ( CHAR_LCD, char_lcd);
    1248:	01000074 	movhi	r4,1
    124c:	21213004 	addi	r4,r4,-31552
    1250:	0003e800 	call	3e80 <alt_up_character_lcd_init>
    1254:	01000074 	movhi	r4,1
    1258:	21213004 	addi	r4,r4,-31552
    125c:	000115c0 	call	115c <alt_dev_reg>
    ALTERA_UP_AVALON_PARALLEL_PORT_INIT ( GREEN_LEDS, green_leds);
    1260:	01000074 	movhi	r4,1
    1264:	21213b04 	addi	r4,r4,-31508
    1268:	000115c0 	call	115c <alt_dev_reg>
    ALTERA_UP_AVALON_PARALLEL_PORT_INIT ( HEX3_HEX0, HEX3_HEX0);
    126c:	01000074 	movhi	r4,1
    1270:	21214604 	addi	r4,r4,-31464
    1274:	000115c0 	call	115c <alt_dev_reg>
    ALTERA_UP_AVALON_PARALLEL_PORT_INIT ( HEX7_HEX4, HEX7_HEX4);
    1278:	01000074 	movhi	r4,1
    127c:	21215104 	addi	r4,r4,-31420
    1280:	000115c0 	call	115c <alt_dev_reg>
    ALTERA_UP_AVALON_PARALLEL_PORT_INIT ( PUSHBUTTONS, pushbuttons);
    1284:	01000074 	movhi	r4,1
    1288:	21215c04 	addi	r4,r4,-31376
    128c:	000115c0 	call	115c <alt_dev_reg>
    ALTERA_UP_AVALON_PARALLEL_PORT_INIT ( RED_LEDS, red_leds);
    1290:	01000074 	movhi	r4,1
    1294:	21216704 	addi	r4,r4,-31332
    1298:	000115c0 	call	115c <alt_dev_reg>
    ALTERA_UP_AVALON_PARALLEL_PORT_INIT ( SWITCHES, switches);
    129c:	01000074 	movhi	r4,1
    12a0:	21217204 	addi	r4,r4,-31288
    12a4:	000115c0 	call	115c <alt_dev_reg>
    ALTERA_UP_AVALON_PS2_INIT ( PS2_KEY, ps2_key);
    12a8:	01000074 	movhi	r4,1
    12ac:	21217d04 	addi	r4,r4,-31244
    12b0:	00043e80 	call	43e8 <alt_up_ps2_init>
    12b4:	01000074 	movhi	r4,1
    12b8:	21217d04 	addi	r4,r4,-31244
    12bc:	000115c0 	call	115c <alt_dev_reg>
    ALTERA_UP_AVALON_PS2_INIT ( PS2_MOUSE, ps2_mouse);
    12c0:	01000074 	movhi	r4,1
    12c4:	21218b04 	addi	r4,r4,-31188
    12c8:	00043e80 	call	43e8 <alt_up_ps2_init>
    12cc:	01000074 	movhi	r4,1
    12d0:	21218b04 	addi	r4,r4,-31188
    12d4:	000115c0 	call	115c <alt_dev_reg>
    ALTERA_UP_AVALON_RS232_INIT ( SERIAL_PORT, serial_port);
    12d8:	01000074 	movhi	r4,1
    12dc:	21219904 	addi	r4,r4,-31132
    12e0:	000115c0 	call	115c <alt_dev_reg>
    ALTERA_UP_AVALON_VIDEO_CHARACTER_BUFFER_WITH_DMA_INIT ( MTL_CHAR_BUFFER, mtl_char_buffer);
    12e4:	00800074 	movhi	r2,1
    12e8:	10a1a404 	addi	r2,r2,-31088
    12ec:	10800a17 	ldw	r2,40(r2)
    12f0:	10800104 	addi	r2,r2,4
    12f4:	10800017 	ldw	r2,0(r2)
    12f8:	10ffffcc 	andi	r3,r2,65535
    12fc:	00800074 	movhi	r2,1
    1300:	10a1a404 	addi	r2,r2,-31088
    1304:	10c00c15 	stw	r3,48(r2)
    1308:	00800074 	movhi	r2,1
    130c:	10a1a404 	addi	r2,r2,-31088
    1310:	10800a17 	ldw	r2,40(r2)
    1314:	10800104 	addi	r2,r2,4
    1318:	10800017 	ldw	r2,0(r2)
    131c:	1006d43a 	srli	r3,r2,16
    1320:	00800074 	movhi	r2,1
    1324:	10a1a404 	addi	r2,r2,-31088
    1328:	10c00d15 	stw	r3,52(r2)
    132c:	00800074 	movhi	r2,1
    1330:	10a1a404 	addi	r2,r2,-31088
    1334:	10800c17 	ldw	r2,48(r2)
    1338:	10801068 	cmpgeui	r2,r2,65
    133c:	1000081e 	bne	r2,zero,1360 <alt_sys_init+0x198>
    1340:	00800074 	movhi	r2,1
    1344:	10a1a404 	addi	r2,r2,-31088
    1348:	00c00fc4 	movi	r3,63
    134c:	10c00f15 	stw	r3,60(r2)
    1350:	00800074 	movhi	r2,1
    1354:	10a1a404 	addi	r2,r2,-31088
    1358:	00c00184 	movi	r3,6
    135c:	10c01015 	stw	r3,64(r2)
    1360:	00800074 	movhi	r2,1
    1364:	10a1a404 	addi	r2,r2,-31088
    1368:	10800d17 	ldw	r2,52(r2)
    136c:	10800868 	cmpgeui	r2,r2,33
    1370:	1000041e 	bne	r2,zero,1384 <alt_sys_init+0x1bc>
    1374:	00800074 	movhi	r2,1
    1378:	10a1a404 	addi	r2,r2,-31088
    137c:	00c007c4 	movi	r3,31
    1380:	10c01115 	stw	r3,68(r2)
    1384:	01000074 	movhi	r4,1
    1388:	2121a404 	addi	r4,r4,-31088
    138c:	0004d000 	call	4d00 <alt_up_char_buffer_init>
    1390:	01000074 	movhi	r4,1
    1394:	2121a404 	addi	r4,r4,-31088
    1398:	000115c0 	call	115c <alt_dev_reg>
    ALTERA_UP_AVALON_VIDEO_PIXEL_BUFFER_DMA_INIT ( MTL_PIXEL_BUFFER_DMA, mtl_pixel_buffer_dma);
    139c:	00800074 	movhi	r2,1
    13a0:	10a1b604 	addi	r2,r2,-31016
    13a4:	10800a17 	ldw	r2,40(r2)
    13a8:	10800017 	ldw	r2,0(r2)
    13ac:	1007883a 	mov	r3,r2
    13b0:	00800074 	movhi	r2,1
    13b4:	10a1b604 	addi	r2,r2,-31016
    13b8:	10c00b15 	stw	r3,44(r2)
    13bc:	00800074 	movhi	r2,1
    13c0:	10a1b604 	addi	r2,r2,-31016
    13c4:	10800a17 	ldw	r2,40(r2)
    13c8:	10800104 	addi	r2,r2,4
    13cc:	10800017 	ldw	r2,0(r2)
    13d0:	1007883a 	mov	r3,r2
    13d4:	00800074 	movhi	r2,1
    13d8:	10a1b604 	addi	r2,r2,-31016
    13dc:	10c00c15 	stw	r3,48(r2)
    13e0:	00800074 	movhi	r2,1
    13e4:	10a1b604 	addi	r2,r2,-31016
    13e8:	10800a17 	ldw	r2,40(r2)
    13ec:	10800204 	addi	r2,r2,8
    13f0:	10800017 	ldw	r2,0(r2)
    13f4:	10ffffcc 	andi	r3,r2,65535
    13f8:	00800074 	movhi	r2,1
    13fc:	10a1b604 	addi	r2,r2,-31016
    1400:	10c00f15 	stw	r3,60(r2)
    1404:	00800074 	movhi	r2,1
    1408:	10a1b604 	addi	r2,r2,-31016
    140c:	10800a17 	ldw	r2,40(r2)
    1410:	10800204 	addi	r2,r2,8
    1414:	10800017 	ldw	r2,0(r2)
    1418:	1006d43a 	srli	r3,r2,16
    141c:	00800074 	movhi	r2,1
    1420:	10a1b604 	addi	r2,r2,-31016
    1424:	10c01015 	stw	r3,64(r2)
    1428:	00800074 	movhi	r2,1
    142c:	10a1b604 	addi	r2,r2,-31016
    1430:	10800a17 	ldw	r2,40(r2)
    1434:	10800304 	addi	r2,r2,12
    1438:	10800017 	ldw	r2,0(r2)
    143c:	1005d07a 	srai	r2,r2,1
    1440:	10c0004c 	andi	r3,r2,1
    1444:	00800074 	movhi	r2,1
    1448:	10a1b604 	addi	r2,r2,-31016
    144c:	10c00d15 	stw	r3,52(r2)
    1450:	00800074 	movhi	r2,1
    1454:	10a1b604 	addi	r2,r2,-31016
    1458:	10800a17 	ldw	r2,40(r2)
    145c:	10800304 	addi	r2,r2,12
    1460:	10800017 	ldw	r2,0(r2)
    1464:	1005d13a 	srai	r2,r2,4
    1468:	10c003cc 	andi	r3,r2,15
    146c:	00800074 	movhi	r2,1
    1470:	10a1b604 	addi	r2,r2,-31016
    1474:	10c00e15 	stw	r3,56(r2)
    1478:	00800074 	movhi	r2,1
    147c:	10a1b604 	addi	r2,r2,-31016
    1480:	10800a17 	ldw	r2,40(r2)
    1484:	10800304 	addi	r2,r2,12
    1488:	10800017 	ldw	r2,0(r2)
    148c:	1005d43a 	srai	r2,r2,16
    1490:	e0bfff05 	stb	r2,-4(fp)
    1494:	00800074 	movhi	r2,1
    1498:	10a1b604 	addi	r2,r2,-31016
    149c:	10800a17 	ldw	r2,40(r2)
    14a0:	10800304 	addi	r2,r2,12
    14a4:	10800017 	ldw	r2,0(r2)
    14a8:	1004d63a 	srli	r2,r2,24
    14ac:	e0bfff45 	stb	r2,-3(fp)
    14b0:	00800074 	movhi	r2,1
    14b4:	10a1b604 	addi	r2,r2,-31016
    14b8:	10800e17 	ldw	r2,56(r2)
    14bc:	10800058 	cmpnei	r2,r2,1
    14c0:	1000041e 	bne	r2,zero,14d4 <alt_sys_init+0x30c>
    14c4:	00800074 	movhi	r2,1
    14c8:	10a1b604 	addi	r2,r2,-31016
    14cc:	10001115 	stw	zero,68(r2)
    14d0:	00000e06 	br	150c <alt_sys_init+0x344>
    14d4:	00800074 	movhi	r2,1
    14d8:	10a1b604 	addi	r2,r2,-31016
    14dc:	10800e17 	ldw	r2,56(r2)
    14e0:	10800098 	cmpnei	r2,r2,2
    14e4:	1000051e 	bne	r2,zero,14fc <alt_sys_init+0x334>
    14e8:	00800074 	movhi	r2,1
    14ec:	10a1b604 	addi	r2,r2,-31016
    14f0:	00c00044 	movi	r3,1
    14f4:	10c01115 	stw	r3,68(r2)
    14f8:	00000406 	br	150c <alt_sys_init+0x344>
    14fc:	00800074 	movhi	r2,1
    1500:	10a1b604 	addi	r2,r2,-31016
    1504:	00c00084 	movi	r3,2
    1508:	10c01115 	stw	r3,68(r2)
    150c:	e0bfff03 	ldbu	r2,-4(fp)
    1510:	00c00804 	movi	r3,32
    1514:	1885c83a 	sub	r2,r3,r2
    1518:	00ffffc4 	movi	r3,-1
    151c:	1886d83a 	srl	r3,r3,r2
    1520:	00800074 	movhi	r2,1
    1524:	10a1b604 	addi	r2,r2,-31016
    1528:	10c01215 	stw	r3,72(r2)
    152c:	e0ffff03 	ldbu	r3,-4(fp)
    1530:	00800074 	movhi	r2,1
    1534:	10a1b604 	addi	r2,r2,-31016
    1538:	10801117 	ldw	r2,68(r2)
    153c:	1887883a 	add	r3,r3,r2
    1540:	00800074 	movhi	r2,1
    1544:	10a1b604 	addi	r2,r2,-31016
    1548:	10c01315 	stw	r3,76(r2)
    154c:	e0bfff43 	ldbu	r2,-3(fp)
    1550:	00c00804 	movi	r3,32
    1554:	1885c83a 	sub	r2,r3,r2
    1558:	00ffffc4 	movi	r3,-1
    155c:	1886d83a 	srl	r3,r3,r2
    1560:	00800074 	movhi	r2,1
    1564:	10a1b604 	addi	r2,r2,-31016
    1568:	10c01415 	stw	r3,80(r2)
    156c:	01000074 	movhi	r4,1
    1570:	2121b604 	addi	r4,r4,-31016
    1574:	000115c0 	call	115c <alt_dev_reg>
    ALTERA_UP_SD_CARD_AVALON_INTERFACE_INIT ( SD_CARD, SD_Card);
    1578:	01000074 	movhi	r4,1
    157c:	2121cb04 	addi	r4,r4,-30932
    1580:	000115c0 	call	115c <alt_dev_reg>
}
    1584:	0001883a 	nop
    1588:	e037883a 	mov	sp,fp
    158c:	dfc00117 	ldw	ra,4(sp)
    1590:	df000017 	ldw	fp,0(sp)
    1594:	dec00204 	addi	sp,sp,8
    1598:	f800283a 	ret

0000159c <alt_flash_device_register>:

typedef struct alt_flash_dev alt_flash_dev; 
typedef alt_flash_dev alt_flash_fd;

static ALT_INLINE int alt_flash_device_register( alt_flash_fd* fd)
{
    159c:	defffd04 	addi	sp,sp,-12
    15a0:	dfc00215 	stw	ra,8(sp)
    15a4:	df000115 	stw	fp,4(sp)
    15a8:	df000104 	addi	fp,sp,4
    15ac:	e13fff15 	stw	r4,-4(fp)
  extern alt_llist alt_flash_dev_list;

  return alt_dev_llist_insert ((alt_dev_llist*) fd, &alt_flash_dev_list);
    15b0:	d1600604 	addi	r5,gp,-32744
    15b4:	e13fff17 	ldw	r4,-4(fp)
    15b8:	00053400 	call	5340 <alt_dev_llist_insert>
}
    15bc:	e037883a 	mov	sp,fp
    15c0:	dfc00117 	ldw	ra,4(sp)
    15c4:	df000017 	ldw	fp,0(sp)
    15c8:	dec00204 	addi	sp,sp,8
    15cc:	f800283a 	ret

000015d0 <alt_flash_cfi_init>:
 * Read the CFI table and fill out the alt_flash_cfi_dev structure with all the 
 * information we need to program the flash.
 * 
 */
int alt_flash_cfi_init( alt_flash_cfi_dev* flash  )
{
    15d0:	defffc04 	addi	sp,sp,-16
    15d4:	dfc00315 	stw	ra,12(sp)
    15d8:	df000215 	stw	fp,8(sp)
    15dc:	df000204 	addi	fp,sp,8
    15e0:	e13fff15 	stw	r4,-4(fp)
  int ret_code = 0;
    15e4:	e03ffe15 	stw	zero,-8(fp)
 
  ret_code = alt_read_cfi_width( flash );
    15e8:	e13fff17 	ldw	r4,-4(fp)
    15ec:	0002a340 	call	2a34 <alt_read_cfi_width>
    15f0:	e0bffe15 	stw	r2,-8(fp)
  
  if (!ret_code)
    15f4:	e0bffe17 	ldw	r2,-8(fp)
    15f8:	1000031e 	bne	r2,zero,1608 <alt_flash_cfi_init+0x38>
    ret_code = alt_set_flash_width_func( flash );
    15fc:	e13fff17 	ldw	r4,-4(fp)
    1600:	000218c0 	call	218c <alt_set_flash_width_func>
    1604:	e0bffe15 	stw	r2,-8(fp)
  
  if (!ret_code)
    1608:	e0bffe17 	ldw	r2,-8(fp)
    160c:	1000031e 	bne	r2,zero,161c <alt_flash_cfi_init+0x4c>
    ret_code = alt_read_cfi_table( flash );
    1610:	e13fff17 	ldw	r4,-4(fp)
    1614:	000246c0 	call	246c <alt_read_cfi_table>
    1618:	e0bffe15 	stw	r2,-8(fp)

  if (!ret_code) 
    161c:	e0bffe17 	ldw	r2,-8(fp)
    1620:	1000031e 	bne	r2,zero,1630 <alt_flash_cfi_init+0x60>
    ret_code = alt_set_flash_algorithm_func( flash);
    1624:	e13fff17 	ldw	r4,-4(fp)
    1628:	00023500 	call	2350 <alt_set_flash_algorithm_func>
    162c:	e0bffe15 	stw	r2,-8(fp)

  /*
  *  Register this device as a valid flash device type
  */ 
  if (!ret_code)
    1630:	e0bffe17 	ldw	r2,-8(fp)
    1634:	1000041e 	bne	r2,zero,1648 <alt_flash_cfi_init+0x78>
    ret_code = alt_flash_device_register(&(flash->dev));
    1638:	e0bfff17 	ldw	r2,-4(fp)
    163c:	1009883a 	mov	r4,r2
    1640:	000159c0 	call	159c <alt_flash_device_register>
    1644:	e0bffe15 	stw	r2,-8(fp)
 
  return ret_code;
    1648:	e0bffe17 	ldw	r2,-8(fp)
}
    164c:	e037883a 	mov	sp,fp
    1650:	dfc00117 	ldw	ra,4(sp)
    1654:	df000017 	ldw	fp,0(sp)
    1658:	dec00204 	addi	sp,sp,8
    165c:	f800283a 	ret

00001660 <alt_flash_cfi_write>:
 * large buffer to tie up in our programming library, when not all users will 
 * want that functionality.
 */
 int alt_flash_cfi_write( alt_flash_dev* flash_info, int offset, 
                          const void* src_addr, int length )
 {
    1660:	defff104 	addi	sp,sp,-60
    1664:	dfc00e15 	stw	ra,56(sp)
    1668:	df000d15 	stw	fp,52(sp)
    166c:	df000d04 	addi	fp,sp,52
    1670:	e13ffc15 	stw	r4,-16(fp)
    1674:	e17ffd15 	stw	r5,-12(fp)
    1678:	e1bffe15 	stw	r6,-8(fp)
    167c:	e1ffff15 	stw	r7,-4(fp)
  int         ret_code = 0;
    1680:	e03ff415 	stw	zero,-48(fp)
  int         i,j;
  int         data_to_write;
  int         full_length = length;
    1684:	e0bfff17 	ldw	r2,-4(fp)
    1688:	e0bff815 	stw	r2,-32(fp)
  int         current_offset;
  int         start_offset = offset;
    168c:	e0bffd17 	ldw	r2,-12(fp)
    1690:	e0bff915 	stw	r2,-28(fp)
  alt_flash_cfi_dev* flash = (alt_flash_cfi_dev*)flash_info;
    1694:	e0bffc17 	ldw	r2,-16(fp)
    1698:	e0bffa15 	stw	r2,-24(fp)

  /*
   * First and foremost which sectors are affected?
   */   
  for(i=0;i<flash->dev.number_of_regions;i++)
    169c:	e03ff515 	stw	zero,-44(fp)
    16a0:	00008706 	br	18c0 <alt_flash_cfi_write+0x260>
  {
    /* Is it in this erase block region?*/
    if((offset >= flash->dev.region_info[i].offset) &&
    16a4:	e0fffa17 	ldw	r3,-24(fp)
    16a8:	e0bff517 	ldw	r2,-44(fp)
    16ac:	1004913a 	slli	r2,r2,4
    16b0:	1885883a 	add	r2,r3,r2
    16b4:	10800d04 	addi	r2,r2,52
    16b8:	10800017 	ldw	r2,0(r2)
    16bc:	e0fffd17 	ldw	r3,-12(fp)
    16c0:	18807c16 	blt	r3,r2,18b4 <alt_flash_cfi_write+0x254>
      (offset < (flash->dev.region_info[i].offset + 
    16c4:	e0fffa17 	ldw	r3,-24(fp)
    16c8:	e0bff517 	ldw	r2,-44(fp)
    16cc:	1004913a 	slli	r2,r2,4
    16d0:	1885883a 	add	r2,r3,r2
    16d4:	10800d04 	addi	r2,r2,52
    16d8:	10c00017 	ldw	r3,0(r2)
      flash->dev.region_info[i].region_size)))
    16dc:	e13ffa17 	ldw	r4,-24(fp)
    16e0:	e0bff517 	ldw	r2,-44(fp)
    16e4:	1004913a 	slli	r2,r2,4
    16e8:	2085883a 	add	r2,r4,r2
    16ec:	10800e04 	addi	r2,r2,56
    16f0:	10800017 	ldw	r2,0(r2)
   */   
  for(i=0;i<flash->dev.number_of_regions;i++)
  {
    /* Is it in this erase block region?*/
    if((offset >= flash->dev.region_info[i].offset) &&
      (offset < (flash->dev.region_info[i].offset + 
    16f4:	1885883a 	add	r2,r3,r2
   * First and foremost which sectors are affected?
   */   
  for(i=0;i<flash->dev.number_of_regions;i++)
  {
    /* Is it in this erase block region?*/
    if((offset >= flash->dev.region_info[i].offset) &&
    16f8:	e0fffd17 	ldw	r3,-12(fp)
    16fc:	18806d0e 	bge	r3,r2,18b4 <alt_flash_cfi_write+0x254>
      (offset < (flash->dev.region_info[i].offset + 
      flash->dev.region_info[i].region_size)))
    {
      current_offset = flash->dev.region_info[i].offset;
    1700:	e0fffa17 	ldw	r3,-24(fp)
    1704:	e0bff517 	ldw	r2,-44(fp)
    1708:	1004913a 	slli	r2,r2,4
    170c:	1885883a 	add	r2,r3,r2
    1710:	10800d04 	addi	r2,r2,52
    1714:	10800017 	ldw	r2,0(r2)
    1718:	e0bff715 	stw	r2,-36(fp)

      for(j=0;j<flash->dev.region_info[i].number_of_blocks;j++)
    171c:	e03ff615 	stw	zero,-40(fp)
    1720:	00005c06 	br	1894 <alt_flash_cfi_write+0x234>
      {
        if ((offset >= current_offset ) && 
    1724:	e0fffd17 	ldw	r3,-12(fp)
    1728:	e0bff717 	ldw	r2,-36(fp)
    172c:	18804d16 	blt	r3,r2,1864 <alt_flash_cfi_write+0x204>
            (offset < (current_offset + 
            flash->dev.region_info[i].block_size)))
    1730:	e0fffa17 	ldw	r3,-24(fp)
    1734:	e0bff517 	ldw	r2,-44(fp)
    1738:	10800104 	addi	r2,r2,4
    173c:	1004913a 	slli	r2,r2,4
    1740:	1885883a 	add	r2,r3,r2
    1744:	10c00017 	ldw	r3,0(r2)
      current_offset = flash->dev.region_info[i].offset;

      for(j=0;j<flash->dev.region_info[i].number_of_blocks;j++)
      {
        if ((offset >= current_offset ) && 
            (offset < (current_offset + 
    1748:	e0bff717 	ldw	r2,-36(fp)
    174c:	1885883a 	add	r2,r3,r2
    {
      current_offset = flash->dev.region_info[i].offset;

      for(j=0;j<flash->dev.region_info[i].number_of_blocks;j++)
      {
        if ((offset >= current_offset ) && 
    1750:	e0fffd17 	ldw	r3,-12(fp)
    1754:	1880430e 	bge	r3,r2,1864 <alt_flash_cfi_write+0x204>
        {
          /*
           * Check if the contents of the block are different
           * from the data we wish to put there
           */
          data_to_write = ( current_offset + flash->dev.region_info[i].block_size 
    1758:	e0fffa17 	ldw	r3,-24(fp)
    175c:	e0bff517 	ldw	r2,-44(fp)
    1760:	10800104 	addi	r2,r2,4
    1764:	1004913a 	slli	r2,r2,4
    1768:	1885883a 	add	r2,r3,r2
    176c:	10c00017 	ldw	r3,0(r2)
    1770:	e0bff717 	ldw	r2,-36(fp)
    1774:	1887883a 	add	r3,r3,r2
    1778:	e0bffd17 	ldw	r2,-12(fp)
    177c:	1885c83a 	sub	r2,r3,r2
    1780:	e0bffb15 	stw	r2,-20(fp)
                            - offset); 
          data_to_write = MIN(data_to_write, length);
    1784:	e0fffb17 	ldw	r3,-20(fp)
    1788:	e0bfff17 	ldw	r2,-4(fp)
    178c:	1880010e 	bge	r3,r2,1794 <alt_flash_cfi_write+0x134>
    1790:	1805883a 	mov	r2,r3
    1794:	e0bffb15 	stw	r2,-20(fp)
          if(memcmp(src_addr, 
                    (alt_u8*)flash->dev.base_addr+offset,
    1798:	e0bffa17 	ldw	r2,-24(fp)
    179c:	10c00a17 	ldw	r3,40(r2)
           * from the data we wish to put there
           */
          data_to_write = ( current_offset + flash->dev.region_info[i].block_size 
                            - offset); 
          data_to_write = MIN(data_to_write, length);
          if(memcmp(src_addr, 
    17a0:	e0bffd17 	ldw	r2,-12(fp)
    17a4:	1885883a 	add	r2,r3,r2
    17a8:	e0fffb17 	ldw	r3,-20(fp)
    17ac:	180d883a 	mov	r6,r3
    17b0:	100b883a 	mov	r5,r2
    17b4:	e13ffe17 	ldw	r4,-8(fp)
    17b8:	0006acc0 	call	6acc <memcmp>
    17bc:	10001326 	beq	r2,zero,180c <alt_flash_cfi_write+0x1ac>
                    (alt_u8*)flash->dev.base_addr+offset,
                    data_to_write))
          {
            ret_code = (*flash->dev.erase_block)( &flash->dev, current_offset);
    17c0:	e0bffa17 	ldw	r2,-24(fp)
    17c4:	10800817 	ldw	r2,32(r2)
    17c8:	e0fffa17 	ldw	r3,-24(fp)
    17cc:	e17ff717 	ldw	r5,-36(fp)
    17d0:	1809883a 	mov	r4,r3
    17d4:	103ee83a 	callr	r2
    17d8:	e0bff415 	stw	r2,-48(fp)

            if (!ret_code)
    17dc:	e0bff417 	ldw	r2,-48(fp)
    17e0:	10000a1e 	bne	r2,zero,180c <alt_flash_cfi_write+0x1ac>
            {
              ret_code = (*flash->dev.write_block)( 
    17e4:	e0bffa17 	ldw	r2,-24(fp)
    17e8:	10800917 	ldw	r2,36(r2)
    17ec:	e13ffa17 	ldw	r4,-24(fp)
    17f0:	e0fffb17 	ldw	r3,-20(fp)
    17f4:	d8c00015 	stw	r3,0(sp)
    17f8:	e1fffe17 	ldw	r7,-8(fp)
    17fc:	e1bffd17 	ldw	r6,-12(fp)
    1800:	e17ff717 	ldw	r5,-36(fp)
    1804:	103ee83a 	callr	r2
    1808:	e0bff415 	stw	r2,-48(fp)
                                                  data_to_write);
            }
          }    
    
          /* Was this the last block? */    
          if ((length == data_to_write) || ret_code)
    180c:	e0ffff17 	ldw	r3,-4(fp)
    1810:	e0bffb17 	ldw	r2,-20(fp)
    1814:	18802e26 	beq	r3,r2,18d0 <alt_flash_cfi_write+0x270>
    1818:	e0bff417 	ldw	r2,-48(fp)
    181c:	10002c1e 	bne	r2,zero,18d0 <alt_flash_cfi_write+0x270>
          {
            goto finished;
          }
          
          length -= data_to_write;
    1820:	e0ffff17 	ldw	r3,-4(fp)
    1824:	e0bffb17 	ldw	r2,-20(fp)
    1828:	1885c83a 	sub	r2,r3,r2
    182c:	e0bfff15 	stw	r2,-4(fp)
          offset = current_offset + flash->dev.region_info[i].block_size;
    1830:	e0fffa17 	ldw	r3,-24(fp)
    1834:	e0bff517 	ldw	r2,-44(fp)
    1838:	10800104 	addi	r2,r2,4
    183c:	1004913a 	slli	r2,r2,4
    1840:	1885883a 	add	r2,r3,r2
    1844:	10c00017 	ldw	r3,0(r2)
    1848:	e0bff717 	ldw	r2,-36(fp)
    184c:	1885883a 	add	r2,r3,r2
    1850:	e0bffd15 	stw	r2,-12(fp)
          src_addr = (alt_u8*)src_addr + data_to_write;
    1854:	e0bffb17 	ldw	r2,-20(fp)
    1858:	e0fffe17 	ldw	r3,-8(fp)
    185c:	1885883a 	add	r2,r3,r2
    1860:	e0bffe15 	stw	r2,-8(fp)
        }
        current_offset += flash->dev.region_info[i].block_size;
    1864:	e0fffa17 	ldw	r3,-24(fp)
    1868:	e0bff517 	ldw	r2,-44(fp)
    186c:	10800104 	addi	r2,r2,4
    1870:	1004913a 	slli	r2,r2,4
    1874:	1885883a 	add	r2,r3,r2
    1878:	10800017 	ldw	r2,0(r2)
    187c:	e0fff717 	ldw	r3,-36(fp)
    1880:	1885883a 	add	r2,r3,r2
    1884:	e0bff715 	stw	r2,-36(fp)
      (offset < (flash->dev.region_info[i].offset + 
      flash->dev.region_info[i].region_size)))
    {
      current_offset = flash->dev.region_info[i].offset;

      for(j=0;j<flash->dev.region_info[i].number_of_blocks;j++)
    1888:	e0bff617 	ldw	r2,-40(fp)
    188c:	10800044 	addi	r2,r2,1
    1890:	e0bff615 	stw	r2,-40(fp)
    1894:	e0fffa17 	ldw	r3,-24(fp)
    1898:	e0bff517 	ldw	r2,-44(fp)
    189c:	1004913a 	slli	r2,r2,4
    18a0:	1885883a 	add	r2,r3,r2
    18a4:	10800f04 	addi	r2,r2,60
    18a8:	10800017 	ldw	r2,0(r2)
    18ac:	e0fff617 	ldw	r3,-40(fp)
    18b0:	18bf9c16 	blt	r3,r2,1724 <__alt_mem_onchip_memory+0xf7801724>
  alt_flash_cfi_dev* flash = (alt_flash_cfi_dev*)flash_info;

  /*
   * First and foremost which sectors are affected?
   */   
  for(i=0;i<flash->dev.number_of_regions;i++)
    18b4:	e0bff517 	ldw	r2,-44(fp)
    18b8:	10800044 	addi	r2,r2,1
    18bc:	e0bff515 	stw	r2,-44(fp)
    18c0:	e0bffa17 	ldw	r2,-24(fp)
    18c4:	10800c17 	ldw	r2,48(r2)
    18c8:	e0fff517 	ldw	r3,-44(fp)
    18cc:	18bf7516 	blt	r3,r2,16a4 <__alt_mem_onchip_memory+0xf78016a4>
      }     
    } 
  }
finished:    

  alt_dcache_flush((alt_u8*)flash->dev.base_addr+start_offset, full_length);
    18d0:	e0bffa17 	ldw	r2,-24(fp)
    18d4:	10c00a17 	ldw	r3,40(r2)
    18d8:	e0bff917 	ldw	r2,-28(fp)
    18dc:	1885883a 	add	r2,r3,r2
    18e0:	e0fff817 	ldw	r3,-32(fp)
    18e4:	180b883a 	mov	r5,r3
    18e8:	1009883a 	mov	r4,r2
    18ec:	00052180 	call	5218 <alt_dcache_flush>
  return ret_code;
    18f0:	e0bff417 	ldw	r2,-48(fp)
}
    18f4:	e037883a 	mov	sp,fp
    18f8:	dfc00117 	ldw	ra,4(sp)
    18fc:	df000017 	ldw	fp,0(sp)
    1900:	dec00204 	addi	sp,sp,8
    1904:	f800283a 	ret

00001908 <alt_flash_cfi_get_info>:
 * 
 *  Pass the table of erase blocks to the user
 */
int alt_flash_cfi_get_info( alt_flash_fd* fd, flash_region** info, 
                            int* number_of_regions)
{
    1908:	defffa04 	addi	sp,sp,-24
    190c:	df000515 	stw	fp,20(sp)
    1910:	df000504 	addi	fp,sp,20
    1914:	e13ffd15 	stw	r4,-12(fp)
    1918:	e17ffe15 	stw	r5,-8(fp)
    191c:	e1bfff15 	stw	r6,-4(fp)
  int ret_code = 0;
    1920:	e03ffb15 	stw	zero,-20(fp)
  alt_flash_dev* flash = (alt_flash_dev*)fd;
    1924:	e0bffd17 	ldw	r2,-12(fp)
    1928:	e0bffc15 	stw	r2,-16(fp)

  *number_of_regions = flash->number_of_regions;
    192c:	e0bffc17 	ldw	r2,-16(fp)
    1930:	10c00c17 	ldw	r3,48(r2)
    1934:	e0bfff17 	ldw	r2,-4(fp)
    1938:	10c00015 	stw	r3,0(r2)

  if (!flash->number_of_regions)
    193c:	e0bffc17 	ldw	r2,-16(fp)
    1940:	10800c17 	ldw	r2,48(r2)
    1944:	1000031e 	bne	r2,zero,1954 <alt_flash_cfi_get_info+0x4c>
  {
    ret_code = -EIO;
    1948:	00bffec4 	movi	r2,-5
    194c:	e0bffb15 	stw	r2,-20(fp)
    1950:	00000b06 	br	1980 <alt_flash_cfi_get_info+0x78>
  }
  else if (flash->number_of_regions > ALT_MAX_NUMBER_OF_FLASH_REGIONS)
    1954:	e0bffc17 	ldw	r2,-16(fp)
    1958:	10800c17 	ldw	r2,48(r2)
    195c:	10800250 	cmplti	r2,r2,9
    1960:	1000031e 	bne	r2,zero,1970 <alt_flash_cfi_get_info+0x68>
  {
    ret_code = -ENOMEM;
    1964:	00bffd04 	movi	r2,-12
    1968:	e0bffb15 	stw	r2,-20(fp)
    196c:	00000406 	br	1980 <alt_flash_cfi_get_info+0x78>
  }
  else
  {
    *info = &flash->region_info[0];
    1970:	e0bffc17 	ldw	r2,-16(fp)
    1974:	10c00d04 	addi	r3,r2,52
    1978:	e0bffe17 	ldw	r2,-8(fp)
    197c:	10c00015 	stw	r3,0(r2)
  }

  return ret_code;
    1980:	e0bffb17 	ldw	r2,-20(fp)
}
    1984:	e037883a 	mov	sp,fp
    1988:	df000017 	ldw	fp,0(sp)
    198c:	dec00104 	addi	sp,sp,4
    1990:	f800283a 	ret

00001994 <alt_flash_cfi_read>:
 *  Read from an area in flash, you could use memcopy yourself
 *  for these flash types, but we're trying to be generic and future proof
 */
int alt_flash_cfi_read( alt_flash_dev* flash_info, int offset, 
                        void* dest_addr, int length )
{
    1994:	defff904 	addi	sp,sp,-28
    1998:	dfc00615 	stw	ra,24(sp)
    199c:	df000515 	stw	fp,20(sp)
    19a0:	df000504 	addi	fp,sp,20
    19a4:	e13ffc15 	stw	r4,-16(fp)
    19a8:	e17ffd15 	stw	r5,-12(fp)
    19ac:	e1bffe15 	stw	r6,-8(fp)
    19b0:	e1ffff15 	stw	r7,-4(fp)
  alt_flash_cfi_dev* flash = (alt_flash_cfi_dev*)flash_info;
    19b4:	e0bffc17 	ldw	r2,-16(fp)
    19b8:	e0bffb15 	stw	r2,-20(fp)
  memcpy(dest_addr, (alt_u8*)flash->dev.base_addr+offset, length);
    19bc:	e0bffb17 	ldw	r2,-20(fp)
    19c0:	10c00a17 	ldw	r3,40(r2)
    19c4:	e0bffd17 	ldw	r2,-12(fp)
    19c8:	1885883a 	add	r2,r3,r2
    19cc:	e0ffff17 	ldw	r3,-4(fp)
    19d0:	180d883a 	mov	r6,r3
    19d4:	100b883a 	mov	r5,r2
    19d8:	e13ffe17 	ldw	r4,-8(fp)
    19dc:	0000eac0 	call	eac <memcpy>
  return 0;
    19e0:	0005883a 	mov	r2,zero
}
    19e4:	e037883a 	mov	sp,fp
    19e8:	dfc00117 	ldw	ra,4(sp)
    19ec:	df000017 	ldw	fp,0(sp)
    19f0:	dec00204 	addi	sp,sp,8
    19f4:	f800283a 	ret

000019f8 <alt_write_value_to_flash>:
* It writes the largest word size that the flash can support
* so if it's an 8 bit flash it writes bytes
* 16 bit half word etc.
*/
void alt_write_value_to_flash(alt_flash_cfi_dev* flash, int offset, const alt_u8* src_addr)
{
    19f8:	defffa04 	addi	sp,sp,-24
    19fc:	df000515 	stw	fp,20(sp)
    1a00:	df000504 	addi	fp,sp,20
    1a04:	e13ffd15 	stw	r4,-12(fp)
    1a08:	e17ffe15 	stw	r5,-8(fp)
    1a0c:	e1bfff15 	stw	r6,-4(fp)
  alt_u16 half_word_value;
  alt_u32 word_value;

  if (flash->mode_width == 1)
    1a10:	e0bffd17 	ldw	r2,-12(fp)
    1a14:	10802f17 	ldw	r2,188(r2)
    1a18:	10800058 	cmpnei	r2,r2,1
    1a1c:	1000091e 	bne	r2,zero,1a44 <alt_write_value_to_flash+0x4c>
  {
    IOWR_8DIRECT(flash->dev.base_addr, offset, *src_addr);
    1a20:	e0bffd17 	ldw	r2,-12(fp)
    1a24:	10c00a17 	ldw	r3,40(r2)
    1a28:	e0bffe17 	ldw	r2,-8(fp)
    1a2c:	1885883a 	add	r2,r3,r2
    1a30:	e0ffff17 	ldw	r3,-4(fp)
    1a34:	18c00003 	ldbu	r3,0(r3)
    1a38:	18c03fcc 	andi	r3,r3,255
    1a3c:	10c00025 	stbio	r3,0(r2)
    word_value |= ((alt_u32)(*(src_addr + 2)) << 16);
    word_value |= ((alt_u32)(*(src_addr + 3)) << 24);
    IOWR_32DIRECT(flash->dev.base_addr, offset, word_value);
  }

  return;
    1a40:	00003f06 	br	1b40 <alt_write_value_to_flash+0x148>

  if (flash->mode_width == 1)
  {
    IOWR_8DIRECT(flash->dev.base_addr, offset, *src_addr);
  }
  else if (flash->mode_width == 2)
    1a44:	e0bffd17 	ldw	r2,-12(fp)
    1a48:	10802f17 	ldw	r2,188(r2)
    1a4c:	10800098 	cmpnei	r2,r2,2
    1a50:	1000141e 	bne	r2,zero,1aa4 <alt_write_value_to_flash+0xac>
  {
    half_word_value = (alt_u16)(*src_addr);
    1a54:	e0bfff17 	ldw	r2,-4(fp)
    1a58:	10800003 	ldbu	r2,0(r2)
    1a5c:	10803fcc 	andi	r2,r2,255
    1a60:	e0bffb0d 	sth	r2,-20(fp)
    half_word_value |= (alt_u16)(*(src_addr + 1)) << 8;
    1a64:	e0bfff17 	ldw	r2,-4(fp)
    1a68:	10800044 	addi	r2,r2,1
    1a6c:	10800003 	ldbu	r2,0(r2)
    1a70:	10803fcc 	andi	r2,r2,255
    1a74:	1004923a 	slli	r2,r2,8
    1a78:	1007883a 	mov	r3,r2
    1a7c:	e0bffb0b 	ldhu	r2,-20(fp)
    1a80:	1884b03a 	or	r2,r3,r2
    1a84:	e0bffb0d 	sth	r2,-20(fp)
    IOWR_16DIRECT(flash->dev.base_addr, offset, half_word_value);
    1a88:	e0bffd17 	ldw	r2,-12(fp)
    1a8c:	10c00a17 	ldw	r3,40(r2)
    1a90:	e0bffe17 	ldw	r2,-8(fp)
    1a94:	1885883a 	add	r2,r3,r2
    1a98:	e0fffb0b 	ldhu	r3,-20(fp)
    1a9c:	10c0002d 	sthio	r3,0(r2)
    word_value |= ((alt_u32)(*(src_addr + 2)) << 16);
    word_value |= ((alt_u32)(*(src_addr + 3)) << 24);
    IOWR_32DIRECT(flash->dev.base_addr, offset, word_value);
  }

  return;
    1aa0:	00002706 	br	1b40 <alt_write_value_to_flash+0x148>
  {
    half_word_value = (alt_u16)(*src_addr);
    half_word_value |= (alt_u16)(*(src_addr + 1)) << 8;
    IOWR_16DIRECT(flash->dev.base_addr, offset, half_word_value);
  }
  else if (flash->mode_width == 4)
    1aa4:	e0bffd17 	ldw	r2,-12(fp)
    1aa8:	10802f17 	ldw	r2,188(r2)
    1aac:	10800118 	cmpnei	r2,r2,4
    1ab0:	1000231e 	bne	r2,zero,1b40 <alt_write_value_to_flash+0x148>
  {
    word_value = (alt_u32)(*src_addr);
    1ab4:	e0bfff17 	ldw	r2,-4(fp)
    1ab8:	10800003 	ldbu	r2,0(r2)
    1abc:	10803fcc 	andi	r2,r2,255
    1ac0:	e0bffc15 	stw	r2,-16(fp)
    word_value |= ((alt_u32)(*(src_addr + 1)) << 8);
    1ac4:	e0bfff17 	ldw	r2,-4(fp)
    1ac8:	10800044 	addi	r2,r2,1
    1acc:	10800003 	ldbu	r2,0(r2)
    1ad0:	10803fcc 	andi	r2,r2,255
    1ad4:	1004923a 	slli	r2,r2,8
    1ad8:	e0fffc17 	ldw	r3,-16(fp)
    1adc:	1884b03a 	or	r2,r3,r2
    1ae0:	e0bffc15 	stw	r2,-16(fp)
    word_value |= ((alt_u32)(*(src_addr + 2)) << 16);
    1ae4:	e0bfff17 	ldw	r2,-4(fp)
    1ae8:	10800084 	addi	r2,r2,2
    1aec:	10800003 	ldbu	r2,0(r2)
    1af0:	10803fcc 	andi	r2,r2,255
    1af4:	1004943a 	slli	r2,r2,16
    1af8:	e0fffc17 	ldw	r3,-16(fp)
    1afc:	1884b03a 	or	r2,r3,r2
    1b00:	e0bffc15 	stw	r2,-16(fp)
    word_value |= ((alt_u32)(*(src_addr + 3)) << 24);
    1b04:	e0bfff17 	ldw	r2,-4(fp)
    1b08:	108000c4 	addi	r2,r2,3
    1b0c:	10800003 	ldbu	r2,0(r2)
    1b10:	10803fcc 	andi	r2,r2,255
    1b14:	1004963a 	slli	r2,r2,24
    1b18:	e0fffc17 	ldw	r3,-16(fp)
    1b1c:	1884b03a 	or	r2,r3,r2
    1b20:	e0bffc15 	stw	r2,-16(fp)
    IOWR_32DIRECT(flash->dev.base_addr, offset, word_value);
    1b24:	e0bffd17 	ldw	r2,-12(fp)
    1b28:	10c00a17 	ldw	r3,40(r2)
    1b2c:	e0bffe17 	ldw	r2,-8(fp)
    1b30:	1885883a 	add	r2,r3,r2
    1b34:	e0fffc17 	ldw	r3,-16(fp)
    1b38:	10c00035 	stwio	r3,0(r2)
  }

  return;
    1b3c:	0001883a 	nop
    1b40:	0001883a 	nop
}
    1b44:	e037883a 	mov	sp,fp
    1b48:	df000017 	ldw	fp,0(sp)
    1b4c:	dec00104 	addi	sp,sp,4
    1b50:	f800283a 	ret

00001b54 <alt_flash_program_block>:
*/
int alt_flash_program_block(  alt_flash_cfi_dev* flash, const int offset, 
                        const alt_u8* src_addr, 
                        const int length,
                        alt_program_word_fn program_word_func)
{
    1b54:	defff304 	addi	sp,sp,-52
    1b58:	dfc00c15 	stw	ra,48(sp)
    1b5c:	df000b15 	stw	fp,44(sp)
    1b60:	df000b04 	addi	fp,sp,44
    1b64:	e13ffc15 	stw	r4,-16(fp)
    1b68:	e17ffd15 	stw	r5,-12(fp)
    1b6c:	e1bffe15 	stw	r6,-8(fp)
    1b70:	e1ffff15 	stw	r7,-4(fp)
  int     ret_code = 0;
    1b74:	e03ff515 	stw	zero,-44(fp)

  /*
   * First take care of any writes which are on none native boundaries
   * as far as the flash is concerned.
   */
  bytes_to_preserve = ((int)((alt_u8*)flash->dev.base_addr + offset) % 
    1b78:	e0bffc17 	ldw	r2,-16(fp)
    1b7c:	10c00a17 	ldw	r3,40(r2)
    1b80:	e0bffd17 	ldw	r2,-12(fp)
    1b84:	1885883a 	add	r2,r3,r2
    1b88:	1007883a 	mov	r3,r2
                      flash->mode_width);
    1b8c:	e0bffc17 	ldw	r2,-16(fp)
    1b90:	10802f17 	ldw	r2,188(r2)

  /*
   * First take care of any writes which are on none native boundaries
   * as far as the flash is concerned.
   */
  bytes_to_preserve = ((int)((alt_u8*)flash->dev.base_addr + offset) % 
    1b94:	100b883a 	mov	r5,r2
    1b98:	1809883a 	mov	r4,r3
    1b9c:	0006fd80 	call	6fd8 <__modsi3>
    1ba0:	e0bff815 	stw	r2,-32(fp)
                      flash->mode_width);
  if ( bytes_to_preserve != 0)
    1ba4:	e0bff817 	ldw	r2,-32(fp)
    1ba8:	10003b26 	beq	r2,zero,1c98 <alt_flash_program_block+0x144>
  {
    unaligned_bytes = flash->mode_width - bytes_to_preserve;
    1bac:	e0bffc17 	ldw	r2,-16(fp)
    1bb0:	10c02f17 	ldw	r3,188(r2)
    1bb4:	e0bff817 	ldw	r2,-32(fp)
    1bb8:	1885c83a 	sub	r2,r3,r2
    1bbc:	e0bff915 	stw	r2,-28(fp)
    /*
     * Read the bytes we wish to preserve out of flash
     */
    for (i=0;i<bytes_to_preserve;i++)
    1bc0:	e03ff615 	stw	zero,-40(fp)
    1bc4:	00001206 	br	1c10 <alt_flash_program_block+0xbc>
    {
      unaligned[i] = IORD_8DIRECT(flash->dev.base_addr, 
    1bc8:	e0bffc17 	ldw	r2,-16(fp)
    1bcc:	10800a17 	ldw	r2,40(r2)
    1bd0:	e13ffd17 	ldw	r4,-12(fp)
    1bd4:	e0fff817 	ldw	r3,-32(fp)
    1bd8:	20c9c83a 	sub	r4,r4,r3
    1bdc:	e0fff617 	ldw	r3,-40(fp)
    1be0:	20c7883a 	add	r3,r4,r3
    1be4:	10c5883a 	add	r2,r2,r3
    1be8:	10800023 	ldbuio	r2,0(r2)
    1bec:	10803fcc 	andi	r2,r2,255
    1bf0:	1009883a 	mov	r4,r2
    1bf4:	e0fffb04 	addi	r3,fp,-20
    1bf8:	e0bff617 	ldw	r2,-40(fp)
    1bfc:	1885883a 	add	r2,r3,r2
    1c00:	11000005 	stb	r4,0(r2)
  {
    unaligned_bytes = flash->mode_width - bytes_to_preserve;
    /*
     * Read the bytes we wish to preserve out of flash
     */
    for (i=0;i<bytes_to_preserve;i++)
    1c04:	e0bff617 	ldw	r2,-40(fp)
    1c08:	10800044 	addi	r2,r2,1
    1c0c:	e0bff615 	stw	r2,-40(fp)
    1c10:	e0fff617 	ldw	r3,-40(fp)
    1c14:	e0bff817 	ldw	r2,-32(fp)
    1c18:	18bfeb16 	blt	r3,r2,1bc8 <__alt_mem_onchip_memory+0xf7801bc8>
    {
      unaligned[i] = IORD_8DIRECT(flash->dev.base_addr, 
                                offset-bytes_to_preserve+i);
    }

    for (i=0;i<unaligned_bytes;i++)
    1c1c:	e03ff615 	stw	zero,-40(fp)
    1c20:	00000d06 	br	1c58 <alt_flash_program_block+0x104>
    {
      unaligned[bytes_to_preserve + i] = *(alt_u8*)(src_addr + i);
    1c24:	e0fff817 	ldw	r3,-32(fp)
    1c28:	e0bff617 	ldw	r2,-40(fp)
    1c2c:	1885883a 	add	r2,r3,r2
    1c30:	e0fff617 	ldw	r3,-40(fp)
    1c34:	e13ffe17 	ldw	r4,-8(fp)
    1c38:	20c7883a 	add	r3,r4,r3
    1c3c:	18c00003 	ldbu	r3,0(r3)
    1c40:	e13ffb04 	addi	r4,fp,-20
    1c44:	2085883a 	add	r2,r4,r2
    1c48:	10c00005 	stb	r3,0(r2)
    {
      unaligned[i] = IORD_8DIRECT(flash->dev.base_addr, 
                                offset-bytes_to_preserve+i);
    }

    for (i=0;i<unaligned_bytes;i++)
    1c4c:	e0bff617 	ldw	r2,-40(fp)
    1c50:	10800044 	addi	r2,r2,1
    1c54:	e0bff615 	stw	r2,-40(fp)
    1c58:	e0fff617 	ldw	r3,-40(fp)
    1c5c:	e0bff917 	ldw	r2,-28(fp)
    1c60:	18bff016 	blt	r3,r2,1c24 <__alt_mem_onchip_memory+0xf7801c24>
    {
      unaligned[bytes_to_preserve + i] = *(alt_u8*)(src_addr + i);
    }
    
    ret_code = (*program_word_func)(flash, offset-bytes_to_preserve, unaligned);
    1c64:	e0fffd17 	ldw	r3,-12(fp)
    1c68:	e0bff817 	ldw	r2,-32(fp)
    1c6c:	1887c83a 	sub	r3,r3,r2
    1c70:	e13ffb04 	addi	r4,fp,-20
    1c74:	e0800217 	ldw	r2,8(fp)
    1c78:	200d883a 	mov	r6,r4
    1c7c:	180b883a 	mov	r5,r3
    1c80:	e13ffc17 	ldw	r4,-16(fp)
    1c84:	103ee83a 	callr	r2
    1c88:	e0bff515 	stw	r2,-44(fp)
    i = unaligned_bytes;
    1c8c:	e0bff917 	ldw	r2,-28(fp)
    1c90:	e0bff615 	stw	r2,-40(fp)
    1c94:	00000106 	br	1c9c <alt_flash_program_block+0x148>
  }
  else
  {
    i = 0;
    1c98:	e03ff615 	stw	zero,-40(fp)
  }

  unaligned_end_bytes = (offset+length) % flash->mode_width;
    1c9c:	e0fffd17 	ldw	r3,-12(fp)
    1ca0:	e0bfff17 	ldw	r2,-4(fp)
    1ca4:	1887883a 	add	r3,r3,r2
    1ca8:	e0bffc17 	ldw	r2,-16(fp)
    1cac:	10802f17 	ldw	r2,188(r2)
    1cb0:	100b883a 	mov	r5,r2
    1cb4:	1809883a 	mov	r4,r3
    1cb8:	0006fd80 	call	6fd8 <__modsi3>
    1cbc:	e0bffa15 	stw	r2,-24(fp)
  while ((ret_code == 0) && (i < (length-unaligned_end_bytes)))
    1cc0:	00001106 	br	1d08 <alt_flash_program_block+0x1b4>
  {
    ret_code = (*program_word_func)(flash, offset+i, src_addr+i);
    1cc4:	e0fffd17 	ldw	r3,-12(fp)
    1cc8:	e0bff617 	ldw	r2,-40(fp)
    1ccc:	1889883a 	add	r4,r3,r2
    1cd0:	e0bff617 	ldw	r2,-40(fp)
    1cd4:	e0fffe17 	ldw	r3,-8(fp)
    1cd8:	1887883a 	add	r3,r3,r2
    1cdc:	e0800217 	ldw	r2,8(fp)
    1ce0:	180d883a 	mov	r6,r3
    1ce4:	200b883a 	mov	r5,r4
    1ce8:	e13ffc17 	ldw	r4,-16(fp)
    1cec:	103ee83a 	callr	r2
    1cf0:	e0bff515 	stw	r2,-44(fp)
    i += flash->mode_width;     
    1cf4:	e0bffc17 	ldw	r2,-16(fp)
    1cf8:	10802f17 	ldw	r2,188(r2)
    1cfc:	e0fff617 	ldw	r3,-40(fp)
    1d00:	1885883a 	add	r2,r3,r2
    1d04:	e0bff615 	stw	r2,-40(fp)
  {
    i = 0;
  }

  unaligned_end_bytes = (offset+length) % flash->mode_width;
  while ((ret_code == 0) && (i < (length-unaligned_end_bytes)))
    1d08:	e0bff517 	ldw	r2,-44(fp)
    1d0c:	1000051e 	bne	r2,zero,1d24 <alt_flash_program_block+0x1d0>
    1d10:	e0ffff17 	ldw	r3,-4(fp)
    1d14:	e0bffa17 	ldw	r2,-24(fp)
    1d18:	1885c83a 	sub	r2,r3,r2
    1d1c:	e0fff617 	ldw	r3,-40(fp)
    1d20:	18bfe816 	blt	r3,r2,1cc4 <__alt_mem_onchip_memory+0xf7801cc4>

  /*
   * Now take care of any writes at the end of the buffer which are on none 
   * native boundaries as far as the flash is concerned.
   */
  if (unaligned_end_bytes && !ret_code)
    1d24:	e0bffa17 	ldw	r2,-24(fp)
    1d28:	10003c26 	beq	r2,zero,1e1c <alt_flash_program_block+0x2c8>
    1d2c:	e0bff517 	ldw	r2,-44(fp)
    1d30:	10003a1e 	bne	r2,zero,1e1c <alt_flash_program_block+0x2c8>
  {
    bytes_to_preserve = flash->mode_width - unaligned_end_bytes;
    1d34:	e0bffc17 	ldw	r2,-16(fp)
    1d38:	10c02f17 	ldw	r3,188(r2)
    1d3c:	e0bffa17 	ldw	r2,-24(fp)
    1d40:	1885c83a 	sub	r2,r3,r2
    1d44:	e0bff815 	stw	r2,-32(fp)
    
    for (j=0;j<unaligned_end_bytes;j++)
    1d48:	e03ff715 	stw	zero,-36(fp)
    1d4c:	00000d06 	br	1d84 <alt_flash_program_block+0x230>
    {
      unaligned[j] = *(alt_u8*)(src_addr+i+j);
    1d50:	e0fff617 	ldw	r3,-40(fp)
    1d54:	e0bff717 	ldw	r2,-36(fp)
    1d58:	1885883a 	add	r2,r3,r2
    1d5c:	e0fffe17 	ldw	r3,-8(fp)
    1d60:	1885883a 	add	r2,r3,r2
    1d64:	10c00003 	ldbu	r3,0(r2)
    1d68:	e13ffb04 	addi	r4,fp,-20
    1d6c:	e0bff717 	ldw	r2,-36(fp)
    1d70:	2085883a 	add	r2,r4,r2
    1d74:	10c00005 	stb	r3,0(r2)
   */
  if (unaligned_end_bytes && !ret_code)
  {
    bytes_to_preserve = flash->mode_width - unaligned_end_bytes;
    
    for (j=0;j<unaligned_end_bytes;j++)
    1d78:	e0bff717 	ldw	r2,-36(fp)
    1d7c:	10800044 	addi	r2,r2,1
    1d80:	e0bff715 	stw	r2,-36(fp)
    1d84:	e0fff717 	ldw	r3,-36(fp)
    1d88:	e0bffa17 	ldw	r2,-24(fp)
    1d8c:	18bff016 	blt	r3,r2,1d50 <__alt_mem_onchip_memory+0xf7801d50>
    {
      unaligned[j] = *(alt_u8*)(src_addr+i+j);
    }
    
    for (j=0;j<bytes_to_preserve;j++)
    1d90:	e03ff715 	stw	zero,-36(fp)
    1d94:	00001406 	br	1de8 <alt_flash_program_block+0x294>
    {
      unaligned[unaligned_end_bytes+j] = IORD_8DIRECT(flash->dev.base_addr, 
    1d98:	e0fffa17 	ldw	r3,-24(fp)
    1d9c:	e0bff717 	ldw	r2,-36(fp)
    1da0:	1885883a 	add	r2,r3,r2
    1da4:	e0fffc17 	ldw	r3,-16(fp)
    1da8:	18c00a17 	ldw	r3,40(r3)
    1dac:	e17ffd17 	ldw	r5,-12(fp)
    1db0:	e13fff17 	ldw	r4,-4(fp)
    1db4:	290b883a 	add	r5,r5,r4
    1db8:	e13ff717 	ldw	r4,-36(fp)
    1dbc:	2909883a 	add	r4,r5,r4
    1dc0:	1907883a 	add	r3,r3,r4
    1dc4:	18c00023 	ldbuio	r3,0(r3)
    1dc8:	18c03fcc 	andi	r3,r3,255
    1dcc:	1809883a 	mov	r4,r3
    1dd0:	e0fffb04 	addi	r3,fp,-20
    1dd4:	1885883a 	add	r2,r3,r2
    1dd8:	11000005 	stb	r4,0(r2)
    for (j=0;j<unaligned_end_bytes;j++)
    {
      unaligned[j] = *(alt_u8*)(src_addr+i+j);
    }
    
    for (j=0;j<bytes_to_preserve;j++)
    1ddc:	e0bff717 	ldw	r2,-36(fp)
    1de0:	10800044 	addi	r2,r2,1
    1de4:	e0bff715 	stw	r2,-36(fp)
    1de8:	e0fff717 	ldw	r3,-36(fp)
    1dec:	e0bff817 	ldw	r2,-32(fp)
    1df0:	18bfe916 	blt	r3,r2,1d98 <__alt_mem_onchip_memory+0xf7801d98>
    {
      unaligned[unaligned_end_bytes+j] = IORD_8DIRECT(flash->dev.base_addr, 
                                                      offset+length+j);
    }

    ret_code = (*program_word_func)(flash, offset+i, unaligned);      
    1df4:	e0fffd17 	ldw	r3,-12(fp)
    1df8:	e0bff617 	ldw	r2,-40(fp)
    1dfc:	1887883a 	add	r3,r3,r2
    1e00:	e13ffb04 	addi	r4,fp,-20
    1e04:	e0800217 	ldw	r2,8(fp)
    1e08:	200d883a 	mov	r6,r4
    1e0c:	180b883a 	mov	r5,r3
    1e10:	e13ffc17 	ldw	r4,-16(fp)
    1e14:	103ee83a 	callr	r2
    1e18:	e0bff515 	stw	r2,-44(fp)
  }

  return ret_code;
    1e1c:	e0bff517 	ldw	r2,-44(fp)
}
    1e20:	e037883a 	mov	sp,fp
    1e24:	dfc00117 	ldw	ra,4(sp)
    1e28:	df000017 	ldw	fp,0(sp)
    1e2c:	dec00204 	addi	sp,sp,8
    1e30:	f800283a 	ret

00001e34 <alt_read_query_entry_8bit>:

/*
 *  Read an 8 bit value from the CFI query table in flash
 */
alt_u8 alt_read_query_entry_8bit( alt_flash_cfi_dev* flash, int address)
{
    1e34:	defffd04 	addi	sp,sp,-12
    1e38:	df000215 	stw	fp,8(sp)
    1e3c:	df000204 	addi	fp,sp,8
    1e40:	e13ffe15 	stw	r4,-8(fp)
    1e44:	e17fff15 	stw	r5,-4(fp)
  return IORD_8DIRECT((alt_u8*)flash->dev.base_addr, address);
    1e48:	e0bffe17 	ldw	r2,-8(fp)
    1e4c:	10c00a17 	ldw	r3,40(r2)
    1e50:	e0bfff17 	ldw	r2,-4(fp)
    1e54:	1885883a 	add	r2,r3,r2
    1e58:	10800023 	ldbuio	r2,0(r2)
    1e5c:	10803fcc 	andi	r2,r2,255
}
    1e60:	e037883a 	mov	sp,fp
    1e64:	df000017 	ldw	fp,0(sp)
    1e68:	dec00104 	addi	sp,sp,4
    1e6c:	f800283a 	ret

00001e70 <alt_read_query_entry_16bit>:

alt_u8 alt_read_query_entry_16bit( alt_flash_cfi_dev* flash, int address)
{
    1e70:	defffd04 	addi	sp,sp,-12
    1e74:	df000215 	stw	fp,8(sp)
    1e78:	df000204 	addi	fp,sp,8
    1e7c:	e13ffe15 	stw	r4,-8(fp)
    1e80:	e17fff15 	stw	r5,-4(fp)
  return (IORD_16DIRECT((alt_u8*)flash->dev.base_addr, address*2) & 0xff);
    1e84:	e0bffe17 	ldw	r2,-8(fp)
    1e88:	10c00a17 	ldw	r3,40(r2)
    1e8c:	e0bfff17 	ldw	r2,-4(fp)
    1e90:	1085883a 	add	r2,r2,r2
    1e94:	1885883a 	add	r2,r3,r2
    1e98:	1080002b 	ldhuio	r2,0(r2)
    1e9c:	10bfffcc 	andi	r2,r2,65535
}
    1ea0:	e037883a 	mov	sp,fp
    1ea4:	df000017 	ldw	fp,0(sp)
    1ea8:	dec00104 	addi	sp,sp,4
    1eac:	f800283a 	ret

00001eb0 <alt_read_query_entry_32bit>:

alt_u8 alt_read_query_entry_32bit( alt_flash_cfi_dev* flash, int address)
{
    1eb0:	defffd04 	addi	sp,sp,-12
    1eb4:	df000215 	stw	fp,8(sp)
    1eb8:	df000204 	addi	fp,sp,8
    1ebc:	e13ffe15 	stw	r4,-8(fp)
    1ec0:	e17fff15 	stw	r5,-4(fp)
  return (IORD_32DIRECT((alt_u8*)flash->dev.base_addr, address*4) & 0xff);
    1ec4:	e0bffe17 	ldw	r2,-8(fp)
    1ec8:	10c00a17 	ldw	r3,40(r2)
    1ecc:	e0bfff17 	ldw	r2,-4(fp)
    1ed0:	1085883a 	add	r2,r2,r2
    1ed4:	1085883a 	add	r2,r2,r2
    1ed8:	1885883a 	add	r2,r3,r2
    1edc:	10800037 	ldwio	r2,0(r2)
}
    1ee0:	e037883a 	mov	sp,fp
    1ee4:	df000017 	ldw	fp,0(sp)
    1ee8:	dec00104 	addi	sp,sp,4
    1eec:	f800283a 	ret

00001ef0 <alt_write_flash_command_8bit_device_8bit_mode>:

/*
 * Write an 8 bit command to a flash
 */
void alt_write_flash_command_8bit_device_8bit_mode( void* base_addr, int offset, alt_u8 value)
{
    1ef0:	defffc04 	addi	sp,sp,-16
    1ef4:	df000315 	stw	fp,12(sp)
    1ef8:	df000304 	addi	fp,sp,12
    1efc:	e13ffd15 	stw	r4,-12(fp)
    1f00:	e17ffe15 	stw	r5,-8(fp)
    1f04:	3005883a 	mov	r2,r6
    1f08:	e0bfff05 	stb	r2,-4(fp)
  IOWR_8DIRECT(base_addr, offset, value);
    1f0c:	e0bffe17 	ldw	r2,-8(fp)
    1f10:	e0fffd17 	ldw	r3,-12(fp)
    1f14:	1885883a 	add	r2,r3,r2
    1f18:	e0ffff03 	ldbu	r3,-4(fp)
    1f1c:	10c00025 	stbio	r3,0(r2)
  return;
    1f20:	0001883a 	nop
}
    1f24:	e037883a 	mov	sp,fp
    1f28:	df000017 	ldw	fp,0(sp)
    1f2c:	dec00104 	addi	sp,sp,4
    1f30:	f800283a 	ret

00001f34 <alt_write_flash_command_16bit_device_8bit_mode>:

void alt_write_flash_command_16bit_device_8bit_mode( void* base_addr, int offset, alt_u8 value)
{
    1f34:	defffc04 	addi	sp,sp,-16
    1f38:	df000315 	stw	fp,12(sp)
    1f3c:	df000304 	addi	fp,sp,12
    1f40:	e13ffd15 	stw	r4,-12(fp)
    1f44:	e17ffe15 	stw	r5,-8(fp)
    1f48:	3005883a 	mov	r2,r6
    1f4c:	e0bfff05 	stb	r2,-4(fp)
  if (offset % 2)
    1f50:	e0bffe17 	ldw	r2,-8(fp)
    1f54:	1080004c 	andi	r2,r2,1
    1f58:	10000826 	beq	r2,zero,1f7c <alt_write_flash_command_16bit_device_8bit_mode+0x48>
  {
    IOWR_8DIRECT(base_addr, offset*2, value);
    1f5c:	e0bffe17 	ldw	r2,-8(fp)
    1f60:	1085883a 	add	r2,r2,r2
    1f64:	1007883a 	mov	r3,r2
    1f68:	e0bffd17 	ldw	r2,-12(fp)
    1f6c:	10c5883a 	add	r2,r2,r3
    1f70:	e0ffff03 	ldbu	r3,-4(fp)
    1f74:	10c00025 	stbio	r3,0(r2)
  }
  else
  {
    IOWR_8DIRECT(base_addr, (offset*2)+1, value);
  }
  return;
    1f78:	00000806 	br	1f9c <alt_write_flash_command_16bit_device_8bit_mode+0x68>
  {
    IOWR_8DIRECT(base_addr, offset*2, value);
  }
  else
  {
    IOWR_8DIRECT(base_addr, (offset*2)+1, value);
    1f7c:	e0bffe17 	ldw	r2,-8(fp)
    1f80:	1085883a 	add	r2,r2,r2
    1f84:	10800044 	addi	r2,r2,1
    1f88:	e0fffd17 	ldw	r3,-12(fp)
    1f8c:	1885883a 	add	r2,r3,r2
    1f90:	e0ffff03 	ldbu	r3,-4(fp)
    1f94:	10c00025 	stbio	r3,0(r2)
  }
  return;
    1f98:	0001883a 	nop
}
    1f9c:	e037883a 	mov	sp,fp
    1fa0:	df000017 	ldw	fp,0(sp)
    1fa4:	dec00104 	addi	sp,sp,4
    1fa8:	f800283a 	ret

00001fac <alt_write_flash_command_32bit_device_8bit_mode>:

void alt_write_flash_command_32bit_device_8bit_mode( void* base_addr, int offset, alt_u8 value)
{
    1fac:	defffc04 	addi	sp,sp,-16
    1fb0:	df000315 	stw	fp,12(sp)
    1fb4:	df000304 	addi	fp,sp,12
    1fb8:	e13ffd15 	stw	r4,-12(fp)
    1fbc:	e17ffe15 	stw	r5,-8(fp)
    1fc0:	3005883a 	mov	r2,r6
    1fc4:	e0bfff05 	stb	r2,-4(fp)
  IOWR_8DIRECT(base_addr, offset*4, value);
    1fc8:	e0bffe17 	ldw	r2,-8(fp)
    1fcc:	1085883a 	add	r2,r2,r2
    1fd0:	1085883a 	add	r2,r2,r2
    1fd4:	1007883a 	mov	r3,r2
    1fd8:	e0bffd17 	ldw	r2,-12(fp)
    1fdc:	10c5883a 	add	r2,r2,r3
    1fe0:	e0ffff03 	ldbu	r3,-4(fp)
    1fe4:	10c00025 	stbio	r3,0(r2)
  return;
    1fe8:	0001883a 	nop
}
    1fec:	e037883a 	mov	sp,fp
    1ff0:	df000017 	ldw	fp,0(sp)
    1ff4:	dec00104 	addi	sp,sp,4
    1ff8:	f800283a 	ret

00001ffc <alt_write_flash_command_16bit_device_16bit_mode>:

void alt_write_flash_command_16bit_device_16bit_mode( void* base_addr, int offset, alt_u8 value)
{
    1ffc:	defffc04 	addi	sp,sp,-16
    2000:	df000315 	stw	fp,12(sp)
    2004:	df000304 	addi	fp,sp,12
    2008:	e13ffd15 	stw	r4,-12(fp)
    200c:	e17ffe15 	stw	r5,-8(fp)
    2010:	3005883a 	mov	r2,r6
    2014:	e0bfff05 	stb	r2,-4(fp)
  IOWR_16DIRECT(base_addr, offset*2, ((alt_u16)value)& 0x00ff);
    2018:	e0bffe17 	ldw	r2,-8(fp)
    201c:	1085883a 	add	r2,r2,r2
    2020:	1007883a 	mov	r3,r2
    2024:	e0bffd17 	ldw	r2,-12(fp)
    2028:	10c5883a 	add	r2,r2,r3
    202c:	e0ffff03 	ldbu	r3,-4(fp)
    2030:	10c0002d 	sthio	r3,0(r2)
  return;
    2034:	0001883a 	nop
}
    2038:	e037883a 	mov	sp,fp
    203c:	df000017 	ldw	fp,0(sp)
    2040:	dec00104 	addi	sp,sp,4
    2044:	f800283a 	ret

00002048 <alt_write_flash_command_32bit_device_16bit_mode>:

void alt_write_flash_command_32bit_device_16bit_mode( void* base_addr, int offset, alt_u8 value)
{
    2048:	defffc04 	addi	sp,sp,-16
    204c:	df000315 	stw	fp,12(sp)
    2050:	df000304 	addi	fp,sp,12
    2054:	e13ffd15 	stw	r4,-12(fp)
    2058:	e17ffe15 	stw	r5,-8(fp)
    205c:	3005883a 	mov	r2,r6
    2060:	e0bfff05 	stb	r2,-4(fp)
  IOWR_16DIRECT(base_addr, offset*4, ((alt_u16)value)& 0x00ff);
    2064:	e0bffe17 	ldw	r2,-8(fp)
    2068:	1085883a 	add	r2,r2,r2
    206c:	1085883a 	add	r2,r2,r2
    2070:	1007883a 	mov	r3,r2
    2074:	e0bffd17 	ldw	r2,-12(fp)
    2078:	10c5883a 	add	r2,r2,r3
    207c:	e0ffff03 	ldbu	r3,-4(fp)
    2080:	10c0002d 	sthio	r3,0(r2)
  return;
    2084:	0001883a 	nop
}
    2088:	e037883a 	mov	sp,fp
    208c:	df000017 	ldw	fp,0(sp)
    2090:	dec00104 	addi	sp,sp,4
    2094:	f800283a 	ret

00002098 <alt_write_flash_command_32bit_device_32bit_mode>:

void alt_write_flash_command_32bit_device_32bit_mode( void* base_addr, int offset, alt_u8 value)
{
    2098:	defffc04 	addi	sp,sp,-16
    209c:	df000315 	stw	fp,12(sp)
    20a0:	df000304 	addi	fp,sp,12
    20a4:	e13ffd15 	stw	r4,-12(fp)
    20a8:	e17ffe15 	stw	r5,-8(fp)
    20ac:	3005883a 	mov	r2,r6
    20b0:	e0bfff05 	stb	r2,-4(fp)
  IOWR_32DIRECT(base_addr, offset*4, ((alt_u32)value)& 0x000000ff);
    20b4:	e0bffe17 	ldw	r2,-8(fp)
    20b8:	1085883a 	add	r2,r2,r2
    20bc:	1085883a 	add	r2,r2,r2
    20c0:	1007883a 	mov	r3,r2
    20c4:	e0bffd17 	ldw	r2,-12(fp)
    20c8:	10c5883a 	add	r2,r2,r3
    20cc:	e0ffff03 	ldbu	r3,-4(fp)
    20d0:	10c00035 	stwio	r3,0(r2)
  return;
    20d4:	0001883a 	nop
}
    20d8:	e037883a 	mov	sp,fp
    20dc:	df000017 	ldw	fp,0(sp)
    20e0:	dec00104 	addi	sp,sp,4
    20e4:	f800283a 	ret

000020e8 <alt_write_native_8bit>:

/*
 * Write the value passed to the flash
 */
void alt_write_native_8bit( void* address, alt_u32 value)
{
    20e8:	defffd04 	addi	sp,sp,-12
    20ec:	df000215 	stw	fp,8(sp)
    20f0:	df000204 	addi	fp,sp,8
    20f4:	e13ffe15 	stw	r4,-8(fp)
    20f8:	e17fff15 	stw	r5,-4(fp)
  IOWR_8DIRECT(address, 0, (alt_u8)(value&0xff));
    20fc:	e0bfff17 	ldw	r2,-4(fp)
    2100:	10c03fcc 	andi	r3,r2,255
    2104:	e0bffe17 	ldw	r2,-8(fp)
    2108:	10c00025 	stbio	r3,0(r2)
  return;
    210c:	0001883a 	nop
}
    2110:	e037883a 	mov	sp,fp
    2114:	df000017 	ldw	fp,0(sp)
    2118:	dec00104 	addi	sp,sp,4
    211c:	f800283a 	ret

00002120 <alt_write_native_16bit>:

void alt_write_native_16bit( void* address, alt_u32 value)
{
    2120:	defffd04 	addi	sp,sp,-12
    2124:	df000215 	stw	fp,8(sp)
    2128:	df000204 	addi	fp,sp,8
    212c:	e13ffe15 	stw	r4,-8(fp)
    2130:	e17fff15 	stw	r5,-4(fp)
  IOWR_16DIRECT(address, 0, ((alt_u16)value)& 0xffff);
    2134:	e0bfff17 	ldw	r2,-4(fp)
    2138:	10ffffcc 	andi	r3,r2,65535
    213c:	e0bffe17 	ldw	r2,-8(fp)
    2140:	10c0002d 	sthio	r3,0(r2)
  return;
    2144:	0001883a 	nop
}
    2148:	e037883a 	mov	sp,fp
    214c:	df000017 	ldw	fp,0(sp)
    2150:	dec00104 	addi	sp,sp,4
    2154:	f800283a 	ret

00002158 <alt_write_native_32bit>:

void alt_write_native_32bit( void* address, alt_u32 value)
{
    2158:	defffd04 	addi	sp,sp,-12
    215c:	df000215 	stw	fp,8(sp)
    2160:	df000204 	addi	fp,sp,8
    2164:	e13ffe15 	stw	r4,-8(fp)
    2168:	e17fff15 	stw	r5,-4(fp)
  IOWR_32DIRECT(address, 0, value);
    216c:	e0ffff17 	ldw	r3,-4(fp)
    2170:	e0bffe17 	ldw	r2,-8(fp)
    2174:	10c00035 	stwio	r3,0(r2)
  return;
    2178:	0001883a 	nop
}
    217c:	e037883a 	mov	sp,fp
    2180:	df000017 	ldw	fp,0(sp)
    2184:	dec00104 	addi	sp,sp,4
    2188:	f800283a 	ret

0000218c <alt_set_flash_width_func>:
 * 
 * Setup the function pointers for writing a byte to the flash for the width
 * of the device
 */
int alt_set_flash_width_func( alt_flash_cfi_dev* flash)
{ 
    218c:	defffd04 	addi	sp,sp,-12
    2190:	df000215 	stw	fp,8(sp)
    2194:	df000204 	addi	fp,sp,8
    2198:	e13fff15 	stw	r4,-4(fp)
  int ret_code = 0;
    219c:	e03ffe15 	stw	zero,-8(fp)
  
  switch(flash->mode_width)
    21a0:	e0bfff17 	ldw	r2,-4(fp)
    21a4:	10802f17 	ldw	r2,188(r2)
    21a8:	10c000a0 	cmpeqi	r3,r2,2
    21ac:	1800231e 	bne	r3,zero,223c <alt_set_flash_width_func+0xb0>
    21b0:	10c00120 	cmpeqi	r3,r2,4
    21b4:	1800371e 	bne	r3,zero,2294 <alt_set_flash_width_func+0x108>
    21b8:	10800060 	cmpeqi	r2,r2,1
    21bc:	10003e26 	beq	r2,zero,22b8 <alt_set_flash_width_func+0x12c>
  {
    case 1:
    {
      flash->write_native = alt_write_native_8bit;
    21c0:	e0ffff17 	ldw	r3,-4(fp)
    21c4:	00800034 	movhi	r2,0
    21c8:	10883a04 	addi	r2,r2,8424
    21cc:	18803615 	stw	r2,216(r3)

      if (flash->device_width == 1)
    21d0:	e0bfff17 	ldw	r2,-4(fp)
    21d4:	10803017 	ldw	r2,192(r2)
    21d8:	10800058 	cmpnei	r2,r2,1
    21dc:	1000051e 	bne	r2,zero,21f4 <alt_set_flash_width_func+0x68>
      {
        flash->write_command = alt_write_flash_command_8bit_device_8bit_mode;
    21e0:	e0ffff17 	ldw	r3,-4(fp)
    21e4:	00800034 	movhi	r2,0
    21e8:	1087bc04 	addi	r2,r2,7920
    21ec:	18803415 	stw	r2,208(r3)
      }
      else if (flash->device_width == 4)
      {
        flash->write_command = alt_write_flash_command_32bit_device_8bit_mode;
      }
      break;
    21f0:	00003406 	br	22c4 <alt_set_flash_width_func+0x138>

      if (flash->device_width == 1)
      {
        flash->write_command = alt_write_flash_command_8bit_device_8bit_mode;
      }
      else if (flash->device_width == 2)
    21f4:	e0bfff17 	ldw	r2,-4(fp)
    21f8:	10803017 	ldw	r2,192(r2)
    21fc:	10800098 	cmpnei	r2,r2,2
    2200:	1000051e 	bne	r2,zero,2218 <alt_set_flash_width_func+0x8c>
      {
        flash->write_command = alt_write_flash_command_16bit_device_8bit_mode;
    2204:	e0ffff17 	ldw	r3,-4(fp)
    2208:	00800034 	movhi	r2,0
    220c:	1087cd04 	addi	r2,r2,7988
    2210:	18803415 	stw	r2,208(r3)
      }
      else if (flash->device_width == 4)
      {
        flash->write_command = alt_write_flash_command_32bit_device_8bit_mode;
      }
      break;
    2214:	00002b06 	br	22c4 <alt_set_flash_width_func+0x138>
      }
      else if (flash->device_width == 2)
      {
        flash->write_command = alt_write_flash_command_16bit_device_8bit_mode;
      }
      else if (flash->device_width == 4)
    2218:	e0bfff17 	ldw	r2,-4(fp)
    221c:	10803017 	ldw	r2,192(r2)
    2220:	10800118 	cmpnei	r2,r2,4
    2224:	1000271e 	bne	r2,zero,22c4 <alt_set_flash_width_func+0x138>
      {
        flash->write_command = alt_write_flash_command_32bit_device_8bit_mode;
    2228:	e0ffff17 	ldw	r3,-4(fp)
    222c:	00800034 	movhi	r2,0
    2230:	1087eb04 	addi	r2,r2,8108
    2234:	18803415 	stw	r2,208(r3)
      }
      break;
    2238:	00002206 	br	22c4 <alt_set_flash_width_func+0x138>
    }
    case 2:
    {
      flash->write_native = alt_write_native_16bit;
    223c:	e0ffff17 	ldw	r3,-4(fp)
    2240:	00800034 	movhi	r2,0
    2244:	10884804 	addi	r2,r2,8480
    2248:	18803615 	stw	r2,216(r3)

      if (flash->device_width == 2)
    224c:	e0bfff17 	ldw	r2,-4(fp)
    2250:	10803017 	ldw	r2,192(r2)
    2254:	10800098 	cmpnei	r2,r2,2
    2258:	1000051e 	bne	r2,zero,2270 <alt_set_flash_width_func+0xe4>
      {
        flash->write_command = alt_write_flash_command_16bit_device_16bit_mode;
    225c:	e0ffff17 	ldw	r3,-4(fp)
    2260:	00800034 	movhi	r2,0
    2264:	1087ff04 	addi	r2,r2,8188
    2268:	18803415 	stw	r2,208(r3)
      else if (flash->device_width == 4)
      {
        flash->write_command = alt_write_flash_command_32bit_device_16bit_mode;
      }

      break;
    226c:	00001706 	br	22cc <alt_set_flash_width_func+0x140>

      if (flash->device_width == 2)
      {
        flash->write_command = alt_write_flash_command_16bit_device_16bit_mode;
      }
      else if (flash->device_width == 4)
    2270:	e0bfff17 	ldw	r2,-4(fp)
    2274:	10803017 	ldw	r2,192(r2)
    2278:	10800118 	cmpnei	r2,r2,4
    227c:	1000131e 	bne	r2,zero,22cc <alt_set_flash_width_func+0x140>
      {
        flash->write_command = alt_write_flash_command_32bit_device_16bit_mode;
    2280:	e0ffff17 	ldw	r3,-4(fp)
    2284:	00800034 	movhi	r2,0
    2288:	10881204 	addi	r2,r2,8264
    228c:	18803415 	stw	r2,208(r3)
      }

      break;
    2290:	00000e06 	br	22cc <alt_set_flash_width_func+0x140>
    }
    case 4:
    {
      flash->write_native = alt_write_native_32bit;
    2294:	e0ffff17 	ldw	r3,-4(fp)
    2298:	00800034 	movhi	r2,0
    229c:	10885604 	addi	r2,r2,8536
    22a0:	18803615 	stw	r2,216(r3)
      flash->write_command = alt_write_flash_command_32bit_device_32bit_mode;
    22a4:	e0ffff17 	ldw	r3,-4(fp)
    22a8:	00800034 	movhi	r2,0
    22ac:	10882604 	addi	r2,r2,8344
    22b0:	18803415 	stw	r2,208(r3)
      break;
    22b4:	00000606 	br	22d0 <alt_set_flash_width_func+0x144>
    }
    default:
    {
      ret_code = -EACCES;
    22b8:	00bffcc4 	movi	r2,-13
    22bc:	e0bffe15 	stw	r2,-8(fp)
    22c0:	00000306 	br	22d0 <alt_set_flash_width_func+0x144>
      }
      else if (flash->device_width == 4)
      {
        flash->write_command = alt_write_flash_command_32bit_device_8bit_mode;
      }
      break;
    22c4:	0001883a 	nop
    22c8:	00000106 	br	22d0 <alt_set_flash_width_func+0x144>
      else if (flash->device_width == 4)
      {
        flash->write_command = alt_write_flash_command_32bit_device_16bit_mode;
      }

      break;
    22cc:	0001883a 	nop
    {
      ret_code = -EACCES;
    }
  }

  if (!ret_code)
    22d0:	e0bffe17 	ldw	r2,-8(fp)
    22d4:	1000191e 	bne	r2,zero,233c <alt_set_flash_width_func+0x1b0>
  {
    switch(flash->device_width)
    22d8:	e0bfff17 	ldw	r2,-4(fp)
    22dc:	10803017 	ldw	r2,192(r2)
    22e0:	10c000a0 	cmpeqi	r3,r2,2
    22e4:	1800091e 	bne	r3,zero,230c <alt_set_flash_width_func+0x180>
    22e8:	10c00120 	cmpeqi	r3,r2,4
    22ec:	18000c1e 	bne	r3,zero,2320 <alt_set_flash_width_func+0x194>
    22f0:	10800060 	cmpeqi	r2,r2,1
    22f4:	10000f26 	beq	r2,zero,2334 <alt_set_flash_width_func+0x1a8>
    {
      case 1:
      {
        flash->read_query = alt_read_query_entry_8bit;
    22f8:	e0ffff17 	ldw	r3,-4(fp)
    22fc:	00800034 	movhi	r2,0
    2300:	10878d04 	addi	r2,r2,7732
    2304:	18803515 	stw	r2,212(r3)
        break;
    2308:	00000c06 	br	233c <alt_set_flash_width_func+0x1b0>
      }
      case 2:
      {
        flash->read_query = alt_read_query_entry_16bit;
    230c:	e0ffff17 	ldw	r3,-4(fp)
    2310:	00800034 	movhi	r2,0
    2314:	10879c04 	addi	r2,r2,7792
    2318:	18803515 	stw	r2,212(r3)
        break;
    231c:	00000706 	br	233c <alt_set_flash_width_func+0x1b0>
      }
      case 4:
      {
        flash->read_query = alt_read_query_entry_32bit;
    2320:	e0ffff17 	ldw	r3,-4(fp)
    2324:	00800034 	movhi	r2,0
    2328:	1087ac04 	addi	r2,r2,7856
    232c:	18803515 	stw	r2,212(r3)
        break;
    2330:	00000206 	br	233c <alt_set_flash_width_func+0x1b0>
      }
      default:
      {
        ret_code = -EACCES;
    2334:	00bffcc4 	movi	r2,-13
    2338:	e0bffe15 	stw	r2,-8(fp)
      }
    }
  }

  return ret_code;
    233c:	e0bffe17 	ldw	r2,-8(fp)
}
    2340:	e037883a 	mov	sp,fp
    2344:	df000017 	ldw	fp,0(sp)
    2348:	dec00104 	addi	sp,sp,4
    234c:	f800283a 	ret

00002350 <alt_set_flash_algorithm_func>:
 * 
 * Setup the function pointers to the functions for this algorithm
 * 
 */
int alt_set_flash_algorithm_func( alt_flash_cfi_dev* flash)
{
    2350:	defffd04 	addi	sp,sp,-12
    2354:	df000215 	stw	fp,8(sp)
    2358:	df000204 	addi	fp,sp,8
    235c:	e13fff15 	stw	r4,-4(fp)
  int ret_code = 0;
    2360:	e03ffe15 	stw	zero,-8(fp)
 
  switch(flash->algorithm)
    2364:	e0bfff17 	ldw	r2,-4(fp)
    2368:	10802e17 	ldw	r2,184(r2)
    236c:	10c000a0 	cmpeqi	r3,r2,2
    2370:	1800051e 	bne	r3,zero,2388 <alt_set_flash_algorithm_func+0x38>
    2374:	10c000e0 	cmpeqi	r3,r2,3
    2378:	18000c1e 	bne	r3,zero,23ac <alt_set_flash_algorithm_func+0x5c>
    237c:	10800060 	cmpeqi	r2,r2,1
    2380:	10000a1e 	bne	r2,zero,23ac <alt_set_flash_algorithm_func+0x5c>
    2384:	00001206 	br	23d0 <alt_set_flash_algorithm_func+0x80>
  {
    case CFI_ALG_AMD:
    {
      flash->dev.erase_block = alt_erase_block_amd;
    2388:	e0ffff17 	ldw	r3,-4(fp)
    238c:	00800034 	movhi	r2,0
    2390:	10977304 	addi	r2,r2,24012
    2394:	18800815 	stw	r2,32(r3)
      flash->dev.write_block = alt_program_amd;
    2398:	e0ffff17 	ldw	r3,-4(fp)
    239c:	00800034 	movhi	r2,0
    23a0:	10975904 	addi	r2,r2,23908
    23a4:	18800915 	stw	r2,36(r3)
      break;
    23a8:	00000b06 	br	23d8 <alt_set_flash_algorithm_func+0x88>
    }
    case CFI_ALG_INTEL:
    case CFI_ALG_INTEL_STRATA:
    {
      flash->dev.erase_block = alt_erase_block_intel;
    23ac:	e0ffff17 	ldw	r3,-4(fp)
    23b0:	00800034 	movhi	r2,0
    23b4:	10989104 	addi	r2,r2,25156
    23b8:	18800815 	stw	r2,32(r3)
      flash->dev.write_block = alt_program_intel;
    23bc:	e0ffff17 	ldw	r3,-4(fp)
    23c0:	00800034 	movhi	r2,0
    23c4:	10987104 	addi	r2,r2,25028
    23c8:	18800915 	stw	r2,36(r3)
      break;
    23cc:	00000206 	br	23d8 <alt_set_flash_algorithm_func+0x88>
    }
    default:
    {
      ret_code = -EIO;
    23d0:	00bffec4 	movi	r2,-5
    23d4:	e0bffe15 	stw	r2,-8(fp)
    }
  } 
  return ret_code;  
    23d8:	e0bffe17 	ldw	r2,-8(fp)
}
    23dc:	e037883a 	mov	sp,fp
    23e0:	df000017 	ldw	fp,0(sp)
    23e4:	dec00104 	addi	sp,sp,4
    23e8:	f800283a 	ret

000023ec <alt_read_16bit_query_entry>:
 * read_16bit_query_entry
 * 
 * Read a 16 bit entry from the CFI Query table
 */
static alt_u16 alt_read_16bit_query_entry(alt_flash_cfi_dev* flash, int address)
{
    23ec:	defffb04 	addi	sp,sp,-20
    23f0:	dfc00415 	stw	ra,16(sp)
    23f4:	df000315 	stw	fp,12(sp)
    23f8:	df000304 	addi	fp,sp,12
    23fc:	e13ffe15 	stw	r4,-8(fp)
    2400:	e17fff15 	stw	r5,-4(fp)
  alt_u16 ret_code;

  ret_code = (*flash->read_query)( flash, address);
    2404:	e0bffe17 	ldw	r2,-8(fp)
    2408:	10803517 	ldw	r2,212(r2)
    240c:	e17fff17 	ldw	r5,-4(fp)
    2410:	e13ffe17 	ldw	r4,-8(fp)
    2414:	103ee83a 	callr	r2
    2418:	10803fcc 	andi	r2,r2,255
    241c:	e0bffd0d 	sth	r2,-12(fp)
  ret_code |= (((int)(*flash->read_query)(flash, address+1)) << 8);                   
    2420:	e0bffe17 	ldw	r2,-8(fp)
    2424:	10803517 	ldw	r2,212(r2)
    2428:	e0ffff17 	ldw	r3,-4(fp)
    242c:	18c00044 	addi	r3,r3,1
    2430:	180b883a 	mov	r5,r3
    2434:	e13ffe17 	ldw	r4,-8(fp)
    2438:	103ee83a 	callr	r2
    243c:	10803fcc 	andi	r2,r2,255
    2440:	1004923a 	slli	r2,r2,8
    2444:	1007883a 	mov	r3,r2
    2448:	e0bffd0b 	ldhu	r2,-12(fp)
    244c:	1884b03a 	or	r2,r3,r2
    2450:	e0bffd0d 	sth	r2,-12(fp)

  return ret_code;
    2454:	e0bffd0b 	ldhu	r2,-12(fp)
}
    2458:	e037883a 	mov	sp,fp
    245c:	dfc00117 	ldw	ra,4(sp)
    2460:	df000017 	ldw	fp,0(sp)
    2464:	dec00204 	addi	sp,sp,8
    2468:	f800283a 	ret

0000246c <alt_read_cfi_table>:
 * read_cfi_table
 * 
 * Read the CFI Table
 */
int alt_read_cfi_table(alt_flash_cfi_dev* flash)
{
    246c:	defff304 	addi	sp,sp,-52
    2470:	dfc00c15 	stw	ra,48(sp)
    2474:	df000b15 	stw	fp,44(sp)
    2478:	df000b04 	addi	fp,sp,44
    247c:	e13fff15 	stw	r4,-4(fp)
  int   i,j;
  int   device_size;
  int   ret_code = 0;
    2480:	e03ff715 	stw	zero,-36(fp)
  int   size = 0;
    2484:	e03ff815 	stw	zero,-32(fp)
  int   swap;
  int   typical_timeout;
  int   max_timeout;
  int   offset = 0;
    2488:	e03ff915 	stw	zero,-28(fp)
   
  /*
  * Check that the Primary Vendor Specific table
  * starts with the letters PRI                                                         
  */
  ret_code = alt_check_primary_table(flash);
    248c:	e13fff17 	ldw	r4,-4(fp)
    2490:	00031a40 	call	31a4 <alt_check_primary_table>
    2494:	e0bff715 	stw	r2,-36(fp)

  if (!ret_code)
    2498:	e0bff717 	ldw	r2,-36(fp)
    249c:	10015f1e 	bne	r2,zero,2a1c <alt_read_cfi_table+0x5b0>
  {
    flash->algorithm = (*flash->read_query)(flash, 0x13);
    24a0:	e0bfff17 	ldw	r2,-4(fp)
    24a4:	10803517 	ldw	r2,212(r2)
    24a8:	014004c4 	movi	r5,19
    24ac:	e13fff17 	ldw	r4,-4(fp)
    24b0:	103ee83a 	callr	r2
    24b4:	10c03fcc 	andi	r3,r2,255
    24b8:	e0bfff17 	ldw	r2,-4(fp)
    24bc:	10c02e15 	stw	r3,184(r2)
  
    /* 
     * Let's read the write timeout values from the flash 
     * 
     */
    typical_timeout = (*flash->read_query)( flash, 0x1f);
    24c0:	e0bfff17 	ldw	r2,-4(fp)
    24c4:	10803517 	ldw	r2,212(r2)
    24c8:	014007c4 	movi	r5,31
    24cc:	e13fff17 	ldw	r4,-4(fp)
    24d0:	103ee83a 	callr	r2
    24d4:	10803fcc 	andi	r2,r2,255
    24d8:	e0bffa15 	stw	r2,-24(fp)
    max_timeout = (*flash->read_query)( flash, 0x23);
    24dc:	e0bfff17 	ldw	r2,-4(fp)
    24e0:	10803517 	ldw	r2,212(r2)
    24e4:	014008c4 	movi	r5,35
    24e8:	e13fff17 	ldw	r4,-4(fp)
    24ec:	103ee83a 	callr	r2
    24f0:	10803fcc 	andi	r2,r2,255
    24f4:	e0bffb15 	stw	r2,-20(fp)
    
    if ((typical_timeout == 0 ) || (max_timeout == 0))
    24f8:	e0bffa17 	ldw	r2,-24(fp)
    24fc:	10000226 	beq	r2,zero,2508 <alt_read_cfi_table+0x9c>
    2500:	e0bffb17 	ldw	r2,-20(fp)
    2504:	1000041e 	bne	r2,zero,2518 <alt_read_cfi_table+0xac>
    {
      flash->write_timeout = 1000; /* 1ms should be more than enough */
    2508:	e0bfff17 	ldw	r2,-4(fp)
    250c:	00c0fa04 	movi	r3,1000
    2510:	10c03115 	stw	r3,196(r2)
    2514:	00000706 	br	2534 <alt_read_cfi_table+0xc8>
    }
    else
    {
      flash->write_timeout = (1 << typical_timeout) * (1 << max_timeout);
    2518:	00c00044 	movi	r3,1
    251c:	e0bffa17 	ldw	r2,-24(fp)
    2520:	1886983a 	sll	r3,r3,r2
    2524:	e0bffb17 	ldw	r2,-20(fp)
    2528:	1886983a 	sll	r3,r3,r2
    252c:	e0bfff17 	ldw	r2,-4(fp)
    2530:	10c03115 	stw	r3,196(r2)
    }
   
    /* Let's read the block erase timeout values from the flash */
    typical_timeout = (*flash->read_query)( flash, 0x21);
    2534:	e0bfff17 	ldw	r2,-4(fp)
    2538:	10803517 	ldw	r2,212(r2)
    253c:	01400844 	movi	r5,33
    2540:	e13fff17 	ldw	r4,-4(fp)
    2544:	103ee83a 	callr	r2
    2548:	10803fcc 	andi	r2,r2,255
    254c:	e0bffa15 	stw	r2,-24(fp)
    max_timeout = (*flash->read_query)( flash, 0x25);
    2550:	e0bfff17 	ldw	r2,-4(fp)
    2554:	10803517 	ldw	r2,212(r2)
    2558:	01400944 	movi	r5,37
    255c:	e13fff17 	ldw	r4,-4(fp)
    2560:	103ee83a 	callr	r2
    2564:	10803fcc 	andi	r2,r2,255
    2568:	e0bffb15 	stw	r2,-20(fp)
    
    if ((typical_timeout == 0 ) || (max_timeout == 0))
    256c:	e0bffa17 	ldw	r2,-24(fp)
    2570:	10000226 	beq	r2,zero,257c <alt_read_cfi_table+0x110>
    2574:	e0bffb17 	ldw	r2,-20(fp)
    2578:	1000051e 	bne	r2,zero,2590 <alt_read_cfi_table+0x124>
    {
      flash->erase_timeout = 20000000; /* 20s should be more than enough */
    257c:	e0ffff17 	ldw	r3,-4(fp)
    2580:	00804c74 	movhi	r2,305
    2584:	108b4004 	addi	r2,r2,11520
    2588:	18803215 	stw	r2,200(r3)
    258c:	00000806 	br	25b0 <alt_read_cfi_table+0x144>
    }
    else
    {
      flash->erase_timeout = (1 << typical_timeout) * (1 << max_timeout) * 1000;
    2590:	00c00044 	movi	r3,1
    2594:	e0bffa17 	ldw	r2,-24(fp)
    2598:	1886983a 	sll	r3,r3,r2
    259c:	e0bffb17 	ldw	r2,-20(fp)
    25a0:	1884983a 	sll	r2,r3,r2
    25a4:	10c0fa24 	muli	r3,r2,1000
    25a8:	e0bfff17 	ldw	r2,-4(fp)
    25ac:	10c03215 	stw	r3,200(r2)
    }
   
    device_size = 0x1 << (*flash->read_query)( flash, 0x27);
    25b0:	e0bfff17 	ldw	r2,-4(fp)
    25b4:	10803517 	ldw	r2,212(r2)
    25b8:	014009c4 	movi	r5,39
    25bc:	e13fff17 	ldw	r4,-4(fp)
    25c0:	103ee83a 	callr	r2
    25c4:	10803fcc 	andi	r2,r2,255
    25c8:	00c00044 	movi	r3,1
    25cc:	1884983a 	sll	r2,r3,r2
    25d0:	e0bffc15 	stw	r2,-16(fp)
  
    flash->dev.number_of_regions = (*flash->read_query)(flash, 0x2c);
    25d4:	e0bfff17 	ldw	r2,-4(fp)
    25d8:	10803517 	ldw	r2,212(r2)
    25dc:	01400b04 	movi	r5,44
    25e0:	e13fff17 	ldw	r4,-4(fp)
    25e4:	103ee83a 	callr	r2
    25e8:	10c03fcc 	andi	r3,r2,255
    25ec:	e0bfff17 	ldw	r2,-4(fp)
    25f0:	10c00c15 	stw	r3,48(r2)
    
    if (flash->dev.number_of_regions > ALT_MAX_NUMBER_OF_FLASH_REGIONS)
    25f4:	e0bfff17 	ldw	r2,-4(fp)
    25f8:	10800c17 	ldw	r2,48(r2)
    25fc:	10800250 	cmplti	r2,r2,9
    2600:	1000031e 	bne	r2,zero,2610 <alt_read_cfi_table+0x1a4>
    {
      ret_code = -ENOMEM;
    2604:	00bffd04 	movi	r2,-12
    2608:	e0bff715 	stw	r2,-36(fp)
    260c:	00006006 	br	2790 <alt_read_cfi_table+0x324>
    }
    else
    {
      for(i=0;i<flash->dev.number_of_regions;i++)
    2610:	e03ff515 	stw	zero,-44(fp)
    2614:	00005506 	br	276c <alt_read_cfi_table+0x300>
      {
        flash->dev.region_info[i].number_of_blocks =  alt_read_16bit_query_entry( 
                                                            flash,
                                                            (0x2D+i*4));
    2618:	e0bff517 	ldw	r2,-44(fp)
    261c:	1085883a 	add	r2,r2,r2
    2620:	1085883a 	add	r2,r2,r2
    }
    else
    {
      for(i=0;i<flash->dev.number_of_regions;i++)
      {
        flash->dev.region_info[i].number_of_blocks =  alt_read_16bit_query_entry( 
    2624:	10800b44 	addi	r2,r2,45
    2628:	100b883a 	mov	r5,r2
    262c:	e13fff17 	ldw	r4,-4(fp)
    2630:	00023ec0 	call	23ec <alt_read_16bit_query_entry>
    2634:	10ffffcc 	andi	r3,r2,65535
    2638:	e13fff17 	ldw	r4,-4(fp)
    263c:	e0bff517 	ldw	r2,-44(fp)
    2640:	1004913a 	slli	r2,r2,4
    2644:	2085883a 	add	r2,r4,r2
    2648:	10800f04 	addi	r2,r2,60
    264c:	10c00015 	stw	r3,0(r2)
                                                            flash,
                                                            (0x2D+i*4));
        flash->dev.region_info[i].number_of_blocks += 1; 
    2650:	e0ffff17 	ldw	r3,-4(fp)
    2654:	e0bff517 	ldw	r2,-44(fp)
    2658:	1004913a 	slli	r2,r2,4
    265c:	1885883a 	add	r2,r3,r2
    2660:	10800f04 	addi	r2,r2,60
    2664:	10800017 	ldw	r2,0(r2)
    2668:	10c00044 	addi	r3,r2,1
    266c:	e13fff17 	ldw	r4,-4(fp)
    2670:	e0bff517 	ldw	r2,-44(fp)
    2674:	1004913a 	slli	r2,r2,4
    2678:	2085883a 	add	r2,r4,r2
    267c:	10800f04 	addi	r2,r2,60
    2680:	10c00015 	stw	r3,0(r2)
        flash->dev.region_info[i].block_size =  alt_read_16bit_query_entry( flash, 
                                                              (0x2F+i*4));
    2684:	e0bff517 	ldw	r2,-44(fp)
    2688:	1085883a 	add	r2,r2,r2
    268c:	1085883a 	add	r2,r2,r2
      {
        flash->dev.region_info[i].number_of_blocks =  alt_read_16bit_query_entry( 
                                                            flash,
                                                            (0x2D+i*4));
        flash->dev.region_info[i].number_of_blocks += 1; 
        flash->dev.region_info[i].block_size =  alt_read_16bit_query_entry( flash, 
    2690:	10800bc4 	addi	r2,r2,47
    2694:	100b883a 	mov	r5,r2
    2698:	e13fff17 	ldw	r4,-4(fp)
    269c:	00023ec0 	call	23ec <alt_read_16bit_query_entry>
    26a0:	10ffffcc 	andi	r3,r2,65535
    26a4:	e13fff17 	ldw	r4,-4(fp)
    26a8:	e0bff517 	ldw	r2,-44(fp)
    26ac:	10800104 	addi	r2,r2,4
    26b0:	1004913a 	slli	r2,r2,4
    26b4:	2085883a 	add	r2,r4,r2
    26b8:	10c00015 	stw	r3,0(r2)
                                                              (0x2F+i*4));
        flash->dev.region_info[i].block_size *= 256;
    26bc:	e0ffff17 	ldw	r3,-4(fp)
    26c0:	e0bff517 	ldw	r2,-44(fp)
    26c4:	10800104 	addi	r2,r2,4
    26c8:	1004913a 	slli	r2,r2,4
    26cc:	1885883a 	add	r2,r3,r2
    26d0:	10800017 	ldw	r2,0(r2)
    26d4:	1006923a 	slli	r3,r2,8
    26d8:	e13fff17 	ldw	r4,-4(fp)
    26dc:	e0bff517 	ldw	r2,-44(fp)
    26e0:	10800104 	addi	r2,r2,4
    26e4:	1004913a 	slli	r2,r2,4
    26e8:	2085883a 	add	r2,r4,r2
    26ec:	10c00015 	stw	r3,0(r2)
        flash->dev.region_info[i].region_size = 
                                    flash->dev.region_info[i].number_of_blocks 
    26f0:	e0ffff17 	ldw	r3,-4(fp)
    26f4:	e0bff517 	ldw	r2,-44(fp)
    26f8:	1004913a 	slli	r2,r2,4
    26fc:	1885883a 	add	r2,r3,r2
    2700:	10800f04 	addi	r2,r2,60
    2704:	10c00017 	ldw	r3,0(r2)
                                    * flash->dev.region_info[i].block_size;
    2708:	e13fff17 	ldw	r4,-4(fp)
    270c:	e0bff517 	ldw	r2,-44(fp)
    2710:	10800104 	addi	r2,r2,4
    2714:	1004913a 	slli	r2,r2,4
    2718:	2085883a 	add	r2,r4,r2
    271c:	10800017 	ldw	r2,0(r2)
    2720:	1887383a 	mul	r3,r3,r2
                                                            (0x2D+i*4));
        flash->dev.region_info[i].number_of_blocks += 1; 
        flash->dev.region_info[i].block_size =  alt_read_16bit_query_entry( flash, 
                                                              (0x2F+i*4));
        flash->dev.region_info[i].block_size *= 256;
        flash->dev.region_info[i].region_size = 
    2724:	e13fff17 	ldw	r4,-4(fp)
    2728:	e0bff517 	ldw	r2,-44(fp)
    272c:	1004913a 	slli	r2,r2,4
    2730:	2085883a 	add	r2,r4,r2
    2734:	10800e04 	addi	r2,r2,56
    2738:	10c00015 	stw	r3,0(r2)
                                    flash->dev.region_info[i].number_of_blocks 
                                    * flash->dev.region_info[i].block_size;
        size += flash->dev.region_info[i].region_size;
    273c:	e0ffff17 	ldw	r3,-4(fp)
    2740:	e0bff517 	ldw	r2,-44(fp)
    2744:	1004913a 	slli	r2,r2,4
    2748:	1885883a 	add	r2,r3,r2
    274c:	10800e04 	addi	r2,r2,56
    2750:	10800017 	ldw	r2,0(r2)
    2754:	e0fff817 	ldw	r3,-32(fp)
    2758:	1885883a 	add	r2,r3,r2
    275c:	e0bff815 	stw	r2,-32(fp)
    {
      ret_code = -ENOMEM;
    }
    else
    {
      for(i=0;i<flash->dev.number_of_regions;i++)
    2760:	e0bff517 	ldw	r2,-44(fp)
    2764:	10800044 	addi	r2,r2,1
    2768:	e0bff515 	stw	r2,-44(fp)
    276c:	e0bfff17 	ldw	r2,-4(fp)
    2770:	10800c17 	ldw	r2,48(r2)
    2774:	e0fff517 	ldw	r3,-44(fp)
    2778:	18bfa716 	blt	r3,r2,2618 <__alt_mem_onchip_memory+0xf7802618>
                                    flash->dev.region_info[i].number_of_blocks 
                                    * flash->dev.region_info[i].block_size;
        size += flash->dev.region_info[i].region_size;
      }
       
      if (size != device_size)
    277c:	e0fff817 	ldw	r3,-32(fp)
    2780:	e0bffc17 	ldw	r2,-16(fp)
    2784:	18800226 	beq	r3,r2,2790 <alt_read_cfi_table+0x324>
      {
        ret_code = -ENODEV;
    2788:	00bffb44 	movi	r2,-19
    278c:	e0bff715 	stw	r2,-36(fp)
      }
    }
    
    boot_mode = (*flash->read_query)( flash, flash->primary_address + 0xf);
    2790:	e0bfff17 	ldw	r2,-4(fp)
    2794:	10803517 	ldw	r2,212(r2)
    2798:	e0ffff17 	ldw	r3,-4(fp)
    279c:	18c03317 	ldw	r3,204(r3)
    27a0:	18c003c4 	addi	r3,r3,15
    27a4:	180b883a 	mov	r5,r3
    27a8:	e13fff17 	ldw	r4,-4(fp)
    27ac:	103ee83a 	callr	r2
    27b0:	e0bffd05 	stb	r2,-12(fp)
     * Intel Flash parts describe the sections in the order they appear
     * for AMD they just put all the small ones first then the bigger ones
     * So if it's a top boot part we have to reverse the order of the sectors
     * so they're in the correct order
     */
    if ((flash->algorithm == CFI_ALG_AMD) && (boot_mode == TOP_BOOT_DEVICE))
    27b4:	e0bfff17 	ldw	r2,-4(fp)
    27b8:	10802e17 	ldw	r2,184(r2)
    27bc:	10800098 	cmpnei	r2,r2,2
    27c0:	1000601e 	bne	r2,zero,2944 <alt_read_cfi_table+0x4d8>
    27c4:	e0bffd03 	ldbu	r2,-12(fp)
    27c8:	108000d8 	cmpnei	r2,r2,3
    27cc:	10005d1e 	bne	r2,zero,2944 <alt_read_cfi_table+0x4d8>
    {
      for(i=flash->dev.number_of_regions-1, j=0;
    27d0:	e0bfff17 	ldw	r2,-4(fp)
    27d4:	10800c17 	ldw	r2,48(r2)
    27d8:	10bfffc4 	addi	r2,r2,-1
    27dc:	e0bff515 	stw	r2,-44(fp)
    27e0:	e03ff615 	stw	zero,-40(fp)
    27e4:	00005406 	br	2938 <alt_read_cfi_table+0x4cc>
          j<=i;i--,j++)
      {
        swap = flash->dev.region_info[i].region_size;
    27e8:	e0ffff17 	ldw	r3,-4(fp)
    27ec:	e0bff517 	ldw	r2,-44(fp)
    27f0:	1004913a 	slli	r2,r2,4
    27f4:	1885883a 	add	r2,r3,r2
    27f8:	10800e04 	addi	r2,r2,56
    27fc:	10800017 	ldw	r2,0(r2)
    2800:	e0bffe15 	stw	r2,-8(fp)
        flash->dev.region_info[i].region_size =  
                                flash->dev.region_info[j].region_size;
    2804:	e0ffff17 	ldw	r3,-4(fp)
    2808:	e0bff617 	ldw	r2,-40(fp)
    280c:	1004913a 	slli	r2,r2,4
    2810:	1885883a 	add	r2,r3,r2
    2814:	10800e04 	addi	r2,r2,56
    2818:	10c00017 	ldw	r3,0(r2)
    {
      for(i=flash->dev.number_of_regions-1, j=0;
          j<=i;i--,j++)
      {
        swap = flash->dev.region_info[i].region_size;
        flash->dev.region_info[i].region_size =  
    281c:	e13fff17 	ldw	r4,-4(fp)
    2820:	e0bff517 	ldw	r2,-44(fp)
    2824:	1004913a 	slli	r2,r2,4
    2828:	2085883a 	add	r2,r4,r2
    282c:	10800e04 	addi	r2,r2,56
    2830:	10c00015 	stw	r3,0(r2)
                                flash->dev.region_info[j].region_size;
        flash->dev.region_info[j].region_size = swap;
    2834:	e0ffff17 	ldw	r3,-4(fp)
    2838:	e0bff617 	ldw	r2,-40(fp)
    283c:	1004913a 	slli	r2,r2,4
    2840:	1885883a 	add	r2,r3,r2
    2844:	10800e04 	addi	r2,r2,56
    2848:	e0fffe17 	ldw	r3,-8(fp)
    284c:	10c00015 	stw	r3,0(r2)

        swap = flash->dev.region_info[i].block_size;
    2850:	e0ffff17 	ldw	r3,-4(fp)
    2854:	e0bff517 	ldw	r2,-44(fp)
    2858:	10800104 	addi	r2,r2,4
    285c:	1004913a 	slli	r2,r2,4
    2860:	1885883a 	add	r2,r3,r2
    2864:	10800017 	ldw	r2,0(r2)
    2868:	e0bffe15 	stw	r2,-8(fp)
        flash->dev.region_info[i].block_size =  
                                flash->dev.region_info[j].block_size;
    286c:	e0ffff17 	ldw	r3,-4(fp)
    2870:	e0bff617 	ldw	r2,-40(fp)
    2874:	10800104 	addi	r2,r2,4
    2878:	1004913a 	slli	r2,r2,4
    287c:	1885883a 	add	r2,r3,r2
    2880:	10c00017 	ldw	r3,0(r2)
        flash->dev.region_info[i].region_size =  
                                flash->dev.region_info[j].region_size;
        flash->dev.region_info[j].region_size = swap;

        swap = flash->dev.region_info[i].block_size;
        flash->dev.region_info[i].block_size =  
    2884:	e13fff17 	ldw	r4,-4(fp)
    2888:	e0bff517 	ldw	r2,-44(fp)
    288c:	10800104 	addi	r2,r2,4
    2890:	1004913a 	slli	r2,r2,4
    2894:	2085883a 	add	r2,r4,r2
    2898:	10c00015 	stw	r3,0(r2)
                                flash->dev.region_info[j].block_size;
        flash->dev.region_info[j].block_size = swap;
    289c:	e0ffff17 	ldw	r3,-4(fp)
    28a0:	e0bff617 	ldw	r2,-40(fp)
    28a4:	10800104 	addi	r2,r2,4
    28a8:	1004913a 	slli	r2,r2,4
    28ac:	1885883a 	add	r2,r3,r2
    28b0:	e0fffe17 	ldw	r3,-8(fp)
    28b4:	10c00015 	stw	r3,0(r2)
 
        swap = flash->dev.region_info[i].number_of_blocks;
    28b8:	e0ffff17 	ldw	r3,-4(fp)
    28bc:	e0bff517 	ldw	r2,-44(fp)
    28c0:	1004913a 	slli	r2,r2,4
    28c4:	1885883a 	add	r2,r3,r2
    28c8:	10800f04 	addi	r2,r2,60
    28cc:	10800017 	ldw	r2,0(r2)
    28d0:	e0bffe15 	stw	r2,-8(fp)
        flash->dev.region_info[i].number_of_blocks =  
                                flash->dev.region_info[j].number_of_blocks;
    28d4:	e0ffff17 	ldw	r3,-4(fp)
    28d8:	e0bff617 	ldw	r2,-40(fp)
    28dc:	1004913a 	slli	r2,r2,4
    28e0:	1885883a 	add	r2,r3,r2
    28e4:	10800f04 	addi	r2,r2,60
    28e8:	10c00017 	ldw	r3,0(r2)
        flash->dev.region_info[i].block_size =  
                                flash->dev.region_info[j].block_size;
        flash->dev.region_info[j].block_size = swap;
 
        swap = flash->dev.region_info[i].number_of_blocks;
        flash->dev.region_info[i].number_of_blocks =  
    28ec:	e13fff17 	ldw	r4,-4(fp)
    28f0:	e0bff517 	ldw	r2,-44(fp)
    28f4:	1004913a 	slli	r2,r2,4
    28f8:	2085883a 	add	r2,r4,r2
    28fc:	10800f04 	addi	r2,r2,60
    2900:	10c00015 	stw	r3,0(r2)
                                flash->dev.region_info[j].number_of_blocks;
        flash->dev.region_info[j].number_of_blocks = swap;
    2904:	e0ffff17 	ldw	r3,-4(fp)
    2908:	e0bff617 	ldw	r2,-40(fp)
    290c:	1004913a 	slli	r2,r2,4
    2910:	1885883a 	add	r2,r3,r2
    2914:	10800f04 	addi	r2,r2,60
    2918:	e0fffe17 	ldw	r3,-8(fp)
    291c:	10c00015 	stw	r3,0(r2)
     * so they're in the correct order
     */
    if ((flash->algorithm == CFI_ALG_AMD) && (boot_mode == TOP_BOOT_DEVICE))
    {
      for(i=flash->dev.number_of_regions-1, j=0;
          j<=i;i--,j++)
    2920:	e0bff517 	ldw	r2,-44(fp)
    2924:	10bfffc4 	addi	r2,r2,-1
    2928:	e0bff515 	stw	r2,-44(fp)
    292c:	e0bff617 	ldw	r2,-40(fp)
    2930:	10800044 	addi	r2,r2,1
    2934:	e0bff615 	stw	r2,-40(fp)
     * So if it's a top boot part we have to reverse the order of the sectors
     * so they're in the correct order
     */
    if ((flash->algorithm == CFI_ALG_AMD) && (boot_mode == TOP_BOOT_DEVICE))
    {
      for(i=flash->dev.number_of_regions-1, j=0;
    2938:	e0bff617 	ldw	r2,-40(fp)
    293c:	e0fff517 	ldw	r3,-44(fp)
    2940:	18bfa90e 	bge	r3,r2,27e8 <__alt_mem_onchip_memory+0xf78027e8>
        flash->dev.region_info[j].number_of_blocks = swap;

      } 
    }
    
    for(i=0;i<flash->dev.number_of_regions;i++)
    2944:	e03ff515 	stw	zero,-44(fp)
    2948:	00001306 	br	2998 <alt_read_cfi_table+0x52c>
    {
      flash->dev.region_info[i].offset = offset;
    294c:	e0ffff17 	ldw	r3,-4(fp)
    2950:	e0bff517 	ldw	r2,-44(fp)
    2954:	1004913a 	slli	r2,r2,4
    2958:	1885883a 	add	r2,r3,r2
    295c:	10800d04 	addi	r2,r2,52
    2960:	e0fff917 	ldw	r3,-28(fp)
    2964:	10c00015 	stw	r3,0(r2)
      offset += flash->dev.region_info[i].region_size;
    2968:	e0ffff17 	ldw	r3,-4(fp)
    296c:	e0bff517 	ldw	r2,-44(fp)
    2970:	1004913a 	slli	r2,r2,4
    2974:	1885883a 	add	r2,r3,r2
    2978:	10800e04 	addi	r2,r2,56
    297c:	10800017 	ldw	r2,0(r2)
    2980:	e0fff917 	ldw	r3,-28(fp)
    2984:	1885883a 	add	r2,r3,r2
    2988:	e0bff915 	stw	r2,-28(fp)
        flash->dev.region_info[j].number_of_blocks = swap;

      } 
    }
    
    for(i=0;i<flash->dev.number_of_regions;i++)
    298c:	e0bff517 	ldw	r2,-44(fp)
    2990:	10800044 	addi	r2,r2,1
    2994:	e0bff515 	stw	r2,-44(fp)
    2998:	e0bfff17 	ldw	r2,-4(fp)
    299c:	10800c17 	ldw	r2,48(r2)
    29a0:	e0fff517 	ldw	r3,-44(fp)
    29a4:	18bfe916 	blt	r3,r2,294c <__alt_mem_onchip_memory+0xf780294c>
    {
      flash->dev.region_info[i].offset = offset;
      offset += flash->dev.region_info[i].region_size;
    }

    switch(flash->algorithm)
    29a8:	e0bfff17 	ldw	r2,-4(fp)
    29ac:	10802e17 	ldw	r2,184(r2)
    29b0:	10c000a0 	cmpeqi	r3,r2,2
    29b4:	1800051e 	bne	r3,zero,29cc <alt_read_cfi_table+0x560>
    29b8:	10c000e0 	cmpeqi	r3,r2,3
    29bc:	18000c1e 	bne	r3,zero,29f0 <alt_read_cfi_table+0x584>
    29c0:	10800060 	cmpeqi	r2,r2,1
    29c4:	10000a1e 	bne	r2,zero,29f0 <alt_read_cfi_table+0x584>
    29c8:	00001206 	br	2a14 <alt_read_cfi_table+0x5a8>
    {
      case CFI_ALG_AMD:
      {
        (*flash->write_command)(flash->dev.base_addr, 
    29cc:	e0bfff17 	ldw	r2,-4(fp)
    29d0:	10803417 	ldw	r2,208(r2)
    29d4:	e0ffff17 	ldw	r3,-4(fp)
    29d8:	18c00a17 	ldw	r3,40(r3)
    29dc:	01803c04 	movi	r6,240
    29e0:	01401544 	movi	r5,85
    29e4:	1809883a 	mov	r4,r3
    29e8:	103ee83a 	callr	r2
                            0x55, 
                            READ_ARRAY_AMD_MODE);
        break;
    29ec:	00000b06 	br	2a1c <alt_read_cfi_table+0x5b0>
      }
      case CFI_ALG_INTEL:
      case CFI_ALG_INTEL_STRATA:
      {
        (*flash->write_command)(flash->dev.base_addr, 
    29f0:	e0bfff17 	ldw	r2,-4(fp)
    29f4:	10803417 	ldw	r2,208(r2)
    29f8:	e0ffff17 	ldw	r3,-4(fp)
    29fc:	18c00a17 	ldw	r3,40(r3)
    2a00:	01803fc4 	movi	r6,255
    2a04:	01401544 	movi	r5,85
    2a08:	1809883a 	mov	r4,r3
    2a0c:	103ee83a 	callr	r2
                            0x55, 
                            READ_ARRAY_INTEL_MODE);
        break;
    2a10:	00000206 	br	2a1c <alt_read_cfi_table+0x5b0>
      }
      default:
      {
        ret_code = -EIO;
    2a14:	00bffec4 	movi	r2,-5
    2a18:	e0bff715 	stw	r2,-36(fp)
      }
    } 
  }  

  return ret_code;
    2a1c:	e0bff717 	ldw	r2,-36(fp)
}
    2a20:	e037883a 	mov	sp,fp
    2a24:	dfc00117 	ldw	ra,4(sp)
    2a28:	df000017 	ldw	fp,0(sp)
    2a2c:	dec00204 	addi	sp,sp,8
    2a30:	f800283a 	ret

00002a34 <alt_read_cfi_width>:
 * 
 * Work out the width of the device we're talking to and sanity check that we  
 * can read the CFI and the Primary Vendor specific Table
 */
int alt_read_cfi_width(alt_flash_cfi_dev* flash)
{
    2a34:	defff704 	addi	sp,sp,-36
    2a38:	dfc00815 	stw	ra,32(sp)
    2a3c:	df000715 	stw	fp,28(sp)
    2a40:	df000704 	addi	fp,sp,28
    2a44:	e13fff15 	stw	r4,-4(fp)
  int i;
  alt_u8 byte_id[12];
  alt_u16 iface;
  int ret_code = 0;
    2a48:	e03ffa15 	stw	zero,-24(fp)

  /*
  * Check for 8 bit wide flash
  */
  alt_write_flash_command_8bit_device_8bit_mode(flash->dev.base_addr, 0x55, QUERY_MODE);
    2a4c:	e0bfff17 	ldw	r2,-4(fp)
    2a50:	10800a17 	ldw	r2,40(r2)
    2a54:	01802604 	movi	r6,152
    2a58:	01401544 	movi	r5,85
    2a5c:	1009883a 	mov	r4,r2
    2a60:	0001ef00 	call	1ef0 <alt_write_flash_command_8bit_device_8bit_mode>

  for(i=0;i<3;i++)
    2a64:	e03ff915 	stw	zero,-28(fp)
    2a68:	00000f06 	br	2aa8 <alt_read_cfi_width+0x74>
  {
    byte_id[i] = IORD_8DIRECT(flash->dev.base_addr, QUERY_ADDR+i);
    2a6c:	e0bfff17 	ldw	r2,-4(fp)
    2a70:	10800a17 	ldw	r2,40(r2)
    2a74:	e0fff917 	ldw	r3,-28(fp)
    2a78:	18c00404 	addi	r3,r3,16
    2a7c:	10c5883a 	add	r2,r2,r3
    2a80:	10800023 	ldbuio	r2,0(r2)
    2a84:	10803fcc 	andi	r2,r2,255
    2a88:	1009883a 	mov	r4,r2
    2a8c:	e0fffb84 	addi	r3,fp,-18
    2a90:	e0bff917 	ldw	r2,-28(fp)
    2a94:	1885883a 	add	r2,r3,r2
    2a98:	11000005 	stb	r4,0(r2)
  /*
  * Check for 8 bit wide flash
  */
  alt_write_flash_command_8bit_device_8bit_mode(flash->dev.base_addr, 0x55, QUERY_MODE);

  for(i=0;i<3;i++)
    2a9c:	e0bff917 	ldw	r2,-28(fp)
    2aa0:	10800044 	addi	r2,r2,1
    2aa4:	e0bff915 	stw	r2,-28(fp)
    2aa8:	e0bff917 	ldw	r2,-28(fp)
    2aac:	108000d0 	cmplti	r2,r2,3
    2ab0:	103fee1e 	bne	r2,zero,2a6c <__alt_mem_onchip_memory+0xf7802a6c>
  {
    byte_id[i] = IORD_8DIRECT(flash->dev.base_addr, QUERY_ADDR+i);
  }

  if ((byte_id[0] == 'Q') &&
    2ab4:	e0bffb83 	ldbu	r2,-18(fp)
    2ab8:	10803fcc 	andi	r2,r2,255
    2abc:	10801458 	cmpnei	r2,r2,81
    2ac0:	10001d1e 	bne	r2,zero,2b38 <alt_read_cfi_width+0x104>
      (byte_id[1] == 'R') &&
    2ac4:	e0bffbc3 	ldbu	r2,-17(fp)
  for(i=0;i<3;i++)
  {
    byte_id[i] = IORD_8DIRECT(flash->dev.base_addr, QUERY_ADDR+i);
  }

  if ((byte_id[0] == 'Q') &&
    2ac8:	10803fcc 	andi	r2,r2,255
    2acc:	10801498 	cmpnei	r2,r2,82
    2ad0:	1000191e 	bne	r2,zero,2b38 <alt_read_cfi_width+0x104>
      (byte_id[1] == 'R') &&
      (byte_id[2] == 'Y'))
    2ad4:	e0bffc03 	ldbu	r2,-16(fp)
  {
    byte_id[i] = IORD_8DIRECT(flash->dev.base_addr, QUERY_ADDR+i);
  }

  if ((byte_id[0] == 'Q') &&
      (byte_id[1] == 'R') &&
    2ad8:	10803fcc 	andi	r2,r2,255
    2adc:	10801658 	cmpnei	r2,r2,89
    2ae0:	1000151e 	bne	r2,zero,2b38 <alt_read_cfi_width+0x104>
      (byte_id[2] == 'Y'))
  {
    flash->mode_width = 1;
    2ae4:	e0bfff17 	ldw	r2,-4(fp)
    2ae8:	00c00044 	movi	r3,1
    2aec:	10c02f15 	stw	r3,188(r2)
    flash->device_width = 1; 
    2af0:	e0bfff17 	ldw	r2,-4(fp)
    2af4:	00c00044 	movi	r3,1
    2af8:	10c03015 	stw	r3,192(r2)
    iface = IORD_16DIRECT(flash->dev.base_addr, INTERFACE_ADDR);
    2afc:	e0bfff17 	ldw	r2,-4(fp)
    2b00:	10800a17 	ldw	r2,40(r2)
    2b04:	10800a04 	addi	r2,r2,40
    2b08:	1080002b 	ldhuio	r2,0(r2)
    2b0c:	10bfffcc 	andi	r2,r2,65535
    2b10:	e0bffb0d 	sth	r2,-20(fp)
    iface += 1;
    2b14:	e0bffb0b 	ldhu	r2,-20(fp)
    2b18:	10800044 	addi	r2,r2,1
    2b1c:	e0bffb0d 	sth	r2,-20(fp)
    if (!(iface & 0x1))
    2b20:	e0bffb0b 	ldhu	r2,-20(fp)
    2b24:	1080004c 	andi	r2,r2,1
    2b28:	1001981e 	bne	r2,zero,318c <alt_read_cfi_width+0x758>
    {
      ret_code = -ENODEV;
    2b2c:	00bffb44 	movi	r2,-19
    2b30:	e0bffa15 	stw	r2,-24(fp)
  {
    flash->mode_width = 1;
    flash->device_width = 1; 
    iface = IORD_16DIRECT(flash->dev.base_addr, INTERFACE_ADDR);
    iface += 1;
    if (!(iface & 0x1))
    2b34:	00019506 	br	318c <alt_read_cfi_width+0x758>
  else
  {
    /*
    * Check for 8/16 bit in byte wide mode
    */
    alt_write_flash_command_16bit_device_8bit_mode(flash->dev.base_addr, 0x55, QUERY_MODE);
    2b38:	e0bfff17 	ldw	r2,-4(fp)
    2b3c:	10800a17 	ldw	r2,40(r2)
    2b40:	01802604 	movi	r6,152
    2b44:	01401544 	movi	r5,85
    2b48:	1009883a 	mov	r4,r2
    2b4c:	0001f340 	call	1f34 <alt_write_flash_command_16bit_device_8bit_mode>
    for(i=0;i<6;i++)
    2b50:	e03ff915 	stw	zero,-28(fp)
    2b54:	00000f06 	br	2b94 <alt_read_cfi_width+0x160>
    {
      byte_id[i] = IORD_8DIRECT(flash->dev.base_addr, (QUERY_ADDR*2)+i);
    2b58:	e0bfff17 	ldw	r2,-4(fp)
    2b5c:	10800a17 	ldw	r2,40(r2)
    2b60:	e0fff917 	ldw	r3,-28(fp)
    2b64:	18c00804 	addi	r3,r3,32
    2b68:	10c5883a 	add	r2,r2,r3
    2b6c:	10800023 	ldbuio	r2,0(r2)
    2b70:	10803fcc 	andi	r2,r2,255
    2b74:	1009883a 	mov	r4,r2
    2b78:	e0fffb84 	addi	r3,fp,-18
    2b7c:	e0bff917 	ldw	r2,-28(fp)
    2b80:	1885883a 	add	r2,r3,r2
    2b84:	11000005 	stb	r4,0(r2)
  {
    /*
    * Check for 8/16 bit in byte wide mode
    */
    alt_write_flash_command_16bit_device_8bit_mode(flash->dev.base_addr, 0x55, QUERY_MODE);
    for(i=0;i<6;i++)
    2b88:	e0bff917 	ldw	r2,-28(fp)
    2b8c:	10800044 	addi	r2,r2,1
    2b90:	e0bff915 	stw	r2,-28(fp)
    2b94:	e0bff917 	ldw	r2,-28(fp)
    2b98:	10800190 	cmplti	r2,r2,6
    2b9c:	103fee1e 	bne	r2,zero,2b58 <__alt_mem_onchip_memory+0xf7802b58>
    {
      byte_id[i] = IORD_8DIRECT(flash->dev.base_addr, (QUERY_ADDR*2)+i);
    }

    if ((byte_id[0] == 'Q') && 
    2ba0:	e0bffb83 	ldbu	r2,-18(fp)
    2ba4:	10803fcc 	andi	r2,r2,255
    2ba8:	10801458 	cmpnei	r2,r2,81
    2bac:	1000291e 	bne	r2,zero,2c54 <alt_read_cfi_width+0x220>
        (byte_id[1] == 'Q') && 
    2bb0:	e0bffbc3 	ldbu	r2,-17(fp)
    for(i=0;i<6;i++)
    {
      byte_id[i] = IORD_8DIRECT(flash->dev.base_addr, (QUERY_ADDR*2)+i);
    }

    if ((byte_id[0] == 'Q') && 
    2bb4:	10803fcc 	andi	r2,r2,255
    2bb8:	10801458 	cmpnei	r2,r2,81
    2bbc:	1000251e 	bne	r2,zero,2c54 <alt_read_cfi_width+0x220>
        (byte_id[1] == 'Q') && 
        (byte_id[2] == 'R') &&
    2bc0:	e0bffc03 	ldbu	r2,-16(fp)
    {
      byte_id[i] = IORD_8DIRECT(flash->dev.base_addr, (QUERY_ADDR*2)+i);
    }

    if ((byte_id[0] == 'Q') && 
        (byte_id[1] == 'Q') && 
    2bc4:	10803fcc 	andi	r2,r2,255
    2bc8:	10801498 	cmpnei	r2,r2,82
    2bcc:	1000211e 	bne	r2,zero,2c54 <alt_read_cfi_width+0x220>
        (byte_id[2] == 'R') &&
        (byte_id[3] == 'R') && 
    2bd0:	e0bffc43 	ldbu	r2,-15(fp)
      byte_id[i] = IORD_8DIRECT(flash->dev.base_addr, (QUERY_ADDR*2)+i);
    }

    if ((byte_id[0] == 'Q') && 
        (byte_id[1] == 'Q') && 
        (byte_id[2] == 'R') &&
    2bd4:	10803fcc 	andi	r2,r2,255
    2bd8:	10801498 	cmpnei	r2,r2,82
    2bdc:	10001d1e 	bne	r2,zero,2c54 <alt_read_cfi_width+0x220>
        (byte_id[3] == 'R') && 
        (byte_id[4] == 'Y') && 
    2be0:	e0bffc83 	ldbu	r2,-14(fp)
    }

    if ((byte_id[0] == 'Q') && 
        (byte_id[1] == 'Q') && 
        (byte_id[2] == 'R') &&
        (byte_id[3] == 'R') && 
    2be4:	10803fcc 	andi	r2,r2,255
    2be8:	10801658 	cmpnei	r2,r2,89
    2bec:	1000191e 	bne	r2,zero,2c54 <alt_read_cfi_width+0x220>
        (byte_id[4] == 'Y') && 
        (byte_id[5] == 'Y'))
    2bf0:	e0bffcc3 	ldbu	r2,-13(fp)

    if ((byte_id[0] == 'Q') && 
        (byte_id[1] == 'Q') && 
        (byte_id[2] == 'R') &&
        (byte_id[3] == 'R') && 
        (byte_id[4] == 'Y') && 
    2bf4:	10803fcc 	andi	r2,r2,255
    2bf8:	10801658 	cmpnei	r2,r2,89
    2bfc:	1000151e 	bne	r2,zero,2c54 <alt_read_cfi_width+0x220>
        (byte_id[5] == 'Y'))
    {
      flash->mode_width = 1;
    2c00:	e0bfff17 	ldw	r2,-4(fp)
    2c04:	00c00044 	movi	r3,1
    2c08:	10c02f15 	stw	r3,188(r2)
      flash->device_width = 2; 
    2c0c:	e0bfff17 	ldw	r2,-4(fp)
    2c10:	00c00084 	movi	r3,2
    2c14:	10c03015 	stw	r3,192(r2)
      iface = IORD_16DIRECT(flash->dev.base_addr, INTERFACE_ADDR*2);
    2c18:	e0bfff17 	ldw	r2,-4(fp)
    2c1c:	10800a17 	ldw	r2,40(r2)
    2c20:	10801404 	addi	r2,r2,80
    2c24:	1080002b 	ldhuio	r2,0(r2)
    2c28:	10bfffcc 	andi	r2,r2,65535
    2c2c:	e0bffb0d 	sth	r2,-20(fp)
      iface += 1;
    2c30:	e0bffb0b 	ldhu	r2,-20(fp)
    2c34:	10800044 	addi	r2,r2,1
    2c38:	e0bffb0d 	sth	r2,-20(fp)
      if (!(iface & 0x1))
    2c3c:	e0bffb0b 	ldhu	r2,-20(fp)
    2c40:	1080004c 	andi	r2,r2,1
    2c44:	1001511e 	bne	r2,zero,318c <alt_read_cfi_width+0x758>
      {
        ret_code = -ENODEV;
    2c48:	00bffb44 	movi	r2,-19
    2c4c:	e0bffa15 	stw	r2,-24(fp)
    {
      flash->mode_width = 1;
      flash->device_width = 2; 
      iface = IORD_16DIRECT(flash->dev.base_addr, INTERFACE_ADDR*2);
      iface += 1;
      if (!(iface & 0x1))
    2c50:	00014e06 	br	318c <alt_read_cfi_width+0x758>
    else
    {
      /*
      * Check for 16 bit flash in word mode
      */
      alt_write_flash_command_16bit_device_16bit_mode(flash->dev.base_addr, 0x55, QUERY_MODE);
    2c54:	e0bfff17 	ldw	r2,-4(fp)
    2c58:	10800a17 	ldw	r2,40(r2)
    2c5c:	01802604 	movi	r6,152
    2c60:	01401544 	movi	r5,85
    2c64:	1009883a 	mov	r4,r2
    2c68:	0001ffc0 	call	1ffc <alt_write_flash_command_16bit_device_16bit_mode>
      for(i=0;i<6;i++)
    2c6c:	e03ff915 	stw	zero,-28(fp)
    2c70:	00000f06 	br	2cb0 <alt_read_cfi_width+0x27c>
      {
        byte_id[i] = IORD_8DIRECT(flash->dev.base_addr, (QUERY_ADDR*2)+i);
    2c74:	e0bfff17 	ldw	r2,-4(fp)
    2c78:	10800a17 	ldw	r2,40(r2)
    2c7c:	e0fff917 	ldw	r3,-28(fp)
    2c80:	18c00804 	addi	r3,r3,32
    2c84:	10c5883a 	add	r2,r2,r3
    2c88:	10800023 	ldbuio	r2,0(r2)
    2c8c:	10803fcc 	andi	r2,r2,255
    2c90:	1009883a 	mov	r4,r2
    2c94:	e0fffb84 	addi	r3,fp,-18
    2c98:	e0bff917 	ldw	r2,-28(fp)
    2c9c:	1885883a 	add	r2,r3,r2
    2ca0:	11000005 	stb	r4,0(r2)
    {
      /*
      * Check for 16 bit flash in word mode
      */
      alt_write_flash_command_16bit_device_16bit_mode(flash->dev.base_addr, 0x55, QUERY_MODE);
      for(i=0;i<6;i++)
    2ca4:	e0bff917 	ldw	r2,-28(fp)
    2ca8:	10800044 	addi	r2,r2,1
    2cac:	e0bff915 	stw	r2,-28(fp)
    2cb0:	e0bff917 	ldw	r2,-28(fp)
    2cb4:	10800190 	cmplti	r2,r2,6
    2cb8:	103fee1e 	bne	r2,zero,2c74 <__alt_mem_onchip_memory+0xf7802c74>
      {
        byte_id[i] = IORD_8DIRECT(flash->dev.base_addr, (QUERY_ADDR*2)+i);
      }

      if ((byte_id[0] == 'Q') && 
    2cbc:	e0bffb83 	ldbu	r2,-18(fp)
    2cc0:	10803fcc 	andi	r2,r2,255
    2cc4:	10801458 	cmpnei	r2,r2,81
    2cc8:	1000261e 	bne	r2,zero,2d64 <alt_read_cfi_width+0x330>
          (byte_id[1] == '\0') && 
    2ccc:	e0bffbc3 	ldbu	r2,-17(fp)
      for(i=0;i<6;i++)
      {
        byte_id[i] = IORD_8DIRECT(flash->dev.base_addr, (QUERY_ADDR*2)+i);
      }

      if ((byte_id[0] == 'Q') && 
    2cd0:	10803fcc 	andi	r2,r2,255
    2cd4:	1000231e 	bne	r2,zero,2d64 <alt_read_cfi_width+0x330>
          (byte_id[1] == '\0') && 
          (byte_id[2] == 'R') && 
    2cd8:	e0bffc03 	ldbu	r2,-16(fp)
      {
        byte_id[i] = IORD_8DIRECT(flash->dev.base_addr, (QUERY_ADDR*2)+i);
      }

      if ((byte_id[0] == 'Q') && 
          (byte_id[1] == '\0') && 
    2cdc:	10803fcc 	andi	r2,r2,255
    2ce0:	10801498 	cmpnei	r2,r2,82
    2ce4:	10001f1e 	bne	r2,zero,2d64 <alt_read_cfi_width+0x330>
          (byte_id[2] == 'R') && 
          (byte_id[3] == '\0') && 
    2ce8:	e0bffc43 	ldbu	r2,-15(fp)
        byte_id[i] = IORD_8DIRECT(flash->dev.base_addr, (QUERY_ADDR*2)+i);
      }

      if ((byte_id[0] == 'Q') && 
          (byte_id[1] == '\0') && 
          (byte_id[2] == 'R') && 
    2cec:	10803fcc 	andi	r2,r2,255
    2cf0:	10001c1e 	bne	r2,zero,2d64 <alt_read_cfi_width+0x330>
          (byte_id[3] == '\0') && 
          (byte_id[4] == 'Y') && 
    2cf4:	e0bffc83 	ldbu	r2,-14(fp)
      }

      if ((byte_id[0] == 'Q') && 
          (byte_id[1] == '\0') && 
          (byte_id[2] == 'R') && 
          (byte_id[3] == '\0') && 
    2cf8:	10803fcc 	andi	r2,r2,255
    2cfc:	10801658 	cmpnei	r2,r2,89
    2d00:	1000181e 	bne	r2,zero,2d64 <alt_read_cfi_width+0x330>
          (byte_id[4] == 'Y') && 
          (byte_id[5] == '\0'))
    2d04:	e0bffcc3 	ldbu	r2,-13(fp)

      if ((byte_id[0] == 'Q') && 
          (byte_id[1] == '\0') && 
          (byte_id[2] == 'R') && 
          (byte_id[3] == '\0') && 
          (byte_id[4] == 'Y') && 
    2d08:	10803fcc 	andi	r2,r2,255
    2d0c:	1000151e 	bne	r2,zero,2d64 <alt_read_cfi_width+0x330>
          (byte_id[5] == '\0'))
      {
        flash->mode_width = 2;
    2d10:	e0bfff17 	ldw	r2,-4(fp)
    2d14:	00c00084 	movi	r3,2
    2d18:	10c02f15 	stw	r3,188(r2)
        flash->device_width = 2; 
    2d1c:	e0bfff17 	ldw	r2,-4(fp)
    2d20:	00c00084 	movi	r3,2
    2d24:	10c03015 	stw	r3,192(r2)
        iface = IORD_16DIRECT(flash->dev.base_addr, INTERFACE_ADDR*2);
    2d28:	e0bfff17 	ldw	r2,-4(fp)
    2d2c:	10800a17 	ldw	r2,40(r2)
    2d30:	10801404 	addi	r2,r2,80
    2d34:	1080002b 	ldhuio	r2,0(r2)
    2d38:	10bfffcc 	andi	r2,r2,65535
    2d3c:	e0bffb0d 	sth	r2,-20(fp)
        iface += 1;
    2d40:	e0bffb0b 	ldhu	r2,-20(fp)
    2d44:	10800044 	addi	r2,r2,1
    2d48:	e0bffb0d 	sth	r2,-20(fp)
        if (!(iface & 0x2))
    2d4c:	e0bffb0b 	ldhu	r2,-20(fp)
    2d50:	1080008c 	andi	r2,r2,2
    2d54:	10010d1e 	bne	r2,zero,318c <alt_read_cfi_width+0x758>
        {
          ret_code = -ENODEV;
    2d58:	00bffb44 	movi	r2,-19
    2d5c:	e0bffa15 	stw	r2,-24(fp)
      {
        flash->mode_width = 2;
        flash->device_width = 2; 
        iface = IORD_16DIRECT(flash->dev.base_addr, INTERFACE_ADDR*2);
        iface += 1;
        if (!(iface & 0x2))
    2d60:	00010a06 	br	318c <alt_read_cfi_width+0x758>
      else
      {
        /*
        * Check for 32bit wide flash in 32 bit mode
        */
        alt_write_flash_command_32bit_device_32bit_mode(flash->dev.base_addr, 0x55, QUERY_MODE);
    2d64:	e0bfff17 	ldw	r2,-4(fp)
    2d68:	10800a17 	ldw	r2,40(r2)
    2d6c:	01802604 	movi	r6,152
    2d70:	01401544 	movi	r5,85
    2d74:	1009883a 	mov	r4,r2
    2d78:	00020980 	call	2098 <alt_write_flash_command_32bit_device_32bit_mode>
        for(i=0;i<12;i++)
    2d7c:	e03ff915 	stw	zero,-28(fp)
    2d80:	00000f06 	br	2dc0 <alt_read_cfi_width+0x38c>
        {
          byte_id[i] = IORD_8DIRECT(flash->dev.base_addr, (QUERY_ADDR*4)+i);
    2d84:	e0bfff17 	ldw	r2,-4(fp)
    2d88:	10800a17 	ldw	r2,40(r2)
    2d8c:	e0fff917 	ldw	r3,-28(fp)
    2d90:	18c01004 	addi	r3,r3,64
    2d94:	10c5883a 	add	r2,r2,r3
    2d98:	10800023 	ldbuio	r2,0(r2)
    2d9c:	10803fcc 	andi	r2,r2,255
    2da0:	1009883a 	mov	r4,r2
    2da4:	e0fffb84 	addi	r3,fp,-18
    2da8:	e0bff917 	ldw	r2,-28(fp)
    2dac:	1885883a 	add	r2,r3,r2
    2db0:	11000005 	stb	r4,0(r2)
      {
        /*
        * Check for 32bit wide flash in 32 bit mode
        */
        alt_write_flash_command_32bit_device_32bit_mode(flash->dev.base_addr, 0x55, QUERY_MODE);
        for(i=0;i<12;i++)
    2db4:	e0bff917 	ldw	r2,-28(fp)
    2db8:	10800044 	addi	r2,r2,1
    2dbc:	e0bff915 	stw	r2,-28(fp)
    2dc0:	e0bff917 	ldw	r2,-28(fp)
    2dc4:	10800310 	cmplti	r2,r2,12
    2dc8:	103fee1e 	bne	r2,zero,2d84 <__alt_mem_onchip_memory+0xf7802d84>
        {
          byte_id[i] = IORD_8DIRECT(flash->dev.base_addr, (QUERY_ADDR*4)+i);
        }

        if ((byte_id[0] == 'Q') &&
    2dcc:	e0bffb83 	ldbu	r2,-18(fp)
    2dd0:	10803fcc 	andi	r2,r2,255
    2dd4:	10801458 	cmpnei	r2,r2,81
    2dd8:	1000371e 	bne	r2,zero,2eb8 <alt_read_cfi_width+0x484>
          (byte_id[1] == '\0') && 
    2ddc:	e0bffbc3 	ldbu	r2,-17(fp)
        for(i=0;i<12;i++)
        {
          byte_id[i] = IORD_8DIRECT(flash->dev.base_addr, (QUERY_ADDR*4)+i);
        }

        if ((byte_id[0] == 'Q') &&
    2de0:	10803fcc 	andi	r2,r2,255
    2de4:	1000341e 	bne	r2,zero,2eb8 <alt_read_cfi_width+0x484>
          (byte_id[1] == '\0') && 
          (byte_id[2] == '\0') && 
    2de8:	e0bffc03 	ldbu	r2,-16(fp)
        {
          byte_id[i] = IORD_8DIRECT(flash->dev.base_addr, (QUERY_ADDR*4)+i);
        }

        if ((byte_id[0] == 'Q') &&
          (byte_id[1] == '\0') && 
    2dec:	10803fcc 	andi	r2,r2,255
    2df0:	1000311e 	bne	r2,zero,2eb8 <alt_read_cfi_width+0x484>
          (byte_id[2] == '\0') && 
          (byte_id[3] == '\0') && 
    2df4:	e0bffc43 	ldbu	r2,-15(fp)
          byte_id[i] = IORD_8DIRECT(flash->dev.base_addr, (QUERY_ADDR*4)+i);
        }

        if ((byte_id[0] == 'Q') &&
          (byte_id[1] == '\0') && 
          (byte_id[2] == '\0') && 
    2df8:	10803fcc 	andi	r2,r2,255
    2dfc:	10002e1e 	bne	r2,zero,2eb8 <alt_read_cfi_width+0x484>
          (byte_id[3] == '\0') && 
          (byte_id[4] == 'R') && 
    2e00:	e0bffc83 	ldbu	r2,-14(fp)
        }

        if ((byte_id[0] == 'Q') &&
          (byte_id[1] == '\0') && 
          (byte_id[2] == '\0') && 
          (byte_id[3] == '\0') && 
    2e04:	10803fcc 	andi	r2,r2,255
    2e08:	10801498 	cmpnei	r2,r2,82
    2e0c:	10002a1e 	bne	r2,zero,2eb8 <alt_read_cfi_width+0x484>
          (byte_id[4] == 'R') && 
          (byte_id[5] == '\0') && 
    2e10:	e0bffcc3 	ldbu	r2,-13(fp)

        if ((byte_id[0] == 'Q') &&
          (byte_id[1] == '\0') && 
          (byte_id[2] == '\0') && 
          (byte_id[3] == '\0') && 
          (byte_id[4] == 'R') && 
    2e14:	10803fcc 	andi	r2,r2,255
    2e18:	1000271e 	bne	r2,zero,2eb8 <alt_read_cfi_width+0x484>
          (byte_id[5] == '\0') && 
          (byte_id[6] == '\0') && 
    2e1c:	e0bffd03 	ldbu	r2,-12(fp)
        if ((byte_id[0] == 'Q') &&
          (byte_id[1] == '\0') && 
          (byte_id[2] == '\0') && 
          (byte_id[3] == '\0') && 
          (byte_id[4] == 'R') && 
          (byte_id[5] == '\0') && 
    2e20:	10803fcc 	andi	r2,r2,255
    2e24:	1000241e 	bne	r2,zero,2eb8 <alt_read_cfi_width+0x484>
          (byte_id[6] == '\0') && 
          (byte_id[7] == '\0') && 
    2e28:	e0bffd43 	ldbu	r2,-11(fp)
          (byte_id[1] == '\0') && 
          (byte_id[2] == '\0') && 
          (byte_id[3] == '\0') && 
          (byte_id[4] == 'R') && 
          (byte_id[5] == '\0') && 
          (byte_id[6] == '\0') && 
    2e2c:	10803fcc 	andi	r2,r2,255
    2e30:	1000211e 	bne	r2,zero,2eb8 <alt_read_cfi_width+0x484>
          (byte_id[7] == '\0') && 
          (byte_id[8] == 'Y') && 
    2e34:	e0bffd83 	ldbu	r2,-10(fp)
          (byte_id[2] == '\0') && 
          (byte_id[3] == '\0') && 
          (byte_id[4] == 'R') && 
          (byte_id[5] == '\0') && 
          (byte_id[6] == '\0') && 
          (byte_id[7] == '\0') && 
    2e38:	10803fcc 	andi	r2,r2,255
    2e3c:	10801658 	cmpnei	r2,r2,89
    2e40:	10001d1e 	bne	r2,zero,2eb8 <alt_read_cfi_width+0x484>
          (byte_id[8] == 'Y') && 
          (byte_id[9] == '\0') && 
    2e44:	e0bffdc3 	ldbu	r2,-9(fp)
          (byte_id[3] == '\0') && 
          (byte_id[4] == 'R') && 
          (byte_id[5] == '\0') && 
          (byte_id[6] == '\0') && 
          (byte_id[7] == '\0') && 
          (byte_id[8] == 'Y') && 
    2e48:	10803fcc 	andi	r2,r2,255
    2e4c:	10001a1e 	bne	r2,zero,2eb8 <alt_read_cfi_width+0x484>
          (byte_id[9] == '\0') && 
          (byte_id[10] == '\0') && 
    2e50:	e0bffe03 	ldbu	r2,-8(fp)
          (byte_id[4] == 'R') && 
          (byte_id[5] == '\0') && 
          (byte_id[6] == '\0') && 
          (byte_id[7] == '\0') && 
          (byte_id[8] == 'Y') && 
          (byte_id[9] == '\0') && 
    2e54:	10803fcc 	andi	r2,r2,255
    2e58:	1000171e 	bne	r2,zero,2eb8 <alt_read_cfi_width+0x484>
          (byte_id[10] == '\0') && 
          (byte_id[11] == '\0'))
    2e5c:	e0bffe43 	ldbu	r2,-7(fp)
          (byte_id[5] == '\0') && 
          (byte_id[6] == '\0') && 
          (byte_id[7] == '\0') && 
          (byte_id[8] == 'Y') && 
          (byte_id[9] == '\0') && 
          (byte_id[10] == '\0') && 
    2e60:	10803fcc 	andi	r2,r2,255
    2e64:	1000141e 	bne	r2,zero,2eb8 <alt_read_cfi_width+0x484>
          (byte_id[11] == '\0'))
        {
          flash->mode_width = 4;
    2e68:	e0bfff17 	ldw	r2,-4(fp)
    2e6c:	00c00104 	movi	r3,4
    2e70:	10c02f15 	stw	r3,188(r2)
          flash->device_width = 4; 
    2e74:	e0bfff17 	ldw	r2,-4(fp)
    2e78:	00c00104 	movi	r3,4
    2e7c:	10c03015 	stw	r3,192(r2)
          iface = IORD_32DIRECT(flash->dev.base_addr, INTERFACE_ADDR*4);
    2e80:	e0bfff17 	ldw	r2,-4(fp)
    2e84:	10800a17 	ldw	r2,40(r2)
    2e88:	10802804 	addi	r2,r2,160
    2e8c:	10800037 	ldwio	r2,0(r2)
    2e90:	e0bffb0d 	sth	r2,-20(fp)
          iface += 1;
    2e94:	e0bffb0b 	ldhu	r2,-20(fp)
    2e98:	10800044 	addi	r2,r2,1
    2e9c:	e0bffb0d 	sth	r2,-20(fp)
          if (!(iface & 0x4))
    2ea0:	e0bffb0b 	ldhu	r2,-20(fp)
    2ea4:	1080010c 	andi	r2,r2,4
    2ea8:	1000b81e 	bne	r2,zero,318c <alt_read_cfi_width+0x758>
          {
            ret_code = -ENODEV;
    2eac:	00bffb44 	movi	r2,-19
    2eb0:	e0bffa15 	stw	r2,-24(fp)
        {
          flash->mode_width = 4;
          flash->device_width = 4; 
          iface = IORD_32DIRECT(flash->dev.base_addr, INTERFACE_ADDR*4);
          iface += 1;
          if (!(iface & 0x4))
    2eb4:	0000b506 	br	318c <alt_read_cfi_width+0x758>
        else
        {
          /*
          * Check for 32 bit wide in 16 bit mode
          */
          alt_write_flash_command_32bit_device_16bit_mode(flash->dev.base_addr, 0x55, QUERY_MODE);
    2eb8:	e0bfff17 	ldw	r2,-4(fp)
    2ebc:	10800a17 	ldw	r2,40(r2)
    2ec0:	01802604 	movi	r6,152
    2ec4:	01401544 	movi	r5,85
    2ec8:	1009883a 	mov	r4,r2
    2ecc:	00020480 	call	2048 <alt_write_flash_command_32bit_device_16bit_mode>
          for(i=0;i<12;i++)
    2ed0:	e03ff915 	stw	zero,-28(fp)
    2ed4:	00000f06 	br	2f14 <alt_read_cfi_width+0x4e0>
          {
            byte_id[i] = IORD_8DIRECT(flash->dev.base_addr, (QUERY_ADDR*4)+i);
    2ed8:	e0bfff17 	ldw	r2,-4(fp)
    2edc:	10800a17 	ldw	r2,40(r2)
    2ee0:	e0fff917 	ldw	r3,-28(fp)
    2ee4:	18c01004 	addi	r3,r3,64
    2ee8:	10c5883a 	add	r2,r2,r3
    2eec:	10800023 	ldbuio	r2,0(r2)
    2ef0:	10803fcc 	andi	r2,r2,255
    2ef4:	1009883a 	mov	r4,r2
    2ef8:	e0fffb84 	addi	r3,fp,-18
    2efc:	e0bff917 	ldw	r2,-28(fp)
    2f00:	1885883a 	add	r2,r3,r2
    2f04:	11000005 	stb	r4,0(r2)
        {
          /*
          * Check for 32 bit wide in 16 bit mode
          */
          alt_write_flash_command_32bit_device_16bit_mode(flash->dev.base_addr, 0x55, QUERY_MODE);
          for(i=0;i<12;i++)
    2f08:	e0bff917 	ldw	r2,-28(fp)
    2f0c:	10800044 	addi	r2,r2,1
    2f10:	e0bff915 	stw	r2,-28(fp)
    2f14:	e0bff917 	ldw	r2,-28(fp)
    2f18:	10800310 	cmplti	r2,r2,12
    2f1c:	103fee1e 	bne	r2,zero,2ed8 <__alt_mem_onchip_memory+0xf7802ed8>
          {
            byte_id[i] = IORD_8DIRECT(flash->dev.base_addr, (QUERY_ADDR*4)+i);
          }

          if ((byte_id[0] == 'Q') &&
    2f20:	e0bffb83 	ldbu	r2,-18(fp)
    2f24:	10803fcc 	andi	r2,r2,255
    2f28:	10801458 	cmpnei	r2,r2,81
    2f2c:	10003a1e 	bne	r2,zero,3018 <alt_read_cfi_width+0x5e4>
              (byte_id[1] == '\0') &&
    2f30:	e0bffbc3 	ldbu	r2,-17(fp)
          for(i=0;i<12;i++)
          {
            byte_id[i] = IORD_8DIRECT(flash->dev.base_addr, (QUERY_ADDR*4)+i);
          }

          if ((byte_id[0] == 'Q') &&
    2f34:	10803fcc 	andi	r2,r2,255
    2f38:	1000371e 	bne	r2,zero,3018 <alt_read_cfi_width+0x5e4>
              (byte_id[1] == '\0') &&
              (byte_id[2] == 'Q') &&
    2f3c:	e0bffc03 	ldbu	r2,-16(fp)
          {
            byte_id[i] = IORD_8DIRECT(flash->dev.base_addr, (QUERY_ADDR*4)+i);
          }

          if ((byte_id[0] == 'Q') &&
              (byte_id[1] == '\0') &&
    2f40:	10803fcc 	andi	r2,r2,255
    2f44:	10801458 	cmpnei	r2,r2,81
    2f48:	1000331e 	bne	r2,zero,3018 <alt_read_cfi_width+0x5e4>
              (byte_id[2] == 'Q') &&
              (byte_id[3] == '\0') &&
    2f4c:	e0bffc43 	ldbu	r2,-15(fp)
            byte_id[i] = IORD_8DIRECT(flash->dev.base_addr, (QUERY_ADDR*4)+i);
          }

          if ((byte_id[0] == 'Q') &&
              (byte_id[1] == '\0') &&
              (byte_id[2] == 'Q') &&
    2f50:	10803fcc 	andi	r2,r2,255
    2f54:	1000301e 	bne	r2,zero,3018 <alt_read_cfi_width+0x5e4>
              (byte_id[3] == '\0') &&
              (byte_id[4] == 'R') &&
    2f58:	e0bffc83 	ldbu	r2,-14(fp)
          }

          if ((byte_id[0] == 'Q') &&
              (byte_id[1] == '\0') &&
              (byte_id[2] == 'Q') &&
              (byte_id[3] == '\0') &&
    2f5c:	10803fcc 	andi	r2,r2,255
    2f60:	10801498 	cmpnei	r2,r2,82
    2f64:	10002c1e 	bne	r2,zero,3018 <alt_read_cfi_width+0x5e4>
              (byte_id[4] == 'R') &&
              (byte_id[5] == '\0') &&
    2f68:	e0bffcc3 	ldbu	r2,-13(fp)

          if ((byte_id[0] == 'Q') &&
              (byte_id[1] == '\0') &&
              (byte_id[2] == 'Q') &&
              (byte_id[3] == '\0') &&
              (byte_id[4] == 'R') &&
    2f6c:	10803fcc 	andi	r2,r2,255
    2f70:	1000291e 	bne	r2,zero,3018 <alt_read_cfi_width+0x5e4>
              (byte_id[5] == '\0') &&
              (byte_id[6] == 'R') &&
    2f74:	e0bffd03 	ldbu	r2,-12(fp)
          if ((byte_id[0] == 'Q') &&
              (byte_id[1] == '\0') &&
              (byte_id[2] == 'Q') &&
              (byte_id[3] == '\0') &&
              (byte_id[4] == 'R') &&
              (byte_id[5] == '\0') &&
    2f78:	10803fcc 	andi	r2,r2,255
    2f7c:	10801498 	cmpnei	r2,r2,82
    2f80:	1000251e 	bne	r2,zero,3018 <alt_read_cfi_width+0x5e4>
              (byte_id[6] == 'R') &&
              (byte_id[7] == '\0') &&
    2f84:	e0bffd43 	ldbu	r2,-11(fp)
              (byte_id[1] == '\0') &&
              (byte_id[2] == 'Q') &&
              (byte_id[3] == '\0') &&
              (byte_id[4] == 'R') &&
              (byte_id[5] == '\0') &&
              (byte_id[6] == 'R') &&
    2f88:	10803fcc 	andi	r2,r2,255
    2f8c:	1000221e 	bne	r2,zero,3018 <alt_read_cfi_width+0x5e4>
              (byte_id[7] == '\0') &&
              (byte_id[8] == 'Y') &&
    2f90:	e0bffd83 	ldbu	r2,-10(fp)
              (byte_id[2] == 'Q') &&
              (byte_id[3] == '\0') &&
              (byte_id[4] == 'R') &&
              (byte_id[5] == '\0') &&
              (byte_id[6] == 'R') &&
              (byte_id[7] == '\0') &&
    2f94:	10803fcc 	andi	r2,r2,255
    2f98:	10801658 	cmpnei	r2,r2,89
    2f9c:	10001e1e 	bne	r2,zero,3018 <alt_read_cfi_width+0x5e4>
              (byte_id[8] == 'Y') &&
              (byte_id[9] == '\0') &&
    2fa0:	e0bffdc3 	ldbu	r2,-9(fp)
              (byte_id[3] == '\0') &&
              (byte_id[4] == 'R') &&
              (byte_id[5] == '\0') &&
              (byte_id[6] == 'R') &&
              (byte_id[7] == '\0') &&
              (byte_id[8] == 'Y') &&
    2fa4:	10803fcc 	andi	r2,r2,255
    2fa8:	10001b1e 	bne	r2,zero,3018 <alt_read_cfi_width+0x5e4>
              (byte_id[9] == '\0') &&
              (byte_id[10] == 'Y') &&
    2fac:	e0bffe03 	ldbu	r2,-8(fp)
              (byte_id[4] == 'R') &&
              (byte_id[5] == '\0') &&
              (byte_id[6] == 'R') &&
              (byte_id[7] == '\0') &&
              (byte_id[8] == 'Y') &&
              (byte_id[9] == '\0') &&
    2fb0:	10803fcc 	andi	r2,r2,255
    2fb4:	10801658 	cmpnei	r2,r2,89
    2fb8:	1000171e 	bne	r2,zero,3018 <alt_read_cfi_width+0x5e4>
              (byte_id[10] == 'Y') &&
              (byte_id[11] == '\0'))
    2fbc:	e0bffe43 	ldbu	r2,-7(fp)
              (byte_id[5] == '\0') &&
              (byte_id[6] == 'R') &&
              (byte_id[7] == '\0') &&
              (byte_id[8] == 'Y') &&
              (byte_id[9] == '\0') &&
              (byte_id[10] == 'Y') &&
    2fc0:	10803fcc 	andi	r2,r2,255
    2fc4:	1000141e 	bne	r2,zero,3018 <alt_read_cfi_width+0x5e4>
              (byte_id[11] == '\0'))
          {
            flash->mode_width = 2;
    2fc8:	e0bfff17 	ldw	r2,-4(fp)
    2fcc:	00c00084 	movi	r3,2
    2fd0:	10c02f15 	stw	r3,188(r2)
            flash->device_width = 4; 
    2fd4:	e0bfff17 	ldw	r2,-4(fp)
    2fd8:	00c00104 	movi	r3,4
    2fdc:	10c03015 	stw	r3,192(r2)
            iface = IORD_32DIRECT(flash->dev.base_addr, INTERFACE_ADDR*4);
    2fe0:	e0bfff17 	ldw	r2,-4(fp)
    2fe4:	10800a17 	ldw	r2,40(r2)
    2fe8:	10802804 	addi	r2,r2,160
    2fec:	10800037 	ldwio	r2,0(r2)
    2ff0:	e0bffb0d 	sth	r2,-20(fp)
            iface += 1;
    2ff4:	e0bffb0b 	ldhu	r2,-20(fp)
    2ff8:	10800044 	addi	r2,r2,1
    2ffc:	e0bffb0d 	sth	r2,-20(fp)
            if (!(iface & 0x4))
    3000:	e0bffb0b 	ldhu	r2,-20(fp)
    3004:	1080010c 	andi	r2,r2,4
    3008:	1000601e 	bne	r2,zero,318c <alt_read_cfi_width+0x758>
            {
              ret_code = -ENODEV;
    300c:	00bffb44 	movi	r2,-19
    3010:	e0bffa15 	stw	r2,-24(fp)
          {
            flash->mode_width = 2;
            flash->device_width = 4; 
            iface = IORD_32DIRECT(flash->dev.base_addr, INTERFACE_ADDR*4);
            iface += 1;
            if (!(iface & 0x4))
    3014:	00005d06 	br	318c <alt_read_cfi_width+0x758>
          else
          {
            /*
            * 32 Bit wide flash in byte mode
            */
            alt_write_flash_command_32bit_device_8bit_mode(flash->dev.base_addr, 0x55, QUERY_MODE);
    3018:	e0bfff17 	ldw	r2,-4(fp)
    301c:	10800a17 	ldw	r2,40(r2)
    3020:	01802604 	movi	r6,152
    3024:	01401544 	movi	r5,85
    3028:	1009883a 	mov	r4,r2
    302c:	0001fac0 	call	1fac <alt_write_flash_command_32bit_device_8bit_mode>
            for(i=0;i<12;i++)
    3030:	e03ff915 	stw	zero,-28(fp)
    3034:	00000f06 	br	3074 <alt_read_cfi_width+0x640>
            {
              byte_id[i] = IORD_8DIRECT(flash->dev.base_addr, (QUERY_ADDR*4)+i);
    3038:	e0bfff17 	ldw	r2,-4(fp)
    303c:	10800a17 	ldw	r2,40(r2)
    3040:	e0fff917 	ldw	r3,-28(fp)
    3044:	18c01004 	addi	r3,r3,64
    3048:	10c5883a 	add	r2,r2,r3
    304c:	10800023 	ldbuio	r2,0(r2)
    3050:	10803fcc 	andi	r2,r2,255
    3054:	1009883a 	mov	r4,r2
    3058:	e0fffb84 	addi	r3,fp,-18
    305c:	e0bff917 	ldw	r2,-28(fp)
    3060:	1885883a 	add	r2,r3,r2
    3064:	11000005 	stb	r4,0(r2)
          {
            /*
            * 32 Bit wide flash in byte mode
            */
            alt_write_flash_command_32bit_device_8bit_mode(flash->dev.base_addr, 0x55, QUERY_MODE);
            for(i=0;i<12;i++)
    3068:	e0bff917 	ldw	r2,-28(fp)
    306c:	10800044 	addi	r2,r2,1
    3070:	e0bff915 	stw	r2,-28(fp)
    3074:	e0bff917 	ldw	r2,-28(fp)
    3078:	10800310 	cmplti	r2,r2,12
    307c:	103fee1e 	bne	r2,zero,3038 <__alt_mem_onchip_memory+0xf7803038>
            {
              byte_id[i] = IORD_8DIRECT(flash->dev.base_addr, (QUERY_ADDR*4)+i);
            }

            if ((byte_id[0] == 'Q') &&
    3080:	e0bffb83 	ldbu	r2,-18(fp)
    3084:	10803fcc 	andi	r2,r2,255
    3088:	10801458 	cmpnei	r2,r2,81
    308c:	10003f1e 	bne	r2,zero,318c <alt_read_cfi_width+0x758>
                (byte_id[1] == 'Q') &&
    3090:	e0bffbc3 	ldbu	r2,-17(fp)
            for(i=0;i<12;i++)
            {
              byte_id[i] = IORD_8DIRECT(flash->dev.base_addr, (QUERY_ADDR*4)+i);
            }

            if ((byte_id[0] == 'Q') &&
    3094:	10803fcc 	andi	r2,r2,255
    3098:	10801458 	cmpnei	r2,r2,81
    309c:	10003b1e 	bne	r2,zero,318c <alt_read_cfi_width+0x758>
                (byte_id[1] == 'Q') &&
                (byte_id[2] == 'Q') &&
    30a0:	e0bffc03 	ldbu	r2,-16(fp)
            {
              byte_id[i] = IORD_8DIRECT(flash->dev.base_addr, (QUERY_ADDR*4)+i);
            }

            if ((byte_id[0] == 'Q') &&
                (byte_id[1] == 'Q') &&
    30a4:	10803fcc 	andi	r2,r2,255
    30a8:	10801458 	cmpnei	r2,r2,81
    30ac:	1000371e 	bne	r2,zero,318c <alt_read_cfi_width+0x758>
                (byte_id[2] == 'Q') &&
                (byte_id[3] == 'Q') &&
    30b0:	e0bffc43 	ldbu	r2,-15(fp)
              byte_id[i] = IORD_8DIRECT(flash->dev.base_addr, (QUERY_ADDR*4)+i);
            }

            if ((byte_id[0] == 'Q') &&
                (byte_id[1] == 'Q') &&
                (byte_id[2] == 'Q') &&
    30b4:	10803fcc 	andi	r2,r2,255
    30b8:	10801458 	cmpnei	r2,r2,81
    30bc:	1000331e 	bne	r2,zero,318c <alt_read_cfi_width+0x758>
                (byte_id[3] == 'Q') &&
                (byte_id[4] == 'R') && 
    30c0:	e0bffc83 	ldbu	r2,-14(fp)
            }

            if ((byte_id[0] == 'Q') &&
                (byte_id[1] == 'Q') &&
                (byte_id[2] == 'Q') &&
                (byte_id[3] == 'Q') &&
    30c4:	10803fcc 	andi	r2,r2,255
    30c8:	10801498 	cmpnei	r2,r2,82
    30cc:	10002f1e 	bne	r2,zero,318c <alt_read_cfi_width+0x758>
                (byte_id[4] == 'R') && 
                (byte_id[5] == 'R') && 
    30d0:	e0bffcc3 	ldbu	r2,-13(fp)

            if ((byte_id[0] == 'Q') &&
                (byte_id[1] == 'Q') &&
                (byte_id[2] == 'Q') &&
                (byte_id[3] == 'Q') &&
                (byte_id[4] == 'R') && 
    30d4:	10803fcc 	andi	r2,r2,255
    30d8:	10801498 	cmpnei	r2,r2,82
    30dc:	10002b1e 	bne	r2,zero,318c <alt_read_cfi_width+0x758>
                (byte_id[5] == 'R') && 
                (byte_id[6] == 'R') && 
    30e0:	e0bffd03 	ldbu	r2,-12(fp)
            if ((byte_id[0] == 'Q') &&
                (byte_id[1] == 'Q') &&
                (byte_id[2] == 'Q') &&
                (byte_id[3] == 'Q') &&
                (byte_id[4] == 'R') && 
                (byte_id[5] == 'R') && 
    30e4:	10803fcc 	andi	r2,r2,255
    30e8:	10801498 	cmpnei	r2,r2,82
    30ec:	1000271e 	bne	r2,zero,318c <alt_read_cfi_width+0x758>
                (byte_id[6] == 'R') && 
                (byte_id[7] == 'R') && 
    30f0:	e0bffd43 	ldbu	r2,-11(fp)
                (byte_id[1] == 'Q') &&
                (byte_id[2] == 'Q') &&
                (byte_id[3] == 'Q') &&
                (byte_id[4] == 'R') && 
                (byte_id[5] == 'R') && 
                (byte_id[6] == 'R') && 
    30f4:	10803fcc 	andi	r2,r2,255
    30f8:	10801498 	cmpnei	r2,r2,82
    30fc:	1000231e 	bne	r2,zero,318c <alt_read_cfi_width+0x758>
                (byte_id[7] == 'R') && 
                (byte_id[8] == 'Y') && 
    3100:	e0bffd83 	ldbu	r2,-10(fp)
                (byte_id[2] == 'Q') &&
                (byte_id[3] == 'Q') &&
                (byte_id[4] == 'R') && 
                (byte_id[5] == 'R') && 
                (byte_id[6] == 'R') && 
                (byte_id[7] == 'R') && 
    3104:	10803fcc 	andi	r2,r2,255
    3108:	10801658 	cmpnei	r2,r2,89
    310c:	10001f1e 	bne	r2,zero,318c <alt_read_cfi_width+0x758>
                (byte_id[8] == 'Y') && 
                (byte_id[9] == 'Y') && 
    3110:	e0bffdc3 	ldbu	r2,-9(fp)
                (byte_id[3] == 'Q') &&
                (byte_id[4] == 'R') && 
                (byte_id[5] == 'R') && 
                (byte_id[6] == 'R') && 
                (byte_id[7] == 'R') && 
                (byte_id[8] == 'Y') && 
    3114:	10803fcc 	andi	r2,r2,255
    3118:	10801658 	cmpnei	r2,r2,89
    311c:	10001b1e 	bne	r2,zero,318c <alt_read_cfi_width+0x758>
                (byte_id[9] == 'Y') && 
                (byte_id[10] == 'Y') && 
    3120:	e0bffe03 	ldbu	r2,-8(fp)
                (byte_id[4] == 'R') && 
                (byte_id[5] == 'R') && 
                (byte_id[6] == 'R') && 
                (byte_id[7] == 'R') && 
                (byte_id[8] == 'Y') && 
                (byte_id[9] == 'Y') && 
    3124:	10803fcc 	andi	r2,r2,255
    3128:	10801658 	cmpnei	r2,r2,89
    312c:	1000171e 	bne	r2,zero,318c <alt_read_cfi_width+0x758>
                (byte_id[10] == 'Y') && 
                (byte_id[11] == 'Y'))
    3130:	e0bffe43 	ldbu	r2,-7(fp)
                (byte_id[5] == 'R') && 
                (byte_id[6] == 'R') && 
                (byte_id[7] == 'R') && 
                (byte_id[8] == 'Y') && 
                (byte_id[9] == 'Y') && 
                (byte_id[10] == 'Y') && 
    3134:	10803fcc 	andi	r2,r2,255
    3138:	10801658 	cmpnei	r2,r2,89
    313c:	1000131e 	bne	r2,zero,318c <alt_read_cfi_width+0x758>
                (byte_id[11] == 'Y'))
            {
              flash->mode_width = 1;
    3140:	e0bfff17 	ldw	r2,-4(fp)
    3144:	00c00044 	movi	r3,1
    3148:	10c02f15 	stw	r3,188(r2)
              flash->device_width = 4; 
    314c:	e0bfff17 	ldw	r2,-4(fp)
    3150:	00c00104 	movi	r3,4
    3154:	10c03015 	stw	r3,192(r2)
              iface = IORD_32DIRECT(flash->dev.base_addr, INTERFACE_ADDR*4);
    3158:	e0bfff17 	ldw	r2,-4(fp)
    315c:	10800a17 	ldw	r2,40(r2)
    3160:	10802804 	addi	r2,r2,160
    3164:	10800037 	ldwio	r2,0(r2)
    3168:	e0bffb0d 	sth	r2,-20(fp)
              iface += 1;
    316c:	e0bffb0b 	ldhu	r2,-20(fp)
    3170:	10800044 	addi	r2,r2,1
    3174:	e0bffb0d 	sth	r2,-20(fp)
              if (!(iface & 0x4))
    3178:	e0bffb0b 	ldhu	r2,-20(fp)
    317c:	1080010c 	andi	r2,r2,4
    3180:	1000021e 	bne	r2,zero,318c <alt_read_cfi_width+0x758>
              {
                ret_code = -ENODEV;
    3184:	00bffb44 	movi	r2,-19
    3188:	e0bffa15 	stw	r2,-24(fp)
        }
      }
    }
  }
  
  return ret_code;
    318c:	e0bffa17 	ldw	r2,-24(fp)
}
    3190:	e037883a 	mov	sp,fp
    3194:	dfc00117 	ldw	ra,4(sp)
    3198:	df000017 	ldw	fp,0(sp)
    319c:	dec00204 	addi	sp,sp,8
    31a0:	f800283a 	ret

000031a4 <alt_check_primary_table>:
 * 
 * Check that the primary Vendor table starts with the 
 * correct pattern
 */
int alt_check_primary_table(alt_flash_cfi_dev* flash)
{
    31a4:	defffa04 	addi	sp,sp,-24
    31a8:	dfc00515 	stw	ra,20(sp)
    31ac:	df000415 	stw	fp,16(sp)
    31b0:	df000404 	addi	fp,sp,16
    31b4:	e13fff15 	stw	r4,-4(fp)
  int i;
  int ret_code = 0;
    31b8:	e03ffd15 	stw	zero,-12(fp)
  alt_u8 primary_query_string[3];
  
  flash->primary_address = alt_read_16bit_query_entry( flash, 
    31bc:	01400544 	movi	r5,21
    31c0:	e13fff17 	ldw	r4,-4(fp)
    31c4:	00023ec0 	call	23ec <alt_read_16bit_query_entry>
    31c8:	10ffffcc 	andi	r3,r2,65535
    31cc:	e0bfff17 	ldw	r2,-4(fp)
    31d0:	10c03315 	stw	r3,204(r2)
                            PRIMARY_ADDR);
  
  for(i=0;i<3;i++)
    31d4:	e03ffc15 	stw	zero,-16(fp)
    31d8:	00001106 	br	3220 <alt_check_primary_table+0x7c>
  {
    primary_query_string[i] = 
          (*flash->read_query)( flash,(flash->primary_address + i));
    31dc:	e0bfff17 	ldw	r2,-4(fp)
    31e0:	10803517 	ldw	r2,212(r2)
    31e4:	e0ffff17 	ldw	r3,-4(fp)
    31e8:	19003317 	ldw	r4,204(r3)
    31ec:	e0fffc17 	ldw	r3,-16(fp)
    31f0:	20c7883a 	add	r3,r4,r3
    31f4:	180b883a 	mov	r5,r3
    31f8:	e13fff17 	ldw	r4,-4(fp)
    31fc:	103ee83a 	callr	r2
    3200:	1009883a 	mov	r4,r2
  flash->primary_address = alt_read_16bit_query_entry( flash, 
                            PRIMARY_ADDR);
  
  for(i=0;i<3;i++)
  {
    primary_query_string[i] = 
    3204:	e0fffe04 	addi	r3,fp,-8
    3208:	e0bffc17 	ldw	r2,-16(fp)
    320c:	1885883a 	add	r2,r3,r2
    3210:	11000005 	stb	r4,0(r2)
  alt_u8 primary_query_string[3];
  
  flash->primary_address = alt_read_16bit_query_entry( flash, 
                            PRIMARY_ADDR);
  
  for(i=0;i<3;i++)
    3214:	e0bffc17 	ldw	r2,-16(fp)
    3218:	10800044 	addi	r2,r2,1
    321c:	e0bffc15 	stw	r2,-16(fp)
    3220:	e0bffc17 	ldw	r2,-16(fp)
    3224:	108000d0 	cmplti	r2,r2,3
    3228:	103fec1e 	bne	r2,zero,31dc <__alt_mem_onchip_memory+0xf78031dc>
  {
    primary_query_string[i] = 
          (*flash->read_query)( flash,(flash->primary_address + i));
  }
    
  if ((primary_query_string[0] != 'P') ||
    322c:	e0bffe03 	ldbu	r2,-8(fp)
    3230:	10803fcc 	andi	r2,r2,255
    3234:	10801418 	cmpnei	r2,r2,80
    3238:	1000081e 	bne	r2,zero,325c <alt_check_primary_table+0xb8>
      (primary_query_string[1] != 'R') ||
    323c:	e0bffe43 	ldbu	r2,-7(fp)
  {
    primary_query_string[i] = 
          (*flash->read_query)( flash,(flash->primary_address + i));
  }
    
  if ((primary_query_string[0] != 'P') ||
    3240:	10803fcc 	andi	r2,r2,255
    3244:	10801498 	cmpnei	r2,r2,82
    3248:	1000041e 	bne	r2,zero,325c <alt_check_primary_table+0xb8>
      (primary_query_string[1] != 'R') ||
      (primary_query_string[2] != 'I'))
    324c:	e0bffe83 	ldbu	r2,-6(fp)
    primary_query_string[i] = 
          (*flash->read_query)( flash,(flash->primary_address + i));
  }
    
  if ((primary_query_string[0] != 'P') ||
      (primary_query_string[1] != 'R') ||
    3250:	10803fcc 	andi	r2,r2,255
    3254:	10801260 	cmpeqi	r2,r2,73
    3258:	1000021e 	bne	r2,zero,3264 <alt_check_primary_table+0xc0>
      (primary_query_string[2] != 'I'))
  {
    ret_code = -ENODEV;
    325c:	00bffb44 	movi	r2,-19
    3260:	e0bffd15 	stw	r2,-12(fp)
  }
  
  return ret_code;
    3264:	e0bffd17 	ldw	r2,-12(fp)
}
    3268:	e037883a 	mov	sp,fp
    326c:	dfc00117 	ldw	ra,4(sp)
    3270:	df000017 	ldw	fp,0(sp)
    3274:	dec00204 	addi	sp,sp,8
    3278:	f800283a 	ret

0000327c <altera_avalon_jtag_uart_read_fd>:
 *
 */

int 
altera_avalon_jtag_uart_read_fd(alt_fd* fd, char* buffer, int space)
{
    327c:	defffa04 	addi	sp,sp,-24
    3280:	dfc00515 	stw	ra,20(sp)
    3284:	df000415 	stw	fp,16(sp)
    3288:	df000404 	addi	fp,sp,16
    328c:	e13ffd15 	stw	r4,-12(fp)
    3290:	e17ffe15 	stw	r5,-8(fp)
    3294:	e1bfff15 	stw	r6,-4(fp)
    altera_avalon_jtag_uart_dev* dev = (altera_avalon_jtag_uart_dev*) fd->dev; 
    3298:	e0bffd17 	ldw	r2,-12(fp)
    329c:	10800017 	ldw	r2,0(r2)
    32a0:	e0bffc15 	stw	r2,-16(fp)

    return altera_avalon_jtag_uart_read(&dev->state, buffer, space,
    32a4:	e0bffc17 	ldw	r2,-16(fp)
    32a8:	10c00a04 	addi	r3,r2,40
    32ac:	e0bffd17 	ldw	r2,-12(fp)
    32b0:	10800217 	ldw	r2,8(r2)
    32b4:	100f883a 	mov	r7,r2
    32b8:	e1bfff17 	ldw	r6,-4(fp)
    32bc:	e17ffe17 	ldw	r5,-8(fp)
    32c0:	1809883a 	mov	r4,r3
    32c4:	000389c0 	call	389c <altera_avalon_jtag_uart_read>
      fd->fd_flags);
}
    32c8:	e037883a 	mov	sp,fp
    32cc:	dfc00117 	ldw	ra,4(sp)
    32d0:	df000017 	ldw	fp,0(sp)
    32d4:	dec00204 	addi	sp,sp,8
    32d8:	f800283a 	ret

000032dc <altera_avalon_jtag_uart_write_fd>:

int 
altera_avalon_jtag_uart_write_fd(alt_fd* fd, const char* buffer, int space)
{
    32dc:	defffa04 	addi	sp,sp,-24
    32e0:	dfc00515 	stw	ra,20(sp)
    32e4:	df000415 	stw	fp,16(sp)
    32e8:	df000404 	addi	fp,sp,16
    32ec:	e13ffd15 	stw	r4,-12(fp)
    32f0:	e17ffe15 	stw	r5,-8(fp)
    32f4:	e1bfff15 	stw	r6,-4(fp)
    altera_avalon_jtag_uart_dev* dev = (altera_avalon_jtag_uart_dev*) fd->dev; 
    32f8:	e0bffd17 	ldw	r2,-12(fp)
    32fc:	10800017 	ldw	r2,0(r2)
    3300:	e0bffc15 	stw	r2,-16(fp)

    return altera_avalon_jtag_uart_write(&dev->state, buffer, space,
    3304:	e0bffc17 	ldw	r2,-16(fp)
    3308:	10c00a04 	addi	r3,r2,40
    330c:	e0bffd17 	ldw	r2,-12(fp)
    3310:	10800217 	ldw	r2,8(r2)
    3314:	100f883a 	mov	r7,r2
    3318:	e1bfff17 	ldw	r6,-4(fp)
    331c:	e17ffe17 	ldw	r5,-8(fp)
    3320:	1809883a 	mov	r4,r3
    3324:	0003ab80 	call	3ab8 <altera_avalon_jtag_uart_write>
      fd->fd_flags);
}
    3328:	e037883a 	mov	sp,fp
    332c:	dfc00117 	ldw	ra,4(sp)
    3330:	df000017 	ldw	fp,0(sp)
    3334:	dec00204 	addi	sp,sp,8
    3338:	f800283a 	ret

0000333c <altera_avalon_jtag_uart_close_fd>:

#ifndef ALTERA_AVALON_JTAG_UART_SMALL

int 
altera_avalon_jtag_uart_close_fd(alt_fd* fd)
{
    333c:	defffc04 	addi	sp,sp,-16
    3340:	dfc00315 	stw	ra,12(sp)
    3344:	df000215 	stw	fp,8(sp)
    3348:	df000204 	addi	fp,sp,8
    334c:	e13fff15 	stw	r4,-4(fp)
    altera_avalon_jtag_uart_dev* dev = (altera_avalon_jtag_uart_dev*) fd->dev; 
    3350:	e0bfff17 	ldw	r2,-4(fp)
    3354:	10800017 	ldw	r2,0(r2)
    3358:	e0bffe15 	stw	r2,-8(fp)

    return altera_avalon_jtag_uart_close(&dev->state, fd->fd_flags);
    335c:	e0bffe17 	ldw	r2,-8(fp)
    3360:	10c00a04 	addi	r3,r2,40
    3364:	e0bfff17 	ldw	r2,-4(fp)
    3368:	10800217 	ldw	r2,8(r2)
    336c:	100b883a 	mov	r5,r2
    3370:	1809883a 	mov	r4,r3
    3374:	00037440 	call	3744 <altera_avalon_jtag_uart_close>
}
    3378:	e037883a 	mov	sp,fp
    337c:	dfc00117 	ldw	ra,4(sp)
    3380:	df000017 	ldw	fp,0(sp)
    3384:	dec00204 	addi	sp,sp,8
    3388:	f800283a 	ret

0000338c <altera_avalon_jtag_uart_ioctl_fd>:

int 
altera_avalon_jtag_uart_ioctl_fd(alt_fd* fd, int req, void* arg)
{
    338c:	defffa04 	addi	sp,sp,-24
    3390:	dfc00515 	stw	ra,20(sp)
    3394:	df000415 	stw	fp,16(sp)
    3398:	df000404 	addi	fp,sp,16
    339c:	e13ffd15 	stw	r4,-12(fp)
    33a0:	e17ffe15 	stw	r5,-8(fp)
    33a4:	e1bfff15 	stw	r6,-4(fp)
    altera_avalon_jtag_uart_dev* dev = (altera_avalon_jtag_uart_dev*) fd->dev;
    33a8:	e0bffd17 	ldw	r2,-12(fp)
    33ac:	10800017 	ldw	r2,0(r2)
    33b0:	e0bffc15 	stw	r2,-16(fp)

    return altera_avalon_jtag_uart_ioctl(&dev->state, req, arg);
    33b4:	e0bffc17 	ldw	r2,-16(fp)
    33b8:	10800a04 	addi	r2,r2,40
    33bc:	e1bfff17 	ldw	r6,-4(fp)
    33c0:	e17ffe17 	ldw	r5,-8(fp)
    33c4:	1009883a 	mov	r4,r2
    33c8:	00037ac0 	call	37ac <altera_avalon_jtag_uart_ioctl>
}
    33cc:	e037883a 	mov	sp,fp
    33d0:	dfc00117 	ldw	ra,4(sp)
    33d4:	df000017 	ldw	fp,0(sp)
    33d8:	dec00204 	addi	sp,sp,8
    33dc:	f800283a 	ret

000033e0 <altera_avalon_jtag_uart_init>:
 * Return 1 on sucessful IRQ register and 0 on failure.
 */

void altera_avalon_jtag_uart_init(altera_avalon_jtag_uart_state* sp, 
                                  int irq_controller_id, int irq)
{
    33e0:	defffb04 	addi	sp,sp,-20
    33e4:	dfc00415 	stw	ra,16(sp)
    33e8:	df000315 	stw	fp,12(sp)
    33ec:	df000304 	addi	fp,sp,12
    33f0:	e13ffd15 	stw	r4,-12(fp)
    33f4:	e17ffe15 	stw	r5,-8(fp)
    33f8:	e1bfff15 	stw	r6,-4(fp)
  ALT_FLAG_CREATE(&sp->events, 0);
  ALT_SEM_CREATE(&sp->read_lock, 1);
  ALT_SEM_CREATE(&sp->write_lock, 1);

  /* enable read interrupts at the device */
  sp->irq_enable = ALTERA_AVALON_JTAG_UART_CONTROL_RE_MSK;
    33fc:	e0bffd17 	ldw	r2,-12(fp)
    3400:	00c00044 	movi	r3,1
    3404:	10c00815 	stw	r3,32(r2)

  IOWR_ALTERA_AVALON_JTAG_UART_CONTROL(sp->base, sp->irq_enable); 
    3408:	e0bffd17 	ldw	r2,-12(fp)
    340c:	10800017 	ldw	r2,0(r2)
    3410:	10800104 	addi	r2,r2,4
    3414:	1007883a 	mov	r3,r2
    3418:	e0bffd17 	ldw	r2,-12(fp)
    341c:	10800817 	ldw	r2,32(r2)
    3420:	18800035 	stwio	r2,0(r3)
  /* register the interrupt handler */
#ifdef ALT_ENHANCED_INTERRUPT_API_PRESENT
  alt_ic_isr_register(irq_controller_id, irq, altera_avalon_jtag_uart_irq, 
                      sp, NULL);
#else
  alt_irq_register(irq, sp, altera_avalon_jtag_uart_irq);
    3424:	e0bfff17 	ldw	r2,-4(fp)
    3428:	01800034 	movhi	r6,0
    342c:	318d2504 	addi	r6,r6,13460
    3430:	e17ffd17 	ldw	r5,-12(fp)
    3434:	1009883a 	mov	r4,r2
    3438:	00057640 	call	5764 <alt_irq_register>
#endif  

  /* Register an alarm to go off every second to check for presence of host */
  sp->host_inactive = 0;
    343c:	e0bffd17 	ldw	r2,-12(fp)
    3440:	10000915 	stw	zero,36(r2)

  if (alt_alarm_start(&sp->alarm, alt_ticks_per_second(), 
    3444:	e0bffd17 	ldw	r2,-12(fp)
    3448:	10800204 	addi	r2,r2,8
 * Obtain the system clock rate in ticks/s. 
 */

static ALT_INLINE alt_u32 ALT_ALWAYS_INLINE alt_ticks_per_second (void)
{
  return _alt_tick_rate;
    344c:	d0e69e17 	ldw	r3,-25992(gp)
    3450:	e1fffd17 	ldw	r7,-12(fp)
    3454:	01800034 	movhi	r6,0
    3458:	318da904 	addi	r6,r6,13988
    345c:	180b883a 	mov	r5,r3
    3460:	1009883a 	mov	r4,r2
    3464:	0004fe00 	call	4fe0 <alt_alarm_start>
    3468:	1000040e 	bge	r2,zero,347c <altera_avalon_jtag_uart_init+0x9c>
    &altera_avalon_jtag_uart_timeout, sp) < 0)
  {
    /* If we can't set the alarm then record "don't know if host present" 
     * and behave as though the host is present.
     */
    sp->timeout = INT_MAX;
    346c:	e0fffd17 	ldw	r3,-12(fp)
    3470:	00a00034 	movhi	r2,32768
    3474:	10bfffc4 	addi	r2,r2,-1
    3478:	18800115 	stw	r2,4(r3)
  }

  /* ALT_LOG - see altera_hal/HAL/inc/sys/alt_log_printf.h */ 
  ALT_LOG_JTAG_UART_ALARM_REGISTER(sp, sp->base);
}
    347c:	0001883a 	nop
    3480:	e037883a 	mov	sp,fp
    3484:	dfc00117 	ldw	ra,4(sp)
    3488:	df000017 	ldw	fp,0(sp)
    348c:	dec00204 	addi	sp,sp,8
    3490:	f800283a 	ret

00003494 <altera_avalon_jtag_uart_irq>:
#ifdef ALT_ENHANCED_INTERRUPT_API_PRESENT
static void altera_avalon_jtag_uart_irq(void* context)
#else
static void altera_avalon_jtag_uart_irq(void* context, alt_u32 id)
#endif
{
    3494:	defff704 	addi	sp,sp,-36
    3498:	df000815 	stw	fp,32(sp)
    349c:	df000804 	addi	fp,sp,32
    34a0:	e13ffe15 	stw	r4,-8(fp)
    34a4:	e17fff15 	stw	r5,-4(fp)
  altera_avalon_jtag_uart_state* sp = (altera_avalon_jtag_uart_state*) context;
    34a8:	e0bffe17 	ldw	r2,-8(fp)
    34ac:	e0bffa15 	stw	r2,-24(fp)
  unsigned int base = sp->base;
    34b0:	e0bffa17 	ldw	r2,-24(fp)
    34b4:	10800017 	ldw	r2,0(r2)
    34b8:	e0bffb15 	stw	r2,-20(fp)
  /* ALT_LOG - see altera_hal/HAL/inc/sys/alt_log_printf.h */ 
  ALT_LOG_JTAG_UART_ISR_FUNCTION(base, sp);

  for ( ; ; )
  {
    unsigned int control = IORD_ALTERA_AVALON_JTAG_UART_CONTROL(base);
    34bc:	e0bffb17 	ldw	r2,-20(fp)
    34c0:	10800104 	addi	r2,r2,4
    34c4:	10800037 	ldwio	r2,0(r2)
    34c8:	e0bffc15 	stw	r2,-16(fp)

    /* Return once nothing more to do */
    if ((control & (ALTERA_AVALON_JTAG_UART_CONTROL_RI_MSK | ALTERA_AVALON_JTAG_UART_CONTROL_WI_MSK)) == 0)
    34cc:	e0bffc17 	ldw	r2,-16(fp)
    34d0:	1080c00c 	andi	r2,r2,768
    34d4:	10006d26 	beq	r2,zero,368c <altera_avalon_jtag_uart_irq+0x1f8>
      break;

    if (control & ALTERA_AVALON_JTAG_UART_CONTROL_RI_MSK)
    34d8:	e0bffc17 	ldw	r2,-16(fp)
    34dc:	1080400c 	andi	r2,r2,256
    34e0:	10003526 	beq	r2,zero,35b8 <altera_avalon_jtag_uart_irq+0x124>
    {
      /* process a read irq.  Start by assuming that there is data in the
       * receive FIFO (otherwise why would we have been interrupted?)
       */
      unsigned int data = 1 << ALTERA_AVALON_JTAG_UART_DATA_RAVAIL_OFST;
    34e4:	00800074 	movhi	r2,1
    34e8:	e0bff815 	stw	r2,-32(fp)
      for ( ; ; )
      {
        /* Check whether there is space in the buffer.  If not then we must not
         * read any characters from the buffer as they will be lost.
         */
        unsigned int next = (sp->rx_in + 1) % ALTERA_AVALON_JTAG_UART_BUF_LEN;
    34ec:	e0bffa17 	ldw	r2,-24(fp)
    34f0:	10800a17 	ldw	r2,40(r2)
    34f4:	10800044 	addi	r2,r2,1
    34f8:	1081ffcc 	andi	r2,r2,2047
    34fc:	e0bffd15 	stw	r2,-12(fp)
        if (next == sp->rx_out)
    3500:	e0bffa17 	ldw	r2,-24(fp)
    3504:	10c00b17 	ldw	r3,44(r2)
    3508:	e0bffd17 	ldw	r2,-12(fp)
    350c:	18801526 	beq	r3,r2,3564 <altera_avalon_jtag_uart_irq+0xd0>
          break;

        /* Try to remove a character from the FIFO and find out whether there
         * are any more characters remaining.
         */
        data = IORD_ALTERA_AVALON_JTAG_UART_DATA(base);
    3510:	e0bffb17 	ldw	r2,-20(fp)
    3514:	10800037 	ldwio	r2,0(r2)
    3518:	e0bff815 	stw	r2,-32(fp)
        
        if ((data & ALTERA_AVALON_JTAG_UART_DATA_RVALID_MSK) == 0)
    351c:	e0bff817 	ldw	r2,-32(fp)
    3520:	10a0000c 	andi	r2,r2,32768
    3524:	10001126 	beq	r2,zero,356c <altera_avalon_jtag_uart_irq+0xd8>
          break;

        sp->rx_buf[sp->rx_in] = (data & ALTERA_AVALON_JTAG_UART_DATA_DATA_MSK) >> ALTERA_AVALON_JTAG_UART_DATA_DATA_OFST;
    3528:	e0bffa17 	ldw	r2,-24(fp)
    352c:	10800a17 	ldw	r2,40(r2)
    3530:	e0fff817 	ldw	r3,-32(fp)
    3534:	1809883a 	mov	r4,r3
    3538:	e0fffa17 	ldw	r3,-24(fp)
    353c:	1885883a 	add	r2,r3,r2
    3540:	10800e04 	addi	r2,r2,56
    3544:	11000005 	stb	r4,0(r2)
        sp->rx_in = (sp->rx_in + 1) % ALTERA_AVALON_JTAG_UART_BUF_LEN;
    3548:	e0bffa17 	ldw	r2,-24(fp)
    354c:	10800a17 	ldw	r2,40(r2)
    3550:	10800044 	addi	r2,r2,1
    3554:	10c1ffcc 	andi	r3,r2,2047
    3558:	e0bffa17 	ldw	r2,-24(fp)
    355c:	10c00a15 	stw	r3,40(r2)

        /* Post an event to notify jtag_uart_read that a character has been read */
        ALT_FLAG_POST (sp->events, ALT_JTAG_UART_READ_RDY, OS_FLAG_SET);
      }
    3560:	003fe206 	br	34ec <__alt_mem_onchip_memory+0xf78034ec>
        /* Check whether there is space in the buffer.  If not then we must not
         * read any characters from the buffer as they will be lost.
         */
        unsigned int next = (sp->rx_in + 1) % ALTERA_AVALON_JTAG_UART_BUF_LEN;
        if (next == sp->rx_out)
          break;
    3564:	0001883a 	nop
    3568:	00000106 	br	3570 <altera_avalon_jtag_uart_irq+0xdc>
         * are any more characters remaining.
         */
        data = IORD_ALTERA_AVALON_JTAG_UART_DATA(base);
        
        if ((data & ALTERA_AVALON_JTAG_UART_DATA_RVALID_MSK) == 0)
          break;
    356c:	0001883a 	nop

        /* Post an event to notify jtag_uart_read that a character has been read */
        ALT_FLAG_POST (sp->events, ALT_JTAG_UART_READ_RDY, OS_FLAG_SET);
      }

      if (data & ALTERA_AVALON_JTAG_UART_DATA_RAVAIL_MSK)
    3570:	e0bff817 	ldw	r2,-32(fp)
    3574:	10bfffec 	andhi	r2,r2,65535
    3578:	10000f26 	beq	r2,zero,35b8 <altera_avalon_jtag_uart_irq+0x124>
      {
        /* If there is still data available here then the buffer is full 
         * so turn off receive interrupts until some space becomes available.
         */
        sp->irq_enable &= ~ALTERA_AVALON_JTAG_UART_CONTROL_RE_MSK;
    357c:	e0bffa17 	ldw	r2,-24(fp)
    3580:	10c00817 	ldw	r3,32(r2)
    3584:	00bfff84 	movi	r2,-2
    3588:	1886703a 	and	r3,r3,r2
    358c:	e0bffa17 	ldw	r2,-24(fp)
    3590:	10c00815 	stw	r3,32(r2)
        IOWR_ALTERA_AVALON_JTAG_UART_CONTROL(base, sp->irq_enable);
    3594:	e0bffb17 	ldw	r2,-20(fp)
    3598:	10800104 	addi	r2,r2,4
    359c:	1007883a 	mov	r3,r2
    35a0:	e0bffa17 	ldw	r2,-24(fp)
    35a4:	10800817 	ldw	r2,32(r2)
    35a8:	18800035 	stwio	r2,0(r3)
        
        /* Dummy read to ensure IRQ is cleared prior to ISR completion */
        IORD_ALTERA_AVALON_JTAG_UART_CONTROL(base);
    35ac:	e0bffb17 	ldw	r2,-20(fp)
    35b0:	10800104 	addi	r2,r2,4
    35b4:	10800037 	ldwio	r2,0(r2)
      }
    }

    if (control & ALTERA_AVALON_JTAG_UART_CONTROL_WI_MSK)
    35b8:	e0bffc17 	ldw	r2,-16(fp)
    35bc:	1080800c 	andi	r2,r2,512
    35c0:	103fbe26 	beq	r2,zero,34bc <__alt_mem_onchip_memory+0xf78034bc>
    {
      /* process a write irq */
      unsigned int space = (control & ALTERA_AVALON_JTAG_UART_CONTROL_WSPACE_MSK) >> ALTERA_AVALON_JTAG_UART_CONTROL_WSPACE_OFST;
    35c4:	e0bffc17 	ldw	r2,-16(fp)
    35c8:	1004d43a 	srli	r2,r2,16
    35cc:	e0bff915 	stw	r2,-28(fp)

      while (space > 0 && sp->tx_out != sp->tx_in)
    35d0:	00001406 	br	3624 <altera_avalon_jtag_uart_irq+0x190>
      {
        IOWR_ALTERA_AVALON_JTAG_UART_DATA(base, sp->tx_buf[sp->tx_out]);
    35d4:	e0bffb17 	ldw	r2,-20(fp)
    35d8:	e0fffa17 	ldw	r3,-24(fp)
    35dc:	18c00d17 	ldw	r3,52(r3)
    35e0:	e13ffa17 	ldw	r4,-24(fp)
    35e4:	20c7883a 	add	r3,r4,r3
    35e8:	18c20e04 	addi	r3,r3,2104
    35ec:	18c00003 	ldbu	r3,0(r3)
    35f0:	18c03fcc 	andi	r3,r3,255
    35f4:	18c0201c 	xori	r3,r3,128
    35f8:	18ffe004 	addi	r3,r3,-128
    35fc:	10c00035 	stwio	r3,0(r2)

        sp->tx_out = (sp->tx_out + 1) % ALTERA_AVALON_JTAG_UART_BUF_LEN;
    3600:	e0bffa17 	ldw	r2,-24(fp)
    3604:	10800d17 	ldw	r2,52(r2)
    3608:	10800044 	addi	r2,r2,1
    360c:	10c1ffcc 	andi	r3,r2,2047
    3610:	e0bffa17 	ldw	r2,-24(fp)
    3614:	10c00d15 	stw	r3,52(r2)

        /* Post an event to notify jtag_uart_write that a character has been written */
        ALT_FLAG_POST (sp->events, ALT_JTAG_UART_WRITE_RDY, OS_FLAG_SET);

        space--;
    3618:	e0bff917 	ldw	r2,-28(fp)
    361c:	10bfffc4 	addi	r2,r2,-1
    3620:	e0bff915 	stw	r2,-28(fp)
    if (control & ALTERA_AVALON_JTAG_UART_CONTROL_WI_MSK)
    {
      /* process a write irq */
      unsigned int space = (control & ALTERA_AVALON_JTAG_UART_CONTROL_WSPACE_MSK) >> ALTERA_AVALON_JTAG_UART_CONTROL_WSPACE_OFST;

      while (space > 0 && sp->tx_out != sp->tx_in)
    3624:	e0bff917 	ldw	r2,-28(fp)
    3628:	10000526 	beq	r2,zero,3640 <altera_avalon_jtag_uart_irq+0x1ac>
    362c:	e0bffa17 	ldw	r2,-24(fp)
    3630:	10c00d17 	ldw	r3,52(r2)
    3634:	e0bffa17 	ldw	r2,-24(fp)
    3638:	10800c17 	ldw	r2,48(r2)
    363c:	18bfe51e 	bne	r3,r2,35d4 <__alt_mem_onchip_memory+0xf78035d4>
        ALT_FLAG_POST (sp->events, ALT_JTAG_UART_WRITE_RDY, OS_FLAG_SET);

        space--;
      }

      if (space > 0)
    3640:	e0bff917 	ldw	r2,-28(fp)
    3644:	103f9d26 	beq	r2,zero,34bc <__alt_mem_onchip_memory+0xf78034bc>
      {
        /* If we don't have any more data available then turn off the TX interrupt */
        sp->irq_enable &= ~ALTERA_AVALON_JTAG_UART_CONTROL_WE_MSK;
    3648:	e0bffa17 	ldw	r2,-24(fp)
    364c:	10c00817 	ldw	r3,32(r2)
    3650:	00bfff44 	movi	r2,-3
    3654:	1886703a 	and	r3,r3,r2
    3658:	e0bffa17 	ldw	r2,-24(fp)
    365c:	10c00815 	stw	r3,32(r2)
        IOWR_ALTERA_AVALON_JTAG_UART_CONTROL(sp->base, sp->irq_enable);
    3660:	e0bffa17 	ldw	r2,-24(fp)
    3664:	10800017 	ldw	r2,0(r2)
    3668:	10800104 	addi	r2,r2,4
    366c:	1007883a 	mov	r3,r2
    3670:	e0bffa17 	ldw	r2,-24(fp)
    3674:	10800817 	ldw	r2,32(r2)
    3678:	18800035 	stwio	r2,0(r3)
        
        /* Dummy read to ensure IRQ is cleared prior to ISR completion */
        IORD_ALTERA_AVALON_JTAG_UART_CONTROL(base);
    367c:	e0bffb17 	ldw	r2,-20(fp)
    3680:	10800104 	addi	r2,r2,4
    3684:	10800037 	ldwio	r2,0(r2)
      }
    }
  }
    3688:	003f8c06 	br	34bc <__alt_mem_onchip_memory+0xf78034bc>
  {
    unsigned int control = IORD_ALTERA_AVALON_JTAG_UART_CONTROL(base);

    /* Return once nothing more to do */
    if ((control & (ALTERA_AVALON_JTAG_UART_CONTROL_RI_MSK | ALTERA_AVALON_JTAG_UART_CONTROL_WI_MSK)) == 0)
      break;
    368c:	0001883a 	nop
        /* Dummy read to ensure IRQ is cleared prior to ISR completion */
        IORD_ALTERA_AVALON_JTAG_UART_CONTROL(base);
      }
    }
  }
}
    3690:	0001883a 	nop
    3694:	e037883a 	mov	sp,fp
    3698:	df000017 	ldw	fp,0(sp)
    369c:	dec00104 	addi	sp,sp,4
    36a0:	f800283a 	ret

000036a4 <altera_avalon_jtag_uart_timeout>:
 * Timeout routine is called every second
 */

static alt_u32 
altera_avalon_jtag_uart_timeout(void* context) 
{
    36a4:	defff804 	addi	sp,sp,-32
    36a8:	df000715 	stw	fp,28(sp)
    36ac:	df000704 	addi	fp,sp,28
    36b0:	e13ffb15 	stw	r4,-20(fp)
  altera_avalon_jtag_uart_state* sp = (altera_avalon_jtag_uart_state *) context;
    36b4:	e0bffb17 	ldw	r2,-20(fp)
    36b8:	e0bff915 	stw	r2,-28(fp)

  unsigned int control = IORD_ALTERA_AVALON_JTAG_UART_CONTROL(sp->base);
    36bc:	e0bff917 	ldw	r2,-28(fp)
    36c0:	10800017 	ldw	r2,0(r2)
    36c4:	10800104 	addi	r2,r2,4
    36c8:	10800037 	ldwio	r2,0(r2)
    36cc:	e0bffa15 	stw	r2,-24(fp)

  if (control & ALTERA_AVALON_JTAG_UART_CONTROL_AC_MSK)
    36d0:	e0bffa17 	ldw	r2,-24(fp)
    36d4:	1081000c 	andi	r2,r2,1024
    36d8:	10000b26 	beq	r2,zero,3708 <altera_avalon_jtag_uart_timeout+0x64>
  {
    IOWR_ALTERA_AVALON_JTAG_UART_CONTROL(sp->base, sp->irq_enable | ALTERA_AVALON_JTAG_UART_CONTROL_AC_MSK);
    36dc:	e0bff917 	ldw	r2,-28(fp)
    36e0:	10800017 	ldw	r2,0(r2)
    36e4:	10800104 	addi	r2,r2,4
    36e8:	1007883a 	mov	r3,r2
    36ec:	e0bff917 	ldw	r2,-28(fp)
    36f0:	10800817 	ldw	r2,32(r2)
    36f4:	10810014 	ori	r2,r2,1024
    36f8:	18800035 	stwio	r2,0(r3)
    sp->host_inactive = 0;
    36fc:	e0bff917 	ldw	r2,-28(fp)
    3700:	10000915 	stw	zero,36(r2)
    3704:	00000a06 	br	3730 <altera_avalon_jtag_uart_timeout+0x8c>
  }
  else if (sp->host_inactive < INT_MAX - 2) {
    3708:	e0bff917 	ldw	r2,-28(fp)
    370c:	10c00917 	ldw	r3,36(r2)
    3710:	00a00034 	movhi	r2,32768
    3714:	10bfff04 	addi	r2,r2,-4
    3718:	10c00536 	bltu	r2,r3,3730 <altera_avalon_jtag_uart_timeout+0x8c>
    sp->host_inactive++;
    371c:	e0bff917 	ldw	r2,-28(fp)
    3720:	10800917 	ldw	r2,36(r2)
    3724:	10c00044 	addi	r3,r2,1
    3728:	e0bff917 	ldw	r2,-28(fp)
    372c:	10c00915 	stw	r3,36(r2)
    3730:	d0a69e17 	ldw	r2,-25992(gp)
      ALT_FLAG_POST (sp->events, ALT_JTAG_UART_TIMEOUT, OS_FLAG_SET);
    }
  }

  return alt_ticks_per_second();
}
    3734:	e037883a 	mov	sp,fp
    3738:	df000017 	ldw	fp,0(sp)
    373c:	dec00104 	addi	sp,sp,4
    3740:	f800283a 	ret

00003744 <altera_avalon_jtag_uart_close>:
 * The close routine is not implemented for the small driver; instead it will
 * map to null. This is because the small driver simply waits while characters
 * are transmitted; there is no interrupt-serviced buffer to empty 
 */
int altera_avalon_jtag_uart_close(altera_avalon_jtag_uart_state* sp, int flags)
{
    3744:	defffd04 	addi	sp,sp,-12
    3748:	df000215 	stw	fp,8(sp)
    374c:	df000204 	addi	fp,sp,8
    3750:	e13ffe15 	stw	r4,-8(fp)
    3754:	e17fff15 	stw	r5,-4(fp)
  /* 
   * Wait for all transmit data to be emptied by the JTAG UART ISR, or
   * for a host-inactivity timeout, in which case transmit data will be lost
   */
  while ( (sp->tx_out != sp->tx_in) && (sp->host_inactive < sp->timeout) ) {
    3758:	00000506 	br	3770 <altera_avalon_jtag_uart_close+0x2c>
    if (flags & O_NONBLOCK) {
    375c:	e0bfff17 	ldw	r2,-4(fp)
    3760:	1090000c 	andi	r2,r2,16384
    3764:	10000226 	beq	r2,zero,3770 <altera_avalon_jtag_uart_close+0x2c>
      return -EWOULDBLOCK; 
    3768:	00bffd44 	movi	r2,-11
    376c:	00000b06 	br	379c <altera_avalon_jtag_uart_close+0x58>
{
  /* 
   * Wait for all transmit data to be emptied by the JTAG UART ISR, or
   * for a host-inactivity timeout, in which case transmit data will be lost
   */
  while ( (sp->tx_out != sp->tx_in) && (sp->host_inactive < sp->timeout) ) {
    3770:	e0bffe17 	ldw	r2,-8(fp)
    3774:	10c00d17 	ldw	r3,52(r2)
    3778:	e0bffe17 	ldw	r2,-8(fp)
    377c:	10800c17 	ldw	r2,48(r2)
    3780:	18800526 	beq	r3,r2,3798 <altera_avalon_jtag_uart_close+0x54>
    3784:	e0bffe17 	ldw	r2,-8(fp)
    3788:	10c00917 	ldw	r3,36(r2)
    378c:	e0bffe17 	ldw	r2,-8(fp)
    3790:	10800117 	ldw	r2,4(r2)
    3794:	18bff136 	bltu	r3,r2,375c <__alt_mem_onchip_memory+0xf780375c>
    if (flags & O_NONBLOCK) {
      return -EWOULDBLOCK; 
    }
  }

  return 0;
    3798:	0005883a 	mov	r2,zero
}
    379c:	e037883a 	mov	sp,fp
    37a0:	df000017 	ldw	fp,0(sp)
    37a4:	dec00104 	addi	sp,sp,4
    37a8:	f800283a 	ret

000037ac <altera_avalon_jtag_uart_ioctl>:
/* ----------------------------------------------------------- */

int 
altera_avalon_jtag_uart_ioctl(altera_avalon_jtag_uart_state* sp, int req,
  void* arg)
{
    37ac:	defffa04 	addi	sp,sp,-24
    37b0:	df000515 	stw	fp,20(sp)
    37b4:	df000504 	addi	fp,sp,20
    37b8:	e13ffd15 	stw	r4,-12(fp)
    37bc:	e17ffe15 	stw	r5,-8(fp)
    37c0:	e1bfff15 	stw	r6,-4(fp)
  int rc = -ENOTTY;
    37c4:	00bff9c4 	movi	r2,-25
    37c8:	e0bffb15 	stw	r2,-20(fp)

  switch (req)
    37cc:	e0bffe17 	ldw	r2,-8(fp)
    37d0:	10da8060 	cmpeqi	r3,r2,27137
    37d4:	1800031e 	bne	r3,zero,37e4 <altera_avalon_jtag_uart_ioctl+0x38>
    37d8:	109a80a0 	cmpeqi	r2,r2,27138
    37dc:	1000181e 	bne	r2,zero,3840 <altera_avalon_jtag_uart_ioctl+0x94>
      rc = 0;
    }
    break;

  default:
    break;
    37e0:	00002906 	br	3888 <altera_avalon_jtag_uart_ioctl+0xdc>

  switch (req)
  {
  case TIOCSTIMEOUT:
    /* Set the time to wait until assuming host is not connected */
    if (sp->timeout != INT_MAX)
    37e4:	e0bffd17 	ldw	r2,-12(fp)
    37e8:	10c00117 	ldw	r3,4(r2)
    37ec:	00a00034 	movhi	r2,32768
    37f0:	10bfffc4 	addi	r2,r2,-1
    37f4:	18802126 	beq	r3,r2,387c <altera_avalon_jtag_uart_ioctl+0xd0>
    {
      int timeout = *((int *)arg);
    37f8:	e0bfff17 	ldw	r2,-4(fp)
    37fc:	10800017 	ldw	r2,0(r2)
    3800:	e0bffc15 	stw	r2,-16(fp)
      sp->timeout = (timeout >= 2 && timeout < INT_MAX) ? timeout : INT_MAX - 1;
    3804:	e0bffc17 	ldw	r2,-16(fp)
    3808:	10800090 	cmplti	r2,r2,2
    380c:	1000061e 	bne	r2,zero,3828 <altera_avalon_jtag_uart_ioctl+0x7c>
    3810:	e0fffc17 	ldw	r3,-16(fp)
    3814:	00a00034 	movhi	r2,32768
    3818:	10bfffc4 	addi	r2,r2,-1
    381c:	18800226 	beq	r3,r2,3828 <altera_avalon_jtag_uart_ioctl+0x7c>
    3820:	e0bffc17 	ldw	r2,-16(fp)
    3824:	00000206 	br	3830 <altera_avalon_jtag_uart_ioctl+0x84>
    3828:	00a00034 	movhi	r2,32768
    382c:	10bfff84 	addi	r2,r2,-2
    3830:	e0fffd17 	ldw	r3,-12(fp)
    3834:	18800115 	stw	r2,4(r3)
      rc = 0;
    3838:	e03ffb15 	stw	zero,-20(fp)
    }
    break;
    383c:	00000f06 	br	387c <altera_avalon_jtag_uart_ioctl+0xd0>

  case TIOCGCONNECTED:
    /* Find out whether host is connected */
    if (sp->timeout != INT_MAX)
    3840:	e0bffd17 	ldw	r2,-12(fp)
    3844:	10c00117 	ldw	r3,4(r2)
    3848:	00a00034 	movhi	r2,32768
    384c:	10bfffc4 	addi	r2,r2,-1
    3850:	18800c26 	beq	r3,r2,3884 <altera_avalon_jtag_uart_ioctl+0xd8>
    {
      *((int *)arg) = (sp->host_inactive < sp->timeout) ? 1 : 0;
    3854:	e0bffd17 	ldw	r2,-12(fp)
    3858:	10c00917 	ldw	r3,36(r2)
    385c:	e0bffd17 	ldw	r2,-12(fp)
    3860:	10800117 	ldw	r2,4(r2)
    3864:	1885803a 	cmpltu	r2,r3,r2
    3868:	10c03fcc 	andi	r3,r2,255
    386c:	e0bfff17 	ldw	r2,-4(fp)
    3870:	10c00015 	stw	r3,0(r2)
      rc = 0;
    3874:	e03ffb15 	stw	zero,-20(fp)
    }
    break;
    3878:	00000206 	br	3884 <altera_avalon_jtag_uart_ioctl+0xd8>
    {
      int timeout = *((int *)arg);
      sp->timeout = (timeout >= 2 && timeout < INT_MAX) ? timeout : INT_MAX - 1;
      rc = 0;
    }
    break;
    387c:	0001883a 	nop
    3880:	00000106 	br	3888 <altera_avalon_jtag_uart_ioctl+0xdc>
    if (sp->timeout != INT_MAX)
    {
      *((int *)arg) = (sp->host_inactive < sp->timeout) ? 1 : 0;
      rc = 0;
    }
    break;
    3884:	0001883a 	nop

  default:
    break;
  }

  return rc;
    3888:	e0bffb17 	ldw	r2,-20(fp)
}
    388c:	e037883a 	mov	sp,fp
    3890:	df000017 	ldw	fp,0(sp)
    3894:	dec00104 	addi	sp,sp,4
    3898:	f800283a 	ret

0000389c <altera_avalon_jtag_uart_read>:
/* ----------------------------------------------------------- */

int 
altera_avalon_jtag_uart_read(altera_avalon_jtag_uart_state* sp, 
  char * buffer, int space, int flags)
{
    389c:	defff304 	addi	sp,sp,-52
    38a0:	dfc00c15 	stw	ra,48(sp)
    38a4:	df000b15 	stw	fp,44(sp)
    38a8:	df000b04 	addi	fp,sp,44
    38ac:	e13ffc15 	stw	r4,-16(fp)
    38b0:	e17ffd15 	stw	r5,-12(fp)
    38b4:	e1bffe15 	stw	r6,-8(fp)
    38b8:	e1ffff15 	stw	r7,-4(fp)
  char * ptr = buffer;
    38bc:	e0bffd17 	ldw	r2,-12(fp)
    38c0:	e0bff515 	stw	r2,-44(fp)
   * When running in a multi threaded environment, obtain the "read_lock"
   * semaphore. This ensures that reading from the device is thread-safe.
   */
  ALT_SEM_PEND (sp->read_lock, 0);

  while (space > 0)
    38c4:	00004706 	br	39e4 <altera_avalon_jtag_uart_read+0x148>
    unsigned int in, out;

    /* Read as much data as possible */
    do
    {
      in  = sp->rx_in;
    38c8:	e0bffc17 	ldw	r2,-16(fp)
    38cc:	10800a17 	ldw	r2,40(r2)
    38d0:	e0bff715 	stw	r2,-36(fp)
      out = sp->rx_out;
    38d4:	e0bffc17 	ldw	r2,-16(fp)
    38d8:	10800b17 	ldw	r2,44(r2)
    38dc:	e0bff815 	stw	r2,-32(fp)

      if (in >= out)
    38e0:	e0fff717 	ldw	r3,-36(fp)
    38e4:	e0bff817 	ldw	r2,-32(fp)
    38e8:	18800536 	bltu	r3,r2,3900 <altera_avalon_jtag_uart_read+0x64>
        n = in - out;
    38ec:	e0fff717 	ldw	r3,-36(fp)
    38f0:	e0bff817 	ldw	r2,-32(fp)
    38f4:	1885c83a 	sub	r2,r3,r2
    38f8:	e0bff615 	stw	r2,-40(fp)
    38fc:	00000406 	br	3910 <altera_avalon_jtag_uart_read+0x74>
      else
        n = ALTERA_AVALON_JTAG_UART_BUF_LEN - out;
    3900:	00c20004 	movi	r3,2048
    3904:	e0bff817 	ldw	r2,-32(fp)
    3908:	1885c83a 	sub	r2,r3,r2
    390c:	e0bff615 	stw	r2,-40(fp)

      if (n == 0)
    3910:	e0bff617 	ldw	r2,-40(fp)
    3914:	10001e26 	beq	r2,zero,3990 <altera_avalon_jtag_uart_read+0xf4>
        break; /* No more data available */

      if (n > space)
    3918:	e0fffe17 	ldw	r3,-8(fp)
    391c:	e0bff617 	ldw	r2,-40(fp)
    3920:	1880022e 	bgeu	r3,r2,392c <altera_avalon_jtag_uart_read+0x90>
        n = space;
    3924:	e0bffe17 	ldw	r2,-8(fp)
    3928:	e0bff615 	stw	r2,-40(fp)

      memcpy(ptr, sp->rx_buf + out, n);
    392c:	e0bffc17 	ldw	r2,-16(fp)
    3930:	10c00e04 	addi	r3,r2,56
    3934:	e0bff817 	ldw	r2,-32(fp)
    3938:	1885883a 	add	r2,r3,r2
    393c:	e1bff617 	ldw	r6,-40(fp)
    3940:	100b883a 	mov	r5,r2
    3944:	e13ff517 	ldw	r4,-44(fp)
    3948:	0000eac0 	call	eac <memcpy>
      ptr   += n;
    394c:	e0fff517 	ldw	r3,-44(fp)
    3950:	e0bff617 	ldw	r2,-40(fp)
    3954:	1885883a 	add	r2,r3,r2
    3958:	e0bff515 	stw	r2,-44(fp)
      space -= n;
    395c:	e0fffe17 	ldw	r3,-8(fp)
    3960:	e0bff617 	ldw	r2,-40(fp)
    3964:	1885c83a 	sub	r2,r3,r2
    3968:	e0bffe15 	stw	r2,-8(fp)

      sp->rx_out = (out + n) % ALTERA_AVALON_JTAG_UART_BUF_LEN;
    396c:	e0fff817 	ldw	r3,-32(fp)
    3970:	e0bff617 	ldw	r2,-40(fp)
    3974:	1885883a 	add	r2,r3,r2
    3978:	10c1ffcc 	andi	r3,r2,2047
    397c:	e0bffc17 	ldw	r2,-16(fp)
    3980:	10c00b15 	stw	r3,44(r2)
    }
    while (space > 0);
    3984:	e0bffe17 	ldw	r2,-8(fp)
    3988:	00bfcf16 	blt	zero,r2,38c8 <__alt_mem_onchip_memory+0xf78038c8>
    398c:	00000106 	br	3994 <altera_avalon_jtag_uart_read+0xf8>
        n = in - out;
      else
        n = ALTERA_AVALON_JTAG_UART_BUF_LEN - out;

      if (n == 0)
        break; /* No more data available */
    3990:	0001883a 	nop
      sp->rx_out = (out + n) % ALTERA_AVALON_JTAG_UART_BUF_LEN;
    }
    while (space > 0);

    /* If we read any data then return it */
    if (ptr != buffer)
    3994:	e0fff517 	ldw	r3,-44(fp)
    3998:	e0bffd17 	ldw	r2,-12(fp)
    399c:	1880141e 	bne	r3,r2,39f0 <altera_avalon_jtag_uart_read+0x154>
      break;

    /* If in non-blocking mode then return error */
    if (flags & O_NONBLOCK)
    39a0:	e0bfff17 	ldw	r2,-4(fp)
    39a4:	1090000c 	andi	r2,r2,16384
    39a8:	1000131e 	bne	r2,zero,39f8 <altera_avalon_jtag_uart_read+0x15c>
      while (in == sp->rx_in && sp->host_inactive < sp->timeout)
        ;
    }
#else
    /* No OS: Always spin */
    while (in == sp->rx_in && sp->host_inactive < sp->timeout)
    39ac:	0001883a 	nop
    39b0:	e0bffc17 	ldw	r2,-16(fp)
    39b4:	10c00a17 	ldw	r3,40(r2)
    39b8:	e0bff717 	ldw	r2,-36(fp)
    39bc:	1880051e 	bne	r3,r2,39d4 <altera_avalon_jtag_uart_read+0x138>
    39c0:	e0bffc17 	ldw	r2,-16(fp)
    39c4:	10c00917 	ldw	r3,36(r2)
    39c8:	e0bffc17 	ldw	r2,-16(fp)
    39cc:	10800117 	ldw	r2,4(r2)
    39d0:	18bff736 	bltu	r3,r2,39b0 <__alt_mem_onchip_memory+0xf78039b0>
      ;
#endif /* __ucosii__ */

    if (in == sp->rx_in)
    39d4:	e0bffc17 	ldw	r2,-16(fp)
    39d8:	10c00a17 	ldw	r3,40(r2)
    39dc:	e0bff717 	ldw	r2,-36(fp)
    39e0:	18800726 	beq	r3,r2,3a00 <altera_avalon_jtag_uart_read+0x164>
   * When running in a multi threaded environment, obtain the "read_lock"
   * semaphore. This ensures that reading from the device is thread-safe.
   */
  ALT_SEM_PEND (sp->read_lock, 0);

  while (space > 0)
    39e4:	e0bffe17 	ldw	r2,-8(fp)
    39e8:	00bfb716 	blt	zero,r2,38c8 <__alt_mem_onchip_memory+0xf78038c8>
    39ec:	00000506 	br	3a04 <altera_avalon_jtag_uart_read+0x168>
    }
    while (space > 0);

    /* If we read any data then return it */
    if (ptr != buffer)
      break;
    39f0:	0001883a 	nop
    39f4:	00000306 	br	3a04 <altera_avalon_jtag_uart_read+0x168>

    /* If in non-blocking mode then return error */
    if (flags & O_NONBLOCK)
      break;
    39f8:	0001883a 	nop
    39fc:	00000106 	br	3a04 <altera_avalon_jtag_uart_read+0x168>
    while (in == sp->rx_in && sp->host_inactive < sp->timeout)
      ;
#endif /* __ucosii__ */

    if (in == sp->rx_in)
      break;
    3a00:	0001883a 	nop
   * semaphore so that other threads can access the buffer.
   */

  ALT_SEM_POST (sp->read_lock);

  if (ptr != buffer)
    3a04:	e0fff517 	ldw	r3,-44(fp)
    3a08:	e0bffd17 	ldw	r2,-12(fp)
    3a0c:	18801826 	beq	r3,r2,3a70 <altera_avalon_jtag_uart_read+0x1d4>
static ALT_INLINE alt_irq_context ALT_ALWAYS_INLINE 
       alt_irq_disable_all (void)
{
  alt_irq_context context;

  NIOS2_READ_STATUS (context);
    3a10:	0005303a 	rdctl	r2,status
    3a14:	e0bffb15 	stw	r2,-20(fp)

  NIOS2_WRITE_STATUS (context & ~NIOS2_STATUS_PIE_MSK);
    3a18:	e0fffb17 	ldw	r3,-20(fp)
    3a1c:	00bfff84 	movi	r2,-2
    3a20:	1884703a 	and	r2,r3,r2
    3a24:	1001703a 	wrctl	status,r2
  
  return context;
    3a28:	e0bffb17 	ldw	r2,-20(fp)
  {
    /* If we read any data then there is space in the buffer so enable interrupts */
    context = alt_irq_disable_all();
    3a2c:	e0bffa15 	stw	r2,-24(fp)
    sp->irq_enable |= ALTERA_AVALON_JTAG_UART_CONTROL_RE_MSK;
    3a30:	e0bffc17 	ldw	r2,-16(fp)
    3a34:	10800817 	ldw	r2,32(r2)
    3a38:	10c00054 	ori	r3,r2,1
    3a3c:	e0bffc17 	ldw	r2,-16(fp)
    3a40:	10c00815 	stw	r3,32(r2)
    IOWR_ALTERA_AVALON_JTAG_UART_CONTROL(sp->base, sp->irq_enable);
    3a44:	e0bffc17 	ldw	r2,-16(fp)
    3a48:	10800017 	ldw	r2,0(r2)
    3a4c:	10800104 	addi	r2,r2,4
    3a50:	1007883a 	mov	r3,r2
    3a54:	e0bffc17 	ldw	r2,-16(fp)
    3a58:	10800817 	ldw	r2,32(r2)
    3a5c:	18800035 	stwio	r2,0(r3)
    3a60:	e0bffa17 	ldw	r2,-24(fp)
    3a64:	e0bff915 	stw	r2,-28(fp)
  status &= ~NIOS2_STATUS_PIE_MSK;
  status |= (context & NIOS2_STATUS_PIE_MSK);
  
  NIOS2_WRITE_STATUS (status);
#else
  NIOS2_WRITE_STATUS (context);
    3a68:	e0bff917 	ldw	r2,-28(fp)
    3a6c:	1001703a 	wrctl	status,r2
    alt_irq_enable_all(context);
  }

  if (ptr != buffer)
    3a70:	e0fff517 	ldw	r3,-44(fp)
    3a74:	e0bffd17 	ldw	r2,-12(fp)
    3a78:	18800426 	beq	r3,r2,3a8c <altera_avalon_jtag_uart_read+0x1f0>
    return ptr - buffer;
    3a7c:	e0fff517 	ldw	r3,-44(fp)
    3a80:	e0bffd17 	ldw	r2,-12(fp)
    3a84:	1885c83a 	sub	r2,r3,r2
    3a88:	00000606 	br	3aa4 <altera_avalon_jtag_uart_read+0x208>
  else if (flags & O_NONBLOCK)
    3a8c:	e0bfff17 	ldw	r2,-4(fp)
    3a90:	1090000c 	andi	r2,r2,16384
    3a94:	10000226 	beq	r2,zero,3aa0 <altera_avalon_jtag_uart_read+0x204>
    return -EWOULDBLOCK;
    3a98:	00bffd44 	movi	r2,-11
    3a9c:	00000106 	br	3aa4 <altera_avalon_jtag_uart_read+0x208>
  else
    return -EIO;
    3aa0:	00bffec4 	movi	r2,-5
}
    3aa4:	e037883a 	mov	sp,fp
    3aa8:	dfc00117 	ldw	ra,4(sp)
    3aac:	df000017 	ldw	fp,0(sp)
    3ab0:	dec00204 	addi	sp,sp,8
    3ab4:	f800283a 	ret

00003ab8 <altera_avalon_jtag_uart_write>:
/* ----------------------------------------------------------- */

int 
altera_avalon_jtag_uart_write(altera_avalon_jtag_uart_state* sp, 
  const char * ptr, int count, int flags)
{
    3ab8:	defff304 	addi	sp,sp,-52
    3abc:	dfc00c15 	stw	ra,48(sp)
    3ac0:	df000b15 	stw	fp,44(sp)
    3ac4:	df000b04 	addi	fp,sp,44
    3ac8:	e13ffc15 	stw	r4,-16(fp)
    3acc:	e17ffd15 	stw	r5,-12(fp)
    3ad0:	e1bffe15 	stw	r6,-8(fp)
    3ad4:	e1ffff15 	stw	r7,-4(fp)
  /* Remove warning at optimisation level 03 by seting out to 0 */
  unsigned int in, out=0;
    3ad8:	e03ff515 	stw	zero,-44(fp)
  unsigned int n;
  alt_irq_context context;

  const char * start = ptr;
    3adc:	e0bffd17 	ldw	r2,-12(fp)
    3ae0:	e0bff715 	stw	r2,-36(fp)
  ALT_SEM_PEND (sp->write_lock, 0);

  do
  {
    /* Copy as much as we can into the transmit buffer */
    while (count > 0)
    3ae4:	00003706 	br	3bc4 <altera_avalon_jtag_uart_write+0x10c>
    {
      /* We need a stable value of the out pointer to calculate the space available */
      in  = sp->tx_in;
    3ae8:	e0bffc17 	ldw	r2,-16(fp)
    3aec:	10800c17 	ldw	r2,48(r2)
    3af0:	e0bff915 	stw	r2,-28(fp)
      out = sp->tx_out;
    3af4:	e0bffc17 	ldw	r2,-16(fp)
    3af8:	10800d17 	ldw	r2,52(r2)
    3afc:	e0bff515 	stw	r2,-44(fp)

      if (in < out)
    3b00:	e0fff917 	ldw	r3,-28(fp)
    3b04:	e0bff517 	ldw	r2,-44(fp)
    3b08:	1880062e 	bgeu	r3,r2,3b24 <altera_avalon_jtag_uart_write+0x6c>
        n = out - 1 - in;
    3b0c:	e0fff517 	ldw	r3,-44(fp)
    3b10:	e0bff917 	ldw	r2,-28(fp)
    3b14:	1885c83a 	sub	r2,r3,r2
    3b18:	10bfffc4 	addi	r2,r2,-1
    3b1c:	e0bff615 	stw	r2,-40(fp)
    3b20:	00000b06 	br	3b50 <altera_avalon_jtag_uart_write+0x98>
      else if (out > 0)
    3b24:	e0bff517 	ldw	r2,-44(fp)
    3b28:	10000526 	beq	r2,zero,3b40 <altera_avalon_jtag_uart_write+0x88>
        n = ALTERA_AVALON_JTAG_UART_BUF_LEN - in;
    3b2c:	00c20004 	movi	r3,2048
    3b30:	e0bff917 	ldw	r2,-28(fp)
    3b34:	1885c83a 	sub	r2,r3,r2
    3b38:	e0bff615 	stw	r2,-40(fp)
    3b3c:	00000406 	br	3b50 <altera_avalon_jtag_uart_write+0x98>
      else
        n = ALTERA_AVALON_JTAG_UART_BUF_LEN - 1 - in;
    3b40:	00c1ffc4 	movi	r3,2047
    3b44:	e0bff917 	ldw	r2,-28(fp)
    3b48:	1885c83a 	sub	r2,r3,r2
    3b4c:	e0bff615 	stw	r2,-40(fp)

      if (n == 0)
    3b50:	e0bff617 	ldw	r2,-40(fp)
    3b54:	10001e26 	beq	r2,zero,3bd0 <altera_avalon_jtag_uart_write+0x118>
        break;

      if (n > count)
    3b58:	e0fffe17 	ldw	r3,-8(fp)
    3b5c:	e0bff617 	ldw	r2,-40(fp)
    3b60:	1880022e 	bgeu	r3,r2,3b6c <altera_avalon_jtag_uart_write+0xb4>
        n = count;
    3b64:	e0bffe17 	ldw	r2,-8(fp)
    3b68:	e0bff615 	stw	r2,-40(fp)

      memcpy(sp->tx_buf + in, ptr, n);
    3b6c:	e0bffc17 	ldw	r2,-16(fp)
    3b70:	10c20e04 	addi	r3,r2,2104
    3b74:	e0bff917 	ldw	r2,-28(fp)
    3b78:	1885883a 	add	r2,r3,r2
    3b7c:	e1bff617 	ldw	r6,-40(fp)
    3b80:	e17ffd17 	ldw	r5,-12(fp)
    3b84:	1009883a 	mov	r4,r2
    3b88:	0000eac0 	call	eac <memcpy>
      ptr   += n;
    3b8c:	e0fffd17 	ldw	r3,-12(fp)
    3b90:	e0bff617 	ldw	r2,-40(fp)
    3b94:	1885883a 	add	r2,r3,r2
    3b98:	e0bffd15 	stw	r2,-12(fp)
      count -= n;
    3b9c:	e0fffe17 	ldw	r3,-8(fp)
    3ba0:	e0bff617 	ldw	r2,-40(fp)
    3ba4:	1885c83a 	sub	r2,r3,r2
    3ba8:	e0bffe15 	stw	r2,-8(fp)

      sp->tx_in = (in + n) % ALTERA_AVALON_JTAG_UART_BUF_LEN;
    3bac:	e0fff917 	ldw	r3,-28(fp)
    3bb0:	e0bff617 	ldw	r2,-40(fp)
    3bb4:	1885883a 	add	r2,r3,r2
    3bb8:	10c1ffcc 	andi	r3,r2,2047
    3bbc:	e0bffc17 	ldw	r2,-16(fp)
    3bc0:	10c00c15 	stw	r3,48(r2)
  ALT_SEM_PEND (sp->write_lock, 0);

  do
  {
    /* Copy as much as we can into the transmit buffer */
    while (count > 0)
    3bc4:	e0bffe17 	ldw	r2,-8(fp)
    3bc8:	00bfc716 	blt	zero,r2,3ae8 <__alt_mem_onchip_memory+0xf7803ae8>
    3bcc:	00000106 	br	3bd4 <altera_avalon_jtag_uart_write+0x11c>
        n = ALTERA_AVALON_JTAG_UART_BUF_LEN - in;
      else
        n = ALTERA_AVALON_JTAG_UART_BUF_LEN - 1 - in;

      if (n == 0)
        break;
    3bd0:	0001883a 	nop
static ALT_INLINE alt_irq_context ALT_ALWAYS_INLINE 
       alt_irq_disable_all (void)
{
  alt_irq_context context;

  NIOS2_READ_STATUS (context);
    3bd4:	0005303a 	rdctl	r2,status
    3bd8:	e0bffb15 	stw	r2,-20(fp)

  NIOS2_WRITE_STATUS (context & ~NIOS2_STATUS_PIE_MSK);
    3bdc:	e0fffb17 	ldw	r3,-20(fp)
    3be0:	00bfff84 	movi	r2,-2
    3be4:	1884703a 	and	r2,r3,r2
    3be8:	1001703a 	wrctl	status,r2
  
  return context;
    3bec:	e0bffb17 	ldw	r2,-20(fp)
     * to enable interrupts if there is no space left in the FIFO
     *
     * For now kick the interrupt routine every time to make it transmit 
     * the data 
     */
    context = alt_irq_disable_all();
    3bf0:	e0bffa15 	stw	r2,-24(fp)
    sp->irq_enable |= ALTERA_AVALON_JTAG_UART_CONTROL_WE_MSK;
    3bf4:	e0bffc17 	ldw	r2,-16(fp)
    3bf8:	10800817 	ldw	r2,32(r2)
    3bfc:	10c00094 	ori	r3,r2,2
    3c00:	e0bffc17 	ldw	r2,-16(fp)
    3c04:	10c00815 	stw	r3,32(r2)
    IOWR_ALTERA_AVALON_JTAG_UART_CONTROL(sp->base, sp->irq_enable);
    3c08:	e0bffc17 	ldw	r2,-16(fp)
    3c0c:	10800017 	ldw	r2,0(r2)
    3c10:	10800104 	addi	r2,r2,4
    3c14:	1007883a 	mov	r3,r2
    3c18:	e0bffc17 	ldw	r2,-16(fp)
    3c1c:	10800817 	ldw	r2,32(r2)
    3c20:	18800035 	stwio	r2,0(r3)
    3c24:	e0bffa17 	ldw	r2,-24(fp)
    3c28:	e0bff815 	stw	r2,-32(fp)
  status &= ~NIOS2_STATUS_PIE_MSK;
  status |= (context & NIOS2_STATUS_PIE_MSK);
  
  NIOS2_WRITE_STATUS (status);
#else
  NIOS2_WRITE_STATUS (context);
    3c2c:	e0bff817 	ldw	r2,-32(fp)
    3c30:	1001703a 	wrctl	status,r2
    /* 
     * If there is any data left then either return now or block until 
     * some has been sent 
     */
    /* consider: test whether there is anything there while doing this and delay for at most 2s. */
    if (count > 0)
    3c34:	e0bffe17 	ldw	r2,-8(fp)
    3c38:	0080100e 	bge	zero,r2,3c7c <altera_avalon_jtag_uart_write+0x1c4>
    {
      if (flags & O_NONBLOCK)
    3c3c:	e0bfff17 	ldw	r2,-4(fp)
    3c40:	1090000c 	andi	r2,r2,16384
    3c44:	1000101e 	bne	r2,zero,3c88 <altera_avalon_jtag_uart_write+0x1d0>
      /*
       * No OS present: Always wait for data to be removed from buffer.  Once
       * the interrupt routine has removed some data then we will be able to
       * insert some more.
       */
      while (out == sp->tx_out && sp->host_inactive < sp->timeout)
    3c48:	0001883a 	nop
    3c4c:	e0bffc17 	ldw	r2,-16(fp)
    3c50:	10c00d17 	ldw	r3,52(r2)
    3c54:	e0bff517 	ldw	r2,-44(fp)
    3c58:	1880051e 	bne	r3,r2,3c70 <altera_avalon_jtag_uart_write+0x1b8>
    3c5c:	e0bffc17 	ldw	r2,-16(fp)
    3c60:	10c00917 	ldw	r3,36(r2)
    3c64:	e0bffc17 	ldw	r2,-16(fp)
    3c68:	10800117 	ldw	r2,4(r2)
    3c6c:	18bff736 	bltu	r3,r2,3c4c <__alt_mem_onchip_memory+0xf7803c4c>
        ;
#endif /* __ucosii__ */

      if  (sp->host_inactive)
    3c70:	e0bffc17 	ldw	r2,-16(fp)
    3c74:	10800917 	ldw	r2,36(r2)
    3c78:	1000051e 	bne	r2,zero,3c90 <altera_avalon_jtag_uart_write+0x1d8>
         break;
    }
  }
  while (count > 0);
    3c7c:	e0bffe17 	ldw	r2,-8(fp)
    3c80:	00bfd016 	blt	zero,r2,3bc4 <__alt_mem_onchip_memory+0xf7803bc4>
    3c84:	00000306 	br	3c94 <altera_avalon_jtag_uart_write+0x1dc>
     */
    /* consider: test whether there is anything there while doing this and delay for at most 2s. */
    if (count > 0)
    {
      if (flags & O_NONBLOCK)
        break;
    3c88:	0001883a 	nop
    3c8c:	00000106 	br	3c94 <altera_avalon_jtag_uart_write+0x1dc>
      while (out == sp->tx_out && sp->host_inactive < sp->timeout)
        ;
#endif /* __ucosii__ */

      if  (sp->host_inactive)
         break;
    3c90:	0001883a 	nop
   * Now that access to the circular buffer is complete, release the write
   * semaphore so that other threads can access the buffer.
   */
  ALT_SEM_POST (sp->write_lock);

  if (ptr != start)
    3c94:	e0fffd17 	ldw	r3,-12(fp)
    3c98:	e0bff717 	ldw	r2,-36(fp)
    3c9c:	18800426 	beq	r3,r2,3cb0 <altera_avalon_jtag_uart_write+0x1f8>
    return ptr - start;
    3ca0:	e0fffd17 	ldw	r3,-12(fp)
    3ca4:	e0bff717 	ldw	r2,-36(fp)
    3ca8:	1885c83a 	sub	r2,r3,r2
    3cac:	00000606 	br	3cc8 <altera_avalon_jtag_uart_write+0x210>
  else if (flags & O_NONBLOCK)
    3cb0:	e0bfff17 	ldw	r2,-4(fp)
    3cb4:	1090000c 	andi	r2,r2,16384
    3cb8:	10000226 	beq	r2,zero,3cc4 <altera_avalon_jtag_uart_write+0x20c>
    return -EWOULDBLOCK;
    3cbc:	00bffd44 	movi	r2,-11
    3cc0:	00000106 	br	3cc8 <altera_avalon_jtag_uart_write+0x210>
    sp->tx_out = sp->tx_in = 0;
    return ptr - start + count;
  }
#endif
  else
    return -EIO; /* Host not connected */
    3cc4:	00bffec4 	movi	r2,-5
}
    3cc8:	e037883a 	mov	sp,fp
    3ccc:	dfc00117 	ldw	ra,4(sp)
    3cd0:	df000017 	ldw	fp,0(sp)
    3cd4:	dec00204 	addi	sp,sp,8
    3cd8:	f800283a 	ret

00003cdc <alt_avalon_timer_sc_irq>:
#ifdef ALT_ENHANCED_INTERRUPT_API_PRESENT
static void alt_avalon_timer_sc_irq (void* base)
#else
static void alt_avalon_timer_sc_irq (void* base, alt_u32 id)
#endif
{
    3cdc:	defff904 	addi	sp,sp,-28
    3ce0:	dfc00615 	stw	ra,24(sp)
    3ce4:	df000515 	stw	fp,20(sp)
    3ce8:	df000504 	addi	fp,sp,20
    3cec:	e13ffe15 	stw	r4,-8(fp)
    3cf0:	e17fff15 	stw	r5,-4(fp)
  alt_irq_context cpu_sr;
  
  /* clear the interrupt */
  IOWR_ALTERA_AVALON_TIMER_STATUS (base, 0);
    3cf4:	0007883a 	mov	r3,zero
    3cf8:	e0bffe17 	ldw	r2,-8(fp)
    3cfc:	10c00035 	stwio	r3,0(r2)
  /* 
   * Dummy read to ensure IRQ is negated before the ISR returns.
   * The control register is read because reading the status
   * register has side-effects per the register map documentation.
   */
  IORD_ALTERA_AVALON_TIMER_CONTROL (base);
    3d00:	e0bffe17 	ldw	r2,-8(fp)
    3d04:	10800104 	addi	r2,r2,4
    3d08:	10800037 	ldwio	r2,0(r2)
static ALT_INLINE alt_irq_context ALT_ALWAYS_INLINE 
       alt_irq_disable_all (void)
{
  alt_irq_context context;

  NIOS2_READ_STATUS (context);
    3d0c:	0005303a 	rdctl	r2,status
    3d10:	e0bffc15 	stw	r2,-16(fp)

  NIOS2_WRITE_STATUS (context & ~NIOS2_STATUS_PIE_MSK);
    3d14:	e0fffc17 	ldw	r3,-16(fp)
    3d18:	00bfff84 	movi	r2,-2
    3d1c:	1884703a 	and	r2,r3,r2
    3d20:	1001703a 	wrctl	status,r2
  
  return context;
    3d24:	e0bffc17 	ldw	r2,-16(fp)

  /* 
   * Notify the system of a clock tick. disable interrupts 
   * during this time to safely support ISR preemption
   */
  cpu_sr = alt_irq_disable_all();
    3d28:	e0bffb15 	stw	r2,-20(fp)
  alt_tick ();
    3d2c:	0005c380 	call	5c38 <alt_tick>
    3d30:	e0bffb17 	ldw	r2,-20(fp)
    3d34:	e0bffd15 	stw	r2,-12(fp)
  status &= ~NIOS2_STATUS_PIE_MSK;
  status |= (context & NIOS2_STATUS_PIE_MSK);
  
  NIOS2_WRITE_STATUS (status);
#else
